
arch/arm/mach-sunxi/pm/standby/resume1.elf:     file format elf32-littlearm


Disassembly of section .text:

00000000 <__resume1_start>:
       0:	ea00000a 	b	30 <_start>
       4:	4e4f4765 	cdpmi	7, 4, cr4, cr15, cr5, {3}
       8:	3054422e 	subscc	r4, r4, lr, lsr #4
       c:	5f0a6c39 	svcpl	0x000a6c39
      10:	00000400 	andeq	r0, r0, r0, lsl #8
      14:	00000030 	andeq	r0, r0, r0, lsr r0
      18:	30303131 	eorscc	r3, r0, r1, lsr r1
      1c:	30333231 	eorscc	r3, r3, r1, lsr r2
      20:	30333231 	eorscc	r3, r3, r1, lsr r2
      24:	30303131 	eorscc	r3, r0, r1, lsr r1
	...

00000030 <_start>:
      30:	e10f0000 	mrs	r0, CPSR
      34:	e3c0001f 	bic	r0, r0, #31
      38:	e3800013 	orr	r0, r0, #19
      3c:	e38000c0 	orr	r0, r0, #192	; 0xc0
      40:	e3c00c02 	bic	r0, r0, #512	; 0x200
      44:	e121f000 	msr	CPSR_c, r0
      48:	ee110f10 	mrc	15, 0, r0, cr1, cr0, {0}
      4c:	e3c00005 	bic	r0, r0, #5
      50:	e3c00b06 	bic	r0, r0, #6144	; 0x1800
      54:	e3c00002 	bic	r0, r0, #2
      58:	ee010f10 	mcr	15, 0, r0, cr1, cr0, {0}
      5c:	f57ff04f 	dsb	sy
      60:	f57ff06f 	isb	sy
      64:	e59f0068 	ldr	r0, [pc, #104]	; d4 <config_end+0x28>
      68:	e5901000 	ldr	r1, [r0]
      6c:	e3811902 	orr	r1, r1, #32768	; 0x8000
      70:	e5801000 	str	r1, [r0]
      74:	e5901000 	ldr	r1, [r0]
      78:	e1a02821 	lsr	r2, r1, #16
      7c:	e59f3054 	ldr	r3, [pc, #84]	; d8 <config_end+0x2c>
      80:	e1520003 	cmp	r2, r3
      84:	0a000004 	beq	9c <config_61>

00000088 <config_50>:
      88:	e59f004c 	ldr	r0, [pc, #76]	; dc <config_end+0x30>
      8c:	e5901000 	ldr	r1, [r0]
      90:	e3811b06 	orr	r1, r1, #6144	; 0x1800
      94:	e5801000 	str	r1, [r0]
      98:	ea000003 	b	ac <config_end>

0000009c <config_61>:
      9c:	e59f0038 	ldr	r0, [pc, #56]	; dc <config_end+0x30>
      a0:	e5901000 	ldr	r1, [r0]
      a4:	e38110c0 	orr	r1, r1, #192	; 0xc0
      a8:	e5801000 	str	r1, [r0]

000000ac <config_end>:
      ac:	ee100fb0 	mrc	15, 0, r0, cr0, cr0, {5}
      b0:	e7e10050 	ubfx	r0, r0, #0, #2
      b4:	e2800001 	add	r0, r0, #1
      b8:	e1a00400 	lsl	r0, r0, #8
      bc:	e280db0f 	add	sp, r0, #15360	; 0x3c00
      c0:	f57ff04f 	dsb	sy
      c4:	f57ff06f 	isb	sy
      c8:	eb00006c 	bl	280 <set_pll>
      cc:	eb000018 	bl	134 <resume1_c_part>
      d0:	eafffffe 	b	d0 <config_end+0x24>
      d4:	01c00024 	biceq	r0, r0, r4, lsr #32
      d8:	00001661 	andeq	r1, r0, r1, ror #12
      dc:	01c00044 	biceq	r0, r0, r4, asr #32

000000e0 <mem_memcpy>:
      e0:	e2822003 	add	r2, r2, #3
      e4:	e1a02142 	asr	r2, r2, #2
      e8:	e3520000 	cmp	r2, #0
      ec:	d12fff1e 	bxle	lr
      f0:	e2400004 	sub	r0, r0, #4
      f4:	e0812102 	add	r2, r1, r2, lsl #2
      f8:	e4913004 	ldr	r3, [r1], #4
      fc:	e1510002 	cmp	r1, r2
     100:	e5a03004 	str	r3, [r0, #4]!
     104:	1afffffb 	bne	f8 <mem_memcpy+0x18>
     108:	e12fff1e 	bx	lr

0000010c <mem_delay>:
     10c:	e92d000f 	push	{r0, r1, r2, r3}
     110:	e3a01011 	mov	r1, #17
     114:	e1a03000 	mov	r3, r0

00000118 <loop2>:
     118:	e2500001 	subs	r0, r0, #1
     11c:	8afffffd 	bhi	118 <loop2>
     120:	e1a00003 	mov	r0, r3
     124:	e2511001 	subs	r1, r1, #1
     128:	8afffffa 	bhi	118 <loop2>
     12c:	e8bd000f 	pop	{r0, r1, r2, r3}
     130:	e1a0f00e 	mov	pc, lr

00000134 <resume1_c_part>:
     134:	e92d4070 	push	{r4, r5, r6, lr}
     138:	e3a00047 	mov	r0, #71	; 0x47
     13c:	eb0000db 	bl	4b0 <save_mem_status_nommu>
     140:	e3024f90 	movw	r4, #12176	; 0x2f90
     144:	eb0004d1 	bl	1490 <set_copro_default>
     148:	e3a00048 	mov	r0, #72	; 0x48
     14c:	e3404000 	movt	r4, #0
     150:	eb0000d6 	bl	4b0 <save_mem_status_nommu>
     154:	e2840054 	add	r0, r4, #84	; 0x54
     158:	eb0009ee 	bl	2918 <mem_clk_setdiv>
     15c:	e2840080 	add	r0, r4, #128	; 0x80
     160:	eb000a1d 	bl	29dc <mem_clk_set_pll_factor>
     164:	eb00011f 	bl	5e8 <change_runtime_env>
     168:	e5940018 	ldr	r0, [r4, #24]
     16c:	eb00014e 	bl	6ac <delay_ms>
     170:	e5943014 	ldr	r3, [r4, #20]
     174:	e3130002 	tst	r3, #2
     178:	1a000016 	bne	1d8 <resume1_c_part+0xa4>
     17c:	e3a00049 	mov	r0, #73	; 0x49
     180:	e3025f90 	movw	r5, #12176	; 0x2f90
     184:	eb0000c9 	bl	4b0 <save_mem_status_nommu>
     188:	e59f00e8 	ldr	r0, [pc, #232]	; 278 <resume1_c_part+0x144>
     18c:	eb00019d 	bl	808 <restore_mmu_state>
     190:	e3a0004a 	mov	r0, #74	; 0x4a
     194:	eb0000a9 	bl	440 <save_mem_status>
     198:	e3a0004b 	mov	r0, #75	; 0x4b
     19c:	eb0000a7 	bl	440 <save_mem_status>
     1a0:	e3405000 	movt	r5, #0
     1a4:	eb000258 	bl	b0c <mem_flush_tlb>
     1a8:	e3a00001 	mov	r0, #1
     1ac:	eb0009ad 	bl	2868 <mem_clk_init>
     1b0:	e5943014 	ldr	r3, [r4, #20]
     1b4:	e3130002 	tst	r3, #2
     1b8:	1a00000a 	bne	1e8 <resume1_c_part+0xb4>
     1bc:	e3a0004e 	mov	r0, #78	; 0x4e
     1c0:	eb00009e 	bl	440 <save_mem_status>
     1c4:	e59f10b0 	ldr	r1, [pc, #176]	; 27c <resume1_c_part+0x148>
     1c8:	e511001c 	ldr	r0, [r1, #-28]	; 0xffffffe4
     1cc:	eb0002bf 	bl	cd0 <jump_to_resume>
     1d0:	e3a00000 	mov	r0, #0
     1d4:	e8bd8070 	pop	{r4, r5, r6, pc}
     1d8:	e3020c28 	movw	r0, #11304	; 0x2c28
     1dc:	e3400000 	movt	r0, #0
     1e0:	eb00053d 	bl	16dc <serial_puts_nommu>
     1e4:	eaffffe4 	b	17c <resume1_c_part+0x48>
     1e8:	e3020c4c 	movw	r0, #11340	; 0x2c4c
     1ec:	e3400000 	movt	r0, #0
     1f0:	eb0005bc 	bl	18e8 <serial_puts>
     1f4:	eb0001a5 	bl	890 <get_cur_cluster_id>
     1f8:	e1a01000 	mov	r1, r0
     1fc:	e3020c7c 	movw	r0, #11388	; 0x2c7c
     200:	e3400000 	movt	r0, #0
     204:	eb00069c 	bl	1c7c <printk>
     208:	e3020c98 	movw	r0, #11416	; 0x2c98
     20c:	e5951014 	ldr	r1, [r5, #20]
     210:	e3400000 	movt	r0, #0
     214:	eb000698 	bl	1c7c <printk>
     218:	e3020cbc 	movw	r0, #11452	; 0x2cbc
     21c:	e3400000 	movt	r0, #0
     220:	e5951018 	ldr	r1, [r5, #24]
     224:	eb000694 	bl	1c7c <printk>
     228:	e5953014 	ldr	r3, [r5, #20]
     22c:	e3130008 	tst	r3, #8
     230:	e3a03000 	mov	r3, #0
     234:	0a000007 	beq	258 <resume1_c_part+0x124>
     238:	e34f31c2 	movt	r3, #61890	; 0xf1c2
     23c:	e30018b4 	movw	r1, #2228	; 0x8b4
     240:	e3020cec 	movw	r0, #11500	; 0x2cec
     244:	e59328b4 	ldr	r2, [r3, #2228]	; 0x8b4
     248:	e34f11c2 	movt	r1, #61890	; 0xf1c2
     24c:	e3400000 	movt	r0, #0
     250:	eb000689 	bl	1c7c <printk>
     254:	eaffffd8 	b	1bc <resume1_c_part+0x88>
     258:	e34f31c2 	movt	r3, #61890	; 0xf1c2
     25c:	e3a01b02 	mov	r1, #2048	; 0x800
     260:	e3020d04 	movw	r0, #11524	; 0x2d04
     264:	e5932800 	ldr	r2, [r3, #2048]	; 0x800
     268:	e34f11c2 	movt	r1, #61890	; 0xf1c2
     26c:	e3400000 	movt	r0, #0
     270:	eb000681 	bl	1c7c <printk>
     274:	eaffffd0 	b	1bc <resume1_c_part+0x88>
     278:	00003018 	andeq	r3, r0, r8, lsl r0
     27c:	00002fac 	andeq	r2, r0, ip, lsr #31

00000280 <set_pll>:
     280:	e92d4070 	push	{r4, r5, r6, lr}
     284:	ee102fb0 	mrc	15, 0, r2, cr0, cr0, {5}
     288:	e2122003 	ands	r2, r2, #3
     28c:	1a00003a 	bne	37c <set_pll+0xfc>
     290:	e302cda8 	movw	ip, #11688	; 0x2da8
     294:	e303117c 	movw	r1, #12668	; 0x317c
     298:	e340c000 	movt	ip, #0
     29c:	e3401000 	movt	r1, #0
     2a0:	e59c3000 	ldr	r3, [ip]
     2a4:	e4832004 	str	r2, [r3], #4
     2a8:	e1530001 	cmp	r3, r1
     2ac:	9afffffc 	bls	2a4 <set_pll+0x24>
     2b0:	e3a00000 	mov	r0, #0
     2b4:	e58c3000 	str	r3, [ip]
     2b8:	eb00096a 	bl	2868 <mem_clk_init>
     2bc:	e3025f90 	movw	r5, #12176	; 0x2f90
     2c0:	e3405000 	movt	r5, #0
     2c4:	e1a04000 	mov	r4, r0
     2c8:	eb000052 	bl	418 <mem_status_init_nommu>
     2cc:	e3a00020 	mov	r0, #32
     2d0:	eb000076 	bl	4b0 <save_mem_status_nommu>
     2d4:	e3a01000 	mov	r1, #0
     2d8:	e3a03801 	mov	r3, #65536	; 0x10000
     2dc:	e1a00005 	mov	r0, r5
     2e0:	e5843050 	str	r3, [r4, #80]	; 0x50
     2e4:	e3441308 	movt	r1, #17160	; 0x4308
     2e8:	e3a020d0 	mov	r2, #208	; 0xd0
     2ec:	ebffff7b 	bl	e0 <mem_memcpy>
     2f0:	e3a00021 	mov	r0, #33	; 0x21
     2f4:	eb00006d 	bl	4b0 <save_mem_status_nommu>
     2f8:	e5953014 	ldr	r3, [r5, #20]
     2fc:	e3130004 	tst	r3, #4
     300:	1a00002e 	bne	3c0 <set_pll+0x140>
     304:	e59f00dc 	ldr	r0, [pc, #220]	; 3e8 <set_pll+0x168>
     308:	eb0009e2 	bl	2a98 <mem_clk_set_misc>
     30c:	e3a00023 	mov	r0, #35	; 0x23
     310:	eb000066 	bl	4b0 <save_mem_status_nommu>
     314:	e3a03a01 	mov	r3, #4096	; 0x1000
     318:	e3483000 	movt	r3, #32768	; 0x8000
     31c:	e3a00024 	mov	r0, #36	; 0x24
     320:	e5843000 	str	r3, [r4]
     324:	eb000061 	bl	4b0 <save_mem_status_nommu>
     328:	e3a01000 	mov	r1, #0
     32c:	e3a00001 	mov	r0, #1
     330:	eb00008b 	bl	564 <init_perfcounters>
     334:	eb0000ab 	bl	5e8 <change_runtime_env>
     338:	e3a0000a 	mov	r0, #10
     33c:	eb0000da 	bl	6ac <delay_ms>
     340:	e5950014 	ldr	r0, [r5, #20]
     344:	e3100002 	tst	r0, #2
     348:	1a000016 	bne	3a8 <set_pll+0x128>
     34c:	e3a00026 	mov	r0, #38	; 0x26
     350:	eb000056 	bl	4b0 <save_mem_status_nommu>
     354:	e5943050 	ldr	r3, [r4, #80]	; 0x50
     358:	e3a00027 	mov	r0, #39	; 0x27
     35c:	e3c33803 	bic	r3, r3, #196608	; 0x30000
     360:	e3833802 	orr	r3, r3, #131072	; 0x20000
     364:	e5843050 	str	r3, [r4, #80]	; 0x50
     368:	eb000050 	bl	4b0 <save_mem_status_nommu>
     36c:	eb00009d 	bl	5e8 <change_runtime_env>
     370:	e3a00064 	mov	r0, #100	; 0x64
     374:	e8bd4070 	pop	{r4, r5, r6, lr}
     378:	ea0000a6 	b	618 <delay_us>
     37c:	e3a03000 	mov	r3, #0
     380:	ee083f33 	mcr	15, 0, r3, cr8, cr3, {1}
     384:	f57ff04f 	dsb	sy
     388:	e282271f 	add	r2, r2, #8126464	; 0x7c0000
     38c:	e3a030ff 	mov	r3, #255	; 0xff
     390:	e2822041 	add	r2, r2, #65	; 0x41
     394:	e1a02102 	lsl	r2, r2, #2
     398:	e5823000 	str	r3, [r2]
     39c:	f57ff04f 	dsb	sy
     3a0:	e320f004 	sev
     3a4:	eaffffe8 	b	34c <set_pll+0xcc>
     3a8:	e2000008 	and	r0, r0, #8
     3ac:	eb0004a2 	bl	163c <serial_init_nommu>
     3b0:	e3020d1c 	movw	r0, #11548	; 0x2d1c
     3b4:	e3400000 	movt	r0, #0
     3b8:	eb0004c7 	bl	16dc <serial_puts_nommu>
     3bc:	eaffffe2 	b	34c <set_pll+0xcc>
     3c0:	e3130008 	tst	r3, #8
     3c4:	e3a03000 	mov	r3, #0
     3c8:	13032033 	movwne	r2, #12339	; 0x3033
     3cc:	134031c2 	movtne	r3, #450	; 0x1c2
     3d0:	034031c2 	movteq	r3, #450	; 0x1c2
     3d4:	13402030 	movtne	r2, #48	; 0x30
     3d8:	03032333 	movweq	r2, #13107	; 0x3333
     3dc:	158328b4 	strne	r2, [r3, #2228]	; 0x8b4
     3e0:	05832800 	streq	r2, [r3, #2048]	; 0x800
     3e4:	eaffffc6 	b	304 <set_pll+0x84>
     3e8:	00002fec 	andeq	r2, r0, ip, ror #31

000003ec <busy_waiting>:
     3ec:	e24dd008 	sub	sp, sp, #8
     3f0:	e3a03001 	mov	r3, #1
     3f4:	e58d3004 	str	r3, [sp, #4]
     3f8:	e59d3004 	ldr	r3, [sp, #4]
     3fc:	e3530001 	cmp	r3, #1
     400:	0afffffc 	beq	3f8 <busy_waiting+0xc>
     404:	e28dd008 	add	sp, sp, #8
     408:	e12fff1e 	bx	lr

0000040c <save_mem_flag>:
     40c:	e12fff1e 	bx	lr

00000410 <clear_mem_flag>:
     410:	e12fff1e 	bx	lr

00000414 <mem_status_init>:
     414:	e12fff1e 	bx	lr

00000418 <mem_status_init_nommu>:
     418:	e12fff1e 	bx	lr

0000041c <mem_status_clear>:
     41c:	e3a03000 	mov	r3, #0
     420:	e1a02003 	mov	r2, r3
     424:	e34f31f0 	movt	r3, #61936	; 0xf1f0
     428:	e5832100 	str	r2, [r3, #256]	; 0x100
     42c:	e5832104 	str	r2, [r3, #260]	; 0x104
     430:	e5832108 	str	r2, [r3, #264]	; 0x108
     434:	e583210c 	str	r2, [r3, #268]	; 0x10c
     438:	e12fff1e 	bx	lr

0000043c <mem_status_exit>:
     43c:	e12fff1e 	bx	lr

00000440 <save_mem_status>:
     440:	e24dd008 	sub	sp, sp, #8
     444:	e3a03000 	mov	r3, #0
     448:	e34f31f0 	movt	r3, #61936	; 0xf1f0
     44c:	e58d0004 	str	r0, [sp, #4]
     450:	e59d2004 	ldr	r2, [sp, #4]
     454:	e5832104 	str	r2, [r3, #260]	; 0x104
     458:	f57ff04f 	dsb	sy
     45c:	f57ff06f 	isb	sy
     460:	e28dd008 	add	sp, sp, #8
     464:	e12fff1e 	bx	lr

00000468 <get_mem_status>:
     468:	e3a03000 	mov	r3, #0
     46c:	e34f31f0 	movt	r3, #61936	; 0xf1f0
     470:	e5930104 	ldr	r0, [r3, #260]	; 0x104
     474:	e12fff1e 	bx	lr

00000478 <show_mem_status>:
     478:	e92d4070 	push	{r4, r5, r6, lr}
     47c:	e3a04c01 	mov	r4, #256	; 0x100
     480:	e3a05e11 	mov	r5, #272	; 0x110
     484:	e34f41f0 	movt	r4, #61936	; 0xf1f0
     488:	e34f51f0 	movt	r5, #61936	; 0xf1f0
     48c:	e3020d30 	movw	r0, #11568	; 0x2d30
     490:	e5942000 	ldr	r2, [r4]
     494:	e1a01004 	mov	r1, r4
     498:	e3400000 	movt	r0, #0
     49c:	e2844004 	add	r4, r4, #4
     4a0:	eb0005f5 	bl	1c7c <printk>
     4a4:	e1540005 	cmp	r4, r5
     4a8:	1afffff7 	bne	48c <show_mem_status+0x14>
     4ac:	e8bd8070 	pop	{r4, r5, r6, pc}

000004b0 <save_mem_status_nommu>:
     4b0:	e24dd008 	sub	sp, sp, #8
     4b4:	e3a0361f 	mov	r3, #32505856	; 0x1f00000
     4b8:	e58d0004 	str	r0, [sp, #4]
     4bc:	e59d2004 	ldr	r2, [sp, #4]
     4c0:	e5832104 	str	r2, [r3, #260]	; 0x104
     4c4:	e28dd008 	add	sp, sp, #8
     4c8:	e12fff1e 	bx	lr

000004cc <save_cpux_mem_status_nommu>:
     4cc:	e24dd008 	sub	sp, sp, #8
     4d0:	e3a0361f 	mov	r3, #32505856	; 0x1f00000
     4d4:	e58d0004 	str	r0, [sp, #4]
     4d8:	e59d2004 	ldr	r2, [sp, #4]
     4dc:	e5832100 	str	r2, [r3, #256]	; 0x100
     4e0:	e28dd008 	add	sp, sp, #8
     4e4:	e12fff1e 	bx	lr

000004e8 <io_init>:
     4e8:	e3a03000 	mov	r3, #0
     4ec:	e3012111 	movw	r2, #4369	; 0x1111
     4f0:	e34f31c2 	movt	r3, #61890	; 0xf1c2
     4f4:	e3402011 	movt	r2, #17
     4f8:	e5832890 	str	r2, [r3, #2192]	; 0x890
     4fc:	e12fff1e 	bx	lr

00000500 <io_init_high>:
     500:	e3a03000 	mov	r3, #0
     504:	e34f31c2 	movt	r3, #61890	; 0xf1c2
     508:	e59328a0 	ldr	r2, [r3, #2208]	; 0x8a0
     50c:	e382203f 	orr	r2, r2, #63	; 0x3f
     510:	e58328a0 	str	r2, [r3, #2208]	; 0x8a0
     514:	e12fff1e 	bx	lr

00000518 <io_init_low>:
     518:	e3a03000 	mov	r3, #0
     51c:	e34f31c2 	movt	r3, #61890	; 0xf1c2
     520:	e59328a0 	ldr	r2, [r3, #2208]	; 0x8a0
     524:	e3c2203f 	bic	r2, r2, #63	; 0x3f
     528:	e58328a0 	str	r2, [r3, #2208]	; 0x8a0
     52c:	e12fff1e 	bx	lr

00000530 <io_high>:
     530:	e92d4070 	push	{r4, r5, r6, lr}
     534:	e3a05000 	mov	r5, #0
     538:	e34f51c2 	movt	r5, #61890	; 0xf1c2
     53c:	e3a04001 	mov	r4, #1
     540:	e1a06014 	lsl	r6, r4, r0
     544:	e59548a0 	ldr	r4, [r5, #2208]	; 0x8a0
     548:	e3020710 	movw	r0, #10000	; 0x2710
     54c:	e1c44006 	bic	r4, r4, r6
     550:	e58548a0 	str	r4, [r5, #2208]	; 0x8a0
     554:	eb00002f 	bl	618 <delay_us>
     558:	e1864004 	orr	r4, r6, r4
     55c:	e58548a0 	str	r4, [r5, #2208]	; 0x8a0
     560:	e8bd8070 	pop	{r4, r5, r6, pc}

00000564 <init_perfcounters>:
     564:	e3500000 	cmp	r0, #0
     568:	13a03007 	movne	r3, #7
     56c:	03a03001 	moveq	r3, #1
     570:	e3510000 	cmp	r1, #0
     574:	13833008 	orrne	r3, r3, #8
     578:	e3833010 	orr	r3, r3, #16
     57c:	ee093f1c 	mcr	15, 0, r3, cr9, cr12, {0}
     580:	e3a0313e 	mov	r3, #-2147483633	; 0x8000000f
     584:	ee093f3c 	mcr	15, 0, r3, cr9, cr12, {1}
     588:	ee093f7c 	mcr	15, 0, r3, cr9, cr12, {3}
     58c:	f57ff04f 	dsb	sy
     590:	f57ff06f 	isb	sy
     594:	e12fff1e 	bx	lr

00000598 <backup_perfcounter>:
     598:	ee192f1c 	mrc	15, 0, r2, cr9, cr12, {0}
     59c:	e3023db0 	movw	r3, #11696	; 0x2db0
     5a0:	e3403000 	movt	r3, #0
     5a4:	e5832000 	str	r2, [r3]
     5a8:	ee192f3c 	mrc	15, 0, r2, cr9, cr12, {1}
     5ac:	e5832004 	str	r2, [r3, #4]
     5b0:	e12fff1e 	bx	lr

000005b4 <restore_perfcounter>:
     5b4:	e3023db0 	movw	r3, #11696	; 0x2db0
     5b8:	e3403000 	movt	r3, #0
     5bc:	e5932000 	ldr	r2, [r3]
     5c0:	ee092f1c 	mcr	15, 0, r2, cr9, cr12, {0}
     5c4:	e5933004 	ldr	r3, [r3, #4]
     5c8:	ee093f3c 	mcr	15, 0, r3, cr9, cr12, {1}
     5cc:	e12fff1e 	bx	lr

000005d0 <get_cyclecount>:
     5d0:	ee190f1d 	mrc	15, 0, r0, cr9, cr13, {0}
     5d4:	e12fff1e 	bx	lr

000005d8 <reset_counter>:
     5d8:	ee193f1c 	mrc	15, 0, r3, cr9, cr12, {0}
     5dc:	e3833004 	orr	r3, r3, #4
     5e0:	ee093f1c 	mcr	15, 0, r3, cr9, cr12, {0}
     5e4:	e12fff1e 	bx	lr

000005e8 <change_runtime_env>:
     5e8:	e92d4010 	push	{r4, lr}
     5ec:	ee193f1d 	mrc	15, 0, r3, cr9, cr13, {0}
     5f0:	ee192f1d 	mrc	15, 0, r2, cr9, cr13, {0}
     5f4:	e3024db0 	movw	r4, #11696	; 0x2db0
     5f8:	e1530002 	cmp	r3, r2
     5fc:	82422001 	subhi	r2, r2, #1
     600:	e3404000 	movt	r4, #0
     604:	e0633002 	rsb	r3, r3, r2
     608:	e5843008 	str	r3, [r4, #8]
     60c:	eb00095f 	bl	2b90 <mem_clk_get_cpu_freq>
     610:	e584000c 	str	r0, [r4, #12]
     614:	e8bd8010 	pop	{r4, pc}

00000618 <delay_us>:
     618:	e92d4070 	push	{r4, r5, r6, lr}
     61c:	e3025db0 	movw	r5, #11696	; 0x2db0
     620:	e3405000 	movt	r5, #0
     624:	e595300c 	ldr	r3, [r5, #12]
     628:	e3530ffa 	cmp	r3, #1000	; 0x3e8
     62c:	8a000002 	bhi	63c <delay_us+0x24>
     630:	f57ff05f 	dmb	sy
     634:	f57ff06f 	isb	sy
     638:	e8bd8070 	pop	{r4, r5, r6, pc}
     63c:	e1a04000 	mov	r4, r0
     640:	e3a01ffa 	mov	r1, #1000	; 0x3e8
     644:	e1a00003 	mov	r0, r3
     648:	eb000783 	bl	245c <raw_lib_udiv>
     64c:	ee193f1d 	mrc	15, 0, r3, cr9, cr13, {0}
     650:	e0204490 	mla	r0, r0, r4, r4
     654:	e5952008 	ldr	r2, [r5, #8]
     658:	e0622003 	rsb	r2, r2, r3
     65c:	e0800002 	add	r0, r0, r2
     660:	ee192f3c 	mrc	15, 0, r2, cr9, cr12, {1}
     664:	e202213e 	and	r2, r2, #-2147483633	; 0x8000000f
     668:	e352013e 	cmp	r2, #-2147483633	; 0x8000000f
     66c:	0a000006 	beq	68c <delay_us+0x74>
     670:	e3a02017 	mov	r2, #23
     674:	ee092f1c 	mcr	15, 0, r2, cr9, cr12, {0}
     678:	e3a0213e 	mov	r2, #-2147483633	; 0x8000000f
     67c:	ee092f3c 	mcr	15, 0, r2, cr9, cr12, {1}
     680:	ee092f7c 	mcr	15, 0, r2, cr9, cr12, {3}
     684:	f57ff04f 	dsb	sy
     688:	f57ff06f 	isb	sy
     68c:	e0603003 	rsb	r3, r0, r3
     690:	e3530000 	cmp	r3, #0
     694:	aaffffe5 	bge	630 <delay_us+0x18>
     698:	ee193f1d 	mrc	15, 0, r3, cr9, cr13, {0}
     69c:	e0603003 	rsb	r3, r0, r3
     6a0:	e3530000 	cmp	r3, #0
     6a4:	bafffffb 	blt	698 <delay_us+0x80>
     6a8:	eaffffe0 	b	630 <delay_us+0x18>

000006ac <delay_ms>:
     6ac:	e350000a 	cmp	r0, #10
     6b0:	e92d4010 	push	{r4, lr}
     6b4:	e1a04000 	mov	r4, r0
     6b8:	9a000004 	bls	6d0 <delay_ms+0x24>
     6bc:	e244400a 	sub	r4, r4, #10
     6c0:	e3020710 	movw	r0, #10000	; 0x2710
     6c4:	ebffffd3 	bl	618 <delay_us>
     6c8:	e354000a 	cmp	r4, #10
     6cc:	8afffffa 	bhi	6bc <delay_ms+0x10>
     6d0:	e3a00ffa 	mov	r0, #1000	; 0x3e8
     6d4:	e0000490 	mul	r0, r0, r4
     6d8:	e8bd4010 	pop	{r4, lr}
     6dc:	eaffffcd 	b	618 <delay_us>

000006e0 <init_event_counter>:
     6e0:	e3500000 	cmp	r0, #0
     6e4:	13a03007 	movne	r3, #7
     6e8:	03a03001 	moveq	r3, #1
     6ec:	e3510000 	cmp	r1, #0
     6f0:	13833008 	orrne	r3, r3, #8
     6f4:	e3833010 	orr	r3, r3, #16
     6f8:	ee093f1c 	mcr	15, 0, r3, cr9, cr12, {0}
     6fc:	e3a0313e 	mov	r3, #-2147483633	; 0x8000000f
     700:	ee093f3c 	mcr	15, 0, r3, cr9, cr12, {1}
     704:	ee093f7c 	mcr	15, 0, r3, cr9, cr12, {3}
     708:	e12fff1e 	bx	lr

0000070c <set_event_counter>:
     70c:	e2403002 	sub	r3, r0, #2
     710:	e3530003 	cmp	r3, #3
     714:	93022c0c 	movwls	r2, #11276	; 0x2c0c
     718:	83a03000 	movhi	r3, #0
     71c:	93402000 	movtls	r2, #0
     720:	97923103 	ldrls	r3, [r2, r3, lsl #2]
     724:	ee093fbc 	mcr	15, 0, r3, cr9, cr12, {5}
     728:	ee090f3d 	mcr	15, 0, r0, cr9, cr13, {1}
     72c:	f57ff04f 	dsb	sy
     730:	f57ff06f 	isb	sy
     734:	e12fff1e 	bx	lr

00000738 <get_event_counter>:
     738:	e2400002 	sub	r0, r0, #2
     73c:	e3500003 	cmp	r0, #3
     740:	93023c0c 	movwls	r3, #11276	; 0x2c0c
     744:	83a03000 	movhi	r3, #0
     748:	93403000 	movtls	r3, #0
     74c:	97933100 	ldrls	r3, [r3, r0, lsl #2]
     750:	ee093fbc 	mcr	15, 0, r3, cr9, cr12, {5}
     754:	ee190f5d 	mrc	15, 0, r0, cr9, cr13, {2}
     758:	f57ff04f 	dsb	sy
     75c:	f57ff06f 	isb	sy
     760:	e12fff1e 	bx	lr
	...

00000780 <save_mmu_state>:
     780:	ee503f10 	mrc	15, 2, r3, cr0, cr0, {0}
     784:	e5803000 	str	r3, [r0]
     788:	ee113f50 	mrc	15, 0, r3, cr1, cr0, {2}
     78c:	e5803008 	str	r3, [r0, #8]
     790:	ee133f10 	mrc	15, 0, r3, cr3, cr0, {0}
     794:	e5803018 	str	r3, [r0, #24]
     798:	ee123f10 	mrc	15, 0, r3, cr2, cr0, {0}
     79c:	e580300c 	str	r3, [r0, #12]
     7a0:	ee123f30 	mrc	15, 0, r3, cr2, cr0, {1}
     7a4:	e5803010 	str	r3, [r0, #16]
     7a8:	ee123f50 	mrc	15, 0, r3, cr2, cr0, {2}
     7ac:	e5803014 	str	r3, [r0, #20]
     7b0:	ee113f10 	mrc	15, 0, r3, cr1, cr0, {0}
     7b4:	e5803004 	str	r3, [r0, #4]
     7b8:	e12fff1e 	bx	lr

000007bc <restore_secure_mmu_state>:
     7bc:	e5903000 	ldr	r3, [r0]
     7c0:	ee403f10 	mcr	15, 2, r3, cr0, cr0, {0}
     7c4:	e5903008 	ldr	r3, [r0, #8]
     7c8:	ee013f50 	mcr	15, 0, r3, cr1, cr0, {2}
     7cc:	e5903018 	ldr	r3, [r0, #24]
     7d0:	ee033f10 	mcr	15, 0, r3, cr3, cr0, {0}
     7d4:	e590300c 	ldr	r3, [r0, #12]
     7d8:	ee023f10 	mcr	15, 0, r3, cr2, cr0, {0}
     7dc:	e5903010 	ldr	r3, [r0, #16]
     7e0:	ee023f30 	mcr	15, 0, r3, cr2, cr0, {1}
     7e4:	e5903014 	ldr	r3, [r0, #20]
     7e8:	ee023f50 	mcr	15, 0, r3, cr2, cr0, {2}
     7ec:	e5903004 	ldr	r3, [r0, #4]
     7f0:	ee013f10 	mcr	15, 0, r3, cr1, cr0, {0}
     7f4:	ee103f10 	mrc	15, 0, r3, cr0, cr0, {0}
     7f8:	e1a03003 	mov	r3, r3
     7fc:	e1a03003 	mov	r3, r3
     800:	f57ff06f 	isb	sy
     804:	e12fff1e 	bx	lr

00000808 <restore_mmu_state>:
     808:	e5903000 	ldr	r3, [r0]
     80c:	ee403f10 	mcr	15, 2, r3, cr0, cr0, {0}
     810:	e5903008 	ldr	r3, [r0, #8]
     814:	ee013f50 	mcr	15, 0, r3, cr1, cr0, {2}
     818:	e5903018 	ldr	r3, [r0, #24]
     81c:	ee033f10 	mcr	15, 0, r3, cr3, cr0, {0}
     820:	e5903010 	ldr	r3, [r0, #16]
     824:	ee023f10 	mcr	15, 0, r3, cr2, cr0, {0}
     828:	ee023f30 	mcr	15, 0, r3, cr2, cr0, {1}
     82c:	e5903014 	ldr	r3, [r0, #20]
     830:	ee023f50 	mcr	15, 0, r3, cr2, cr0, {2}
     834:	ea000001 	b	840 <__turn_mmu_on>
     838:	e320f000 	nop	{0}
     83c:	e320f000 	nop	{0}

00000840 <__turn_mmu_on>:
     840:	e1a00000 	nop			; (mov r0, r0)
     844:	e5903004 	ldr	r3, [r0, #4]
     848:	ee013f10 	mcr	15, 0, r3, cr1, cr0, {0}
     84c:	ee103f10 	mrc	15, 0, r3, cr0, cr0, {0}
     850:	e1a03003 	mov	r3, r3
     854:	e1a03003 	mov	r3, r3
     858:	f57ff06f 	isb	sy
     85c:	e12fff1e 	bx	lr

00000860 <save_sp>:
     860:	e1a0000d 	mov	r0, sp
     864:	e59fd4bc 	ldr	sp, [pc, #1212]	; d28 <jump_to_resume0_nommu+0x28>
     868:	e1a0f00e 	mov	pc, lr

0000086c <save_sp_nommu>:
     86c:	e1a0000d 	mov	r0, sp
     870:	e59fd4b4 	ldr	sp, [pc, #1204]	; d2c <jump_to_resume0_nommu+0x2c>
     874:	e1a0f00e 	mov	pc, lr

00000878 <restore_sp>:
     878:	e1a0d000 	mov	sp, r0
     87c:	e1a0f00e 	mov	pc, lr

00000880 <get_sp>:
     880:	e1a0000d 	mov	r0, sp
     884:	e1a0f00e 	mov	pc, lr
     888:	e320f000 	nop	{0}
     88c:	e320f000 	nop	{0}

00000890 <get_cur_cluster_id>:
     890:	ee100fb0 	mrc	15, 0, r0, cr0, cr0, {5}
     894:	e7e30450 	ubfx	r0, r0, #8, #4
     898:	e1a0f00e 	mov	pc, lr
     89c:	e320f000 	nop	{0}

000008a0 <invalidate_dcache>:
     8a0:	f57ff05f 	dmb	sy
     8a4:	ee300f30 	mrc	15, 1, r0, cr0, cr0, {1}
     8a8:	e2103407 	ands	r3, r0, #117440512	; 0x7000000
     8ac:	e1a03ba3 	lsr	r3, r3, #23
     8b0:	0a00001a 	beq	920 <inv_finished>
     8b4:	e3a0a000 	mov	sl, #0

000008b8 <inv_loop1>:
     8b8:	e08a20aa 	add	r2, sl, sl, lsr #1
     8bc:	e1a01230 	lsr	r1, r0, r2
     8c0:	e2011007 	and	r1, r1, #7
     8c4:	e3510002 	cmp	r1, #2
     8c8:	ba000011 	blt	914 <inv_skip>
     8cc:	ee40af10 	mcr	15, 2, sl, cr0, cr0, {0}
     8d0:	f57ff06f 	isb	sy
     8d4:	ee301f10 	mrc	15, 1, r1, cr0, cr0, {0}
     8d8:	e2012007 	and	r2, r1, #7
     8dc:	e2822004 	add	r2, r2, #4
     8e0:	e59f4448 	ldr	r4, [pc, #1096]	; d30 <jump_to_resume0_nommu+0x30>
     8e4:	e01441a1 	ands	r4, r4, r1, lsr #3
     8e8:	e16f5f14 	clz	r5, r4
     8ec:	e59f7440 	ldr	r7, [pc, #1088]	; d34 <jump_to_resume0_nommu+0x34>
     8f0:	e01776a1 	ands	r7, r7, r1, lsr #13

000008f4 <inv_loop2>:
     8f4:	e1a09004 	mov	r9, r4

000008f8 <inv_loop3>:
     8f8:	e18ab519 	orr	fp, sl, r9, lsl r5
     8fc:	e18bb217 	orr	fp, fp, r7, lsl r2
     900:	ee07bf56 	mcr	15, 0, fp, cr7, cr6, {2}
     904:	e2599001 	subs	r9, r9, #1
     908:	aafffffa 	bge	8f8 <inv_loop3>
     90c:	e2577001 	subs	r7, r7, #1
     910:	aafffff7 	bge	8f4 <inv_loop2>

00000914 <inv_skip>:
     914:	e28aa002 	add	sl, sl, #2
     918:	e153000a 	cmp	r3, sl
     91c:	caffffe5 	bgt	8b8 <inv_loop1>

00000920 <inv_finished>:
     920:	e3a0a000 	mov	sl, #0
     924:	ee40af10 	mcr	15, 2, sl, cr0, cr0, {0}
     928:	f57ff04f 	dsb	sy
     92c:	f57ff06f 	isb	sy
     930:	e1a0f00e 	mov	pc, lr

00000934 <invalidate_icache>:
     934:	e3a00000 	mov	r0, #0
     938:	ee070f11 	mcr	15, 0, r0, cr7, cr1, {0}
     93c:	ee070f15 	mcr	15, 0, r0, cr7, cr5, {0}
     940:	f57ff04f 	dsb	sy
     944:	f57ff06f 	isb	sy
     948:	e1a0f00e 	mov	pc, lr

0000094c <flush_dcache>:
     94c:	e92d1fff 	push	{r0, r1, r2, r3, r4, r5, r6, r7, r8, r9, sl, fp, ip}
     950:	f57ff05f 	dmb	sy
     954:	ee300f30 	mrc	15, 1, r0, cr0, cr0, {1}
     958:	e2103407 	ands	r3, r0, #117440512	; 0x7000000
     95c:	e1a03ba3 	lsr	r3, r3, #23
     960:	0a00001a 	beq	9d0 <finished>
     964:	e3a0a000 	mov	sl, #0

00000968 <loop1>:
     968:	e08a20aa 	add	r2, sl, sl, lsr #1
     96c:	e1a01230 	lsr	r1, r0, r2
     970:	e2011007 	and	r1, r1, #7
     974:	e3510002 	cmp	r1, #2
     978:	ba000011 	blt	9c4 <skip>
     97c:	ee40af10 	mcr	15, 2, sl, cr0, cr0, {0}
     980:	f57ff06f 	isb	sy
     984:	ee301f10 	mrc	15, 1, r1, cr0, cr0, {0}
     988:	e2012007 	and	r2, r1, #7
     98c:	e2822004 	add	r2, r2, #4
     990:	e59f4398 	ldr	r4, [pc, #920]	; d30 <jump_to_resume0_nommu+0x30>
     994:	e01441a1 	ands	r4, r4, r1, lsr #3
     998:	e16f5f14 	clz	r5, r4
     99c:	e59f7390 	ldr	r7, [pc, #912]	; d34 <jump_to_resume0_nommu+0x34>
     9a0:	e01776a1 	ands	r7, r7, r1, lsr #13

000009a4 <loop2>:
     9a4:	e1a09004 	mov	r9, r4

000009a8 <loop3>:
     9a8:	e18ab519 	orr	fp, sl, r9, lsl r5
     9ac:	e18bb217 	orr	fp, fp, r7, lsl r2
     9b0:	ee07bf5e 	mcr	15, 0, fp, cr7, cr14, {2}
     9b4:	e2599001 	subs	r9, r9, #1
     9b8:	aafffffa 	bge	9a8 <loop3>
     9bc:	e2577001 	subs	r7, r7, #1
     9c0:	aafffff7 	bge	9a4 <loop2>

000009c4 <skip>:
     9c4:	e28aa002 	add	sl, sl, #2
     9c8:	e153000a 	cmp	r3, sl
     9cc:	caffffe5 	bgt	968 <loop1>

000009d0 <finished>:
     9d0:	e3a0a000 	mov	sl, #0
     9d4:	ee40af10 	mcr	15, 2, sl, cr0, cr0, {0}
     9d8:	f57ff04f 	dsb	sy
     9dc:	f57ff06f 	isb	sy
     9e0:	e8bd1fff 	pop	{r0, r1, r2, r3, r4, r5, r6, r7, r8, r9, sl, fp, ip}
     9e4:	e1a0f00e 	mov	pc, lr

000009e8 <flush_icache>:
     9e8:	e92d000f 	push	{r0, r1, r2, r3}
     9ec:	e3a00000 	mov	r0, #0
     9f0:	ee070f15 	mcr	15, 0, r0, cr7, cr5, {0}
     9f4:	ee070f11 	mcr	15, 0, r0, cr7, cr1, {0}
     9f8:	ee070fd1 	mcr	15, 0, r0, cr7, cr1, {6}
     9fc:	f57ff06f 	isb	sy
     a00:	f57ff04f 	dsb	sy
     a04:	e8bd000f 	pop	{r0, r1, r2, r3}
     a08:	e1a0f00e 	mov	pc, lr

00000a0c <disable_cache>:
     a0c:	e92d000f 	push	{r0, r1, r2, r3}
     a10:	ee110f10 	mrc	15, 0, r0, cr1, cr0, {0}
     a14:	e3c00a01 	bic	r0, r0, #4096	; 0x1000
     a18:	e3c00004 	bic	r0, r0, #4
     a1c:	ee010f10 	mcr	15, 0, r0, cr1, cr0, {0}
     a20:	f57ff06f 	isb	sy
     a24:	e8bd000f 	pop	{r0, r1, r2, r3}
     a28:	e1a0f00e 	mov	pc, lr

00000a2c <disable_dcache>:
     a2c:	e92d000f 	push	{r0, r1, r2, r3}
     a30:	ee110f10 	mrc	15, 0, r0, cr1, cr0, {0}
     a34:	e3c00004 	bic	r0, r0, #4
     a38:	ee010f10 	mcr	15, 0, r0, cr1, cr0, {0}
     a3c:	f57ff06f 	isb	sy
     a40:	e8bd000f 	pop	{r0, r1, r2, r3}
     a44:	e1a0f00e 	mov	pc, lr

00000a48 <disable_icache>:
     a48:	e92d000f 	push	{r0, r1, r2, r3}
     a4c:	ee110f10 	mrc	15, 0, r0, cr1, cr0, {0}
     a50:	e3c00a01 	bic	r0, r0, #4096	; 0x1000
     a54:	ee010f10 	mcr	15, 0, r0, cr1, cr0, {0}
     a58:	f57ff06f 	isb	sy
     a5c:	e8bd000f 	pop	{r0, r1, r2, r3}
     a60:	e1a0f00e 	mov	pc, lr

00000a64 <disable_l2cache>:
     a64:	e92d000f 	push	{r0, r1, r2, r3}
     a68:	ee110f30 	mrc	15, 0, r0, cr1, cr0, {1}
     a6c:	e3c00002 	bic	r0, r0, #2
     a70:	ee010f30 	mcr	15, 0, r0, cr1, cr0, {1}
     a74:	f57ff06f 	isb	sy
     a78:	e8bd000f 	pop	{r0, r1, r2, r3}
     a7c:	e1a0f00e 	mov	pc, lr

00000a80 <enable_cache>:
     a80:	e92d000f 	push	{r0, r1, r2, r3}
     a84:	ee110f10 	mrc	15, 0, r0, cr1, cr0, {0}
     a88:	e3800a01 	orr	r0, r0, #4096	; 0x1000
     a8c:	e3800004 	orr	r0, r0, #4
     a90:	ee010f10 	mcr	15, 0, r0, cr1, cr0, {0}
     a94:	f57ff06f 	isb	sy
     a98:	e8bd000f 	pop	{r0, r1, r2, r3}
     a9c:	e1a0f00e 	mov	pc, lr

00000aa0 <enable_icache>:
     aa0:	e92d000f 	push	{r0, r1, r2, r3}
     aa4:	ee110f10 	mrc	15, 0, r0, cr1, cr0, {0}
     aa8:	e3800a01 	orr	r0, r0, #4096	; 0x1000
     aac:	ee010f10 	mcr	15, 0, r0, cr1, cr0, {0}
     ab0:	f57ff06f 	isb	sy
     ab4:	e8bd000f 	pop	{r0, r1, r2, r3}
     ab8:	e1a0f00e 	mov	pc, lr

00000abc <invalidate_branch_predictor>:
     abc:	e92d000f 	push	{r0, r1, r2, r3}
     ac0:	e3a00000 	mov	r0, #0
     ac4:	ee070fd5 	mcr	15, 0, r0, cr7, cr5, {6}
     ac8:	f57ff06f 	isb	sy
     acc:	e8bd000f 	pop	{r0, r1, r2, r3}
     ad0:	e1a0f00e 	mov	pc, lr

00000ad4 <disable_program_flow_prediction>:
     ad4:	e92d000f 	push	{r0, r1, r2, r3}
     ad8:	ee110f10 	mrc	15, 0, r0, cr1, cr0, {0}
     adc:	e3c00b02 	bic	r0, r0, #2048	; 0x800
     ae0:	ee010f10 	mcr	15, 0, r0, cr1, cr0, {0}
     ae4:	f57ff06f 	isb	sy
     ae8:	e8bd000f 	pop	{r0, r1, r2, r3}
     aec:	e1a0f00e 	mov	pc, lr

00000af0 <enable_program_flow_prediction>:
     af0:	e92d000f 	push	{r0, r1, r2, r3}
     af4:	ee110f10 	mrc	15, 0, r0, cr1, cr0, {0}
     af8:	e3800b02 	orr	r0, r0, #2048	; 0x800
     afc:	ee010f10 	mcr	15, 0, r0, cr1, cr0, {0}
     b00:	f57ff06f 	isb	sy
     b04:	e8bd000f 	pop	{r0, r1, r2, r3}
     b08:	e1a0f00e 	mov	pc, lr

00000b0c <mem_flush_tlb>:
     b0c:	e92d000f 	push	{r0, r1, r2, r3}
     b10:	e3a00000 	mov	r0, #0
     b14:	ee080f15 	mcr	15, 0, r0, cr8, cr5, {0}
     b18:	ee080f16 	mcr	15, 0, r0, cr8, cr6, {0}
     b1c:	ee080f13 	mcr	15, 0, r0, cr8, cr3, {0}
     b20:	f57ff04f 	dsb	sy
     b24:	f57ff06f 	isb	sy
     b28:	e8bd000f 	pop	{r0, r1, r2, r3}
     b2c:	e1a0f00e 	mov	pc, lr

00000b30 <mem_preload_tlb>:
     b30:	e92d000f 	push	{r0, r1, r2, r3}
     b34:	e3a0020f 	mov	r0, #-268435456	; 0xf0000000
     b38:	e5901000 	ldr	r1, [r0]
     b3c:	e59f01f4 	ldr	r0, [pc, #500]	; d38 <jump_to_resume0_nommu+0x38>
     b40:	e5901000 	ldr	r1, [r0]
     b44:	e59f01f0 	ldr	r0, [pc, #496]	; d3c <jump_to_resume0_nommu+0x3c>
     b48:	e5901000 	ldr	r1, [r0]
     b4c:	e59f01ec 	ldr	r0, [pc, #492]	; d40 <jump_to_resume0_nommu+0x40>
     b50:	e5901000 	ldr	r1, [r0]
     b54:	e59f01e8 	ldr	r0, [pc, #488]	; d44 <jump_to_resume0_nommu+0x44>
     b58:	e5901000 	ldr	r1, [r0]
     b5c:	e59f01e4 	ldr	r0, [pc, #484]	; d48 <jump_to_resume0_nommu+0x48>
     b60:	e5901000 	ldr	r1, [r0]
     b64:	e59f01e0 	ldr	r0, [pc, #480]	; d4c <jump_to_resume0_nommu+0x4c>
     b68:	e5901000 	ldr	r1, [r0]
     b6c:	e59f01dc 	ldr	r0, [pc, #476]	; d50 <jump_to_resume0_nommu+0x50>
     b70:	e5901000 	ldr	r1, [r0]
     b74:	e59f01d8 	ldr	r0, [pc, #472]	; d54 <jump_to_resume0_nommu+0x54>
     b78:	e5901000 	ldr	r1, [r0]
     b7c:	e59f01d4 	ldr	r0, [pc, #468]	; d58 <jump_to_resume0_nommu+0x58>
     b80:	e5901000 	ldr	r1, [r0]
     b84:	e59f01d0 	ldr	r0, [pc, #464]	; d5c <jump_to_resume0_nommu+0x5c>
     b88:	e5901000 	ldr	r1, [r0]
     b8c:	e59f01cc 	ldr	r0, [pc, #460]	; d60 <jump_to_resume0_nommu+0x60>
     b90:	e5901000 	ldr	r1, [r0]
     b94:	e59f01c8 	ldr	r0, [pc, #456]	; d64 <jump_to_resume0_nommu+0x64>
     b98:	e5901000 	ldr	r1, [r0]
     b9c:	e59f01c4 	ldr	r0, [pc, #452]	; d68 <jump_to_resume0_nommu+0x68>
     ba0:	e5901000 	ldr	r1, [r0]
     ba4:	e59f01c0 	ldr	r0, [pc, #448]	; d6c <jump_to_resume0_nommu+0x6c>
     ba8:	e5901000 	ldr	r1, [r0]
     bac:	e59f01bc 	ldr	r0, [pc, #444]	; d70 <jump_to_resume0_nommu+0x70>
     bb0:	e5901000 	ldr	r1, [r0]
     bb4:	e59f01b8 	ldr	r0, [pc, #440]	; d74 <jump_to_resume0_nommu+0x74>
     bb8:	e5901000 	ldr	r1, [r0]
     bbc:	e59f01b4 	ldr	r0, [pc, #436]	; d78 <jump_to_resume0_nommu+0x78>
     bc0:	e5901000 	ldr	r1, [r0]
     bc4:	e59f01b0 	ldr	r0, [pc, #432]	; d7c <jump_to_resume0_nommu+0x7c>
     bc8:	e5901000 	ldr	r1, [r0]
     bcc:	e59f01ac 	ldr	r0, [pc, #428]	; d80 <jump_to_resume0_nommu+0x80>
     bd0:	e5901000 	ldr	r1, [r0]
     bd4:	e59f01a8 	ldr	r0, [pc, #424]	; d84 <jump_to_resume0_nommu+0x84>
     bd8:	e5901000 	ldr	r1, [r0]
     bdc:	e59f01a4 	ldr	r0, [pc, #420]	; d88 <jump_to_resume0_nommu+0x88>
     be0:	e5901000 	ldr	r1, [r0]
     be4:	e59f01a0 	ldr	r0, [pc, #416]	; d8c <jump_to_resume0_nommu+0x8c>
     be8:	e5901000 	ldr	r1, [r0]
     bec:	e59f019c 	ldr	r0, [pc, #412]	; d90 <jump_to_resume0_nommu+0x90>
     bf0:	e5901000 	ldr	r1, [r0]
     bf4:	e59f0198 	ldr	r0, [pc, #408]	; d94 <jump_to_resume0_nommu+0x94>
     bf8:	e5901000 	ldr	r1, [r0]
     bfc:	e59f0194 	ldr	r0, [pc, #404]	; d98 <jump_to_resume0_nommu+0x98>
     c00:	e5901000 	ldr	r1, [r0]
     c04:	e59f0190 	ldr	r0, [pc, #400]	; d9c <jump_to_resume0_nommu+0x9c>
     c08:	e5901000 	ldr	r1, [r0]
     c0c:	e59f018c 	ldr	r0, [pc, #396]	; da0 <jump_to_resume0_nommu+0xa0>
     c10:	e5901000 	ldr	r1, [r0]
     c14:	e59f0188 	ldr	r0, [pc, #392]	; da4 <jump_to_resume0_nommu+0xa4>
     c18:	e5901000 	ldr	r1, [r0]
     c1c:	e59f0184 	ldr	r0, [pc, #388]	; da8 <jump_to_resume0_nommu+0xa8>
     c20:	e5901000 	ldr	r1, [r0]
     c24:	e59f0180 	ldr	r0, [pc, #384]	; dac <jump_to_resume0_nommu+0xac>
     c28:	e5901000 	ldr	r1, [r0]
     c2c:	f57ff04f 	dsb	sy
     c30:	f57ff06f 	isb	sy
     c34:	e8bd000f 	pop	{r0, r1, r2, r3}
     c38:	e1a0f00e 	mov	pc, lr

00000c3c <disable_mmu>:
     c3c:	ee111f10 	mrc	15, 0, r1, cr1, cr0, {0}
     c40:	e3c11a01 	bic	r1, r1, #4096	; 0x1000
     c44:	e3c11005 	bic	r1, r1, #5
     c48:	ea000004 	b	c60 <__turn_mmu_off>
     c4c:	e320f000 	nop	{0}
     c50:	e320f000 	nop	{0}
     c54:	e320f000 	nop	{0}
     c58:	e320f000 	nop	{0}
     c5c:	e320f000 	nop	{0}

00000c60 <__turn_mmu_off>:
     c60:	ee011f10 	mcr	15, 0, r1, cr1, cr0, {0}
     c64:	ee103f10 	mrc	15, 0, r3, cr0, cr0, {0}
     c68:	e1a03003 	mov	r3, r3
     c6c:	e1a03003 	mov	r3, r3
     c70:	e1a0f00e 	mov	pc, lr

00000c74 <enable_mmu>:
     c74:	ee111f10 	mrc	15, 0, r1, cr1, cr0, {0}
     c78:	e3811a01 	orr	r1, r1, #4096	; 0x1000
     c7c:	e3811005 	orr	r1, r1, #5
     c80:	ea000006 	b	ca0 <__turn_mmu_on>
     c84:	e320f000 	nop	{0}
     c88:	e320f000 	nop	{0}
     c8c:	e320f000 	nop	{0}
     c90:	e320f000 	nop	{0}
     c94:	e320f000 	nop	{0}
     c98:	e320f000 	nop	{0}
     c9c:	e320f000 	nop	{0}

00000ca0 <__turn_mmu_on>:
     ca0:	ee011f10 	mcr	15, 0, r1, cr1, cr0, {0}
     ca4:	ee103f10 	mrc	15, 0, r3, cr0, cr0, {0}
     ca8:	e1a03003 	mov	r3, r3
     cac:	e1a03003 	mov	r3, r3
     cb0:	e1a0f00e 	mov	pc, lr

00000cb4 <jump_to_suspend>:
     cb4:	ee020f10 	mcr	15, 0, r0, cr2, cr0, {0}
     cb8:	f57ff04f 	dsb	sy
     cbc:	f57ff06f 	isb	sy
     cc0:	e1a0f001 	mov	pc, r1
     cc4:	e320f000 	nop	{0}
     cc8:	e320f000 	nop	{0}
     ccc:	e320f000 	nop	{0}

00000cd0 <jump_to_resume>:
     cd0:	e1a0c000 	mov	ip, r0
     cd4:	e1a08001 	mov	r8, r1
     cd8:	ebfffef0 	bl	8a0 <invalidate_dcache>
     cdc:	e1a01008 	mov	r1, r8
     ce0:	e1a0e00c 	mov	lr, ip
     ce4:	e8913fff 	ldm	r1, {r0, r1, r2, r3, r4, r5, r6, r7, r8, r9, sl, fp, ip, sp}
     ce8:	e1a0f00e 	mov	pc, lr
     cec:	e320f000 	nop	{0}

00000cf0 <jump_to_resume0>:
     cf0:	e1a0e000 	mov	lr, r0
     cf4:	e1a0f00e 	mov	pc, lr
     cf8:	e320f000 	nop	{0}
     cfc:	e320f000 	nop	{0}

00000d00 <jump_to_resume0_nommu>:
     d00:	ee111f10 	mrc	15, 0, r1, cr1, cr0, {0}
     d04:	e3c11a01 	bic	r1, r1, #4096	; 0x1000
     d08:	e3c11007 	bic	r1, r1, #7
     d0c:	ee011f10 	mcr	15, 0, r1, cr1, cr0, {0}
     d10:	ee103f10 	mrc	15, 0, r3, cr0, cr0, {0}
     d14:	e1a03003 	mov	r3, r3
     d18:	e1a03003 	mov	r3, r3
     d1c:	e1a0e000 	mov	lr, r0
     d20:	f57ff06f 	isb	sy
     d24:	e1a0f00e 	mov	pc, lr
     d28:	f0003ffc 			; <UNDEFINED> instruction: 0xf0003ffc
     d2c:	00003ffc 	strdeq	r3, [r0], -ip
     d30:	000003ff 	strdeq	r0, [r0], -pc	; <UNPREDICTABLE>
     d34:	00007fff 	strdeq	r7, [r0], -pc	; <UNPREDICTABLE>
     d38:	f0001000 			; <UNDEFINED> instruction: 0xf0001000
     d3c:	f0002000 			; <UNDEFINED> instruction: 0xf0002000
     d40:	f0003000 			; <UNDEFINED> instruction: 0xf0003000
     d44:	f0040000 			; <UNDEFINED> instruction: 0xf0040000
     d48:	f0041000 			; <UNDEFINED> instruction: 0xf0041000
     d4c:	f0042000 			; <UNDEFINED> instruction: 0xf0042000
     d50:	f0043000 			; <UNDEFINED> instruction: 0xf0043000
     d54:	f0044000 			; <UNDEFINED> instruction: 0xf0044000
     d58:	f0045000 			; <UNDEFINED> instruction: 0xf0045000
     d5c:	f0046000 			; <UNDEFINED> instruction: 0xf0046000
     d60:	f0047000 			; <UNDEFINED> instruction: 0xf0047000
     d64:	f0048000 			; <UNDEFINED> instruction: 0xf0048000
     d68:	f0049000 			; <UNDEFINED> instruction: 0xf0049000
     d6c:	f004a000 			; <UNDEFINED> instruction: 0xf004a000
     d70:	f004b000 			; <UNDEFINED> instruction: 0xf004b000
     d74:	f004c000 			; <UNDEFINED> instruction: 0xf004c000
     d78:	f004d000 			; <UNDEFINED> instruction: 0xf004d000
     d7c:	f004e000 			; <UNDEFINED> instruction: 0xf004e000
     d80:	f004f000 			; <UNDEFINED> instruction: 0xf004f000
     d84:	f0050000 			; <UNDEFINED> instruction: 0xf0050000
     d88:	f0051000 			; <UNDEFINED> instruction: 0xf0051000
     d8c:	f0052000 			; <UNDEFINED> instruction: 0xf0052000
     d90:	f0053000 			; <UNDEFINED> instruction: 0xf0053000
     d94:	f1c17000 			; <UNDEFINED> instruction: 0xf1c17000
     d98:	f1c18000 			; <UNDEFINED> instruction: 0xf1c18000
     d9c:	f1c20800 			; <UNDEFINED> instruction: 0xf1c20800
     da0:	f1f01400 			; <UNDEFINED> instruction: 0xf1f01400
     da4:	f1c28000 			; <UNDEFINED> instruction: 0xf1c28000
     da8:	f1f00000 			; <UNDEFINED> instruction: 0xf1f00000
     dac:	f1c20000 			; <UNDEFINED> instruction: 0xf1c20000

00000db0 <__save_processor_state>:
     db0:	ee503f10 	mrc	15, 2, r3, cr0, cr0, {0}
     db4:	e7e71453 	ubfx	r1, r3, #8, #8
     db8:	e7e72853 	ubfx	r2, r3, #16, #8
     dbc:	e5c03000 	strb	r3, [r0]
     dc0:	e1a03c23 	lsr	r3, r3, #24
     dc4:	e5c01001 	strb	r1, [r0, #1]
     dc8:	e5c02002 	strb	r2, [r0, #2]
     dcc:	e5c03003 	strb	r3, [r0, #3]
     dd0:	ee113f10 	mrc	15, 0, r3, cr1, cr0, {0}
     dd4:	e7e71453 	ubfx	r1, r3, #8, #8
     dd8:	e7e72853 	ubfx	r2, r3, #16, #8
     ddc:	e5c03004 	strb	r3, [r0, #4]
     de0:	e1a03c23 	lsr	r3, r3, #24
     de4:	e5c01005 	strb	r1, [r0, #5]
     de8:	e5c02006 	strb	r2, [r0, #6]
     dec:	e5c03007 	strb	r3, [r0, #7]
     df0:	ee113f50 	mrc	15, 0, r3, cr1, cr0, {2}
     df4:	e7e71453 	ubfx	r1, r3, #8, #8
     df8:	e7e72853 	ubfx	r2, r3, #16, #8
     dfc:	e5c0300c 	strb	r3, [r0, #12]
     e00:	e1a03c23 	lsr	r3, r3, #24
     e04:	e5c0100d 	strb	r1, [r0, #13]
     e08:	e5c0200e 	strb	r2, [r0, #14]
     e0c:	e5c0300f 	strb	r3, [r0, #15]
     e10:	ee123f10 	mrc	15, 0, r3, cr2, cr0, {0}
     e14:	e7e71453 	ubfx	r1, r3, #8, #8
     e18:	e7e72853 	ubfx	r2, r3, #16, #8
     e1c:	e5c0301c 	strb	r3, [r0, #28]
     e20:	e1a03c23 	lsr	r3, r3, #24
     e24:	e5c0101d 	strb	r1, [r0, #29]
     e28:	e5c0201e 	strb	r2, [r0, #30]
     e2c:	e5c0301f 	strb	r3, [r0, #31]
     e30:	ee123f30 	mrc	15, 0, r3, cr2, cr0, {1}
     e34:	e7e71453 	ubfx	r1, r3, #8, #8
     e38:	e7e72853 	ubfx	r2, r3, #16, #8
     e3c:	e5c03020 	strb	r3, [r0, #32]
     e40:	e1a03c23 	lsr	r3, r3, #24
     e44:	e5c01021 	strb	r1, [r0, #33]	; 0x21
     e48:	e5c02022 	strb	r2, [r0, #34]	; 0x22
     e4c:	e5c03023 	strb	r3, [r0, #35]	; 0x23
     e50:	ee123f50 	mrc	15, 0, r3, cr2, cr0, {2}
     e54:	e7e71453 	ubfx	r1, r3, #8, #8
     e58:	e7e72853 	ubfx	r2, r3, #16, #8
     e5c:	e5c03024 	strb	r3, [r0, #36]	; 0x24
     e60:	e1a03c23 	lsr	r3, r3, #24
     e64:	e5c01025 	strb	r1, [r0, #37]	; 0x25
     e68:	e5c02026 	strb	r2, [r0, #38]	; 0x26
     e6c:	e5c03027 	strb	r3, [r0, #39]	; 0x27
     e70:	ee133f10 	mrc	15, 0, r3, cr3, cr0, {0}
     e74:	e7e71453 	ubfx	r1, r3, #8, #8
     e78:	e7e72853 	ubfx	r2, r3, #16, #8
     e7c:	e5c03028 	strb	r3, [r0, #40]	; 0x28
     e80:	e1a03c23 	lsr	r3, r3, #24
     e84:	e5c01029 	strb	r1, [r0, #41]	; 0x29
     e88:	e5c0202a 	strb	r2, [r0, #42]	; 0x2a
     e8c:	e5c0302b 	strb	r3, [r0, #43]	; 0x2b
     e90:	ee153f10 	mrc	15, 0, r3, cr5, cr0, {0}
     e94:	e7e71453 	ubfx	r1, r3, #8, #8
     e98:	e7e72853 	ubfx	r2, r3, #16, #8
     e9c:	e5c0302c 	strb	r3, [r0, #44]	; 0x2c
     ea0:	e1a03c23 	lsr	r3, r3, #24
     ea4:	e5c0102d 	strb	r1, [r0, #45]	; 0x2d
     ea8:	e5c0202e 	strb	r2, [r0, #46]	; 0x2e
     eac:	e5c0302f 	strb	r3, [r0, #47]	; 0x2f
     eb0:	ee153f30 	mrc	15, 0, r3, cr5, cr0, {1}
     eb4:	e7e71453 	ubfx	r1, r3, #8, #8
     eb8:	e7e72853 	ubfx	r2, r3, #16, #8
     ebc:	e5c03030 	strb	r3, [r0, #48]	; 0x30
     ec0:	e1a03c23 	lsr	r3, r3, #24
     ec4:	e5c01031 	strb	r1, [r0, #49]	; 0x31
     ec8:	e5c02032 	strb	r2, [r0, #50]	; 0x32
     ecc:	e5c03033 	strb	r3, [r0, #51]	; 0x33
     ed0:	ee153f11 	mrc	15, 0, r3, cr5, cr1, {0}
     ed4:	e7e71453 	ubfx	r1, r3, #8, #8
     ed8:	e7e72853 	ubfx	r2, r3, #16, #8
     edc:	e5c03034 	strb	r3, [r0, #52]	; 0x34
     ee0:	e1a03c23 	lsr	r3, r3, #24
     ee4:	e5c01035 	strb	r1, [r0, #53]	; 0x35
     ee8:	e5c02036 	strb	r2, [r0, #54]	; 0x36
     eec:	e5c03037 	strb	r3, [r0, #55]	; 0x37
     ef0:	ee153f31 	mrc	15, 0, r3, cr5, cr1, {1}
     ef4:	e7e71453 	ubfx	r1, r3, #8, #8
     ef8:	e7e72853 	ubfx	r2, r3, #16, #8
     efc:	e5c03038 	strb	r3, [r0, #56]	; 0x38
     f00:	e1a03c23 	lsr	r3, r3, #24
     f04:	e5c01039 	strb	r1, [r0, #57]	; 0x39
     f08:	e5c0203a 	strb	r2, [r0, #58]	; 0x3a
     f0c:	e5c0303b 	strb	r3, [r0, #59]	; 0x3b
     f10:	ee163f10 	mrc	15, 0, r3, cr6, cr0, {0}
     f14:	e7e71453 	ubfx	r1, r3, #8, #8
     f18:	e7e72853 	ubfx	r2, r3, #16, #8
     f1c:	e5c0303c 	strb	r3, [r0, #60]	; 0x3c
     f20:	e1a03c23 	lsr	r3, r3, #24
     f24:	e5c0103d 	strb	r1, [r0, #61]	; 0x3d
     f28:	e5c0203e 	strb	r2, [r0, #62]	; 0x3e
     f2c:	e5c0303f 	strb	r3, [r0, #63]	; 0x3f
     f30:	ee163f50 	mrc	15, 0, r3, cr6, cr0, {2}
     f34:	e7e71453 	ubfx	r1, r3, #8, #8
     f38:	e7e72853 	ubfx	r2, r3, #16, #8
     f3c:	e5c03040 	strb	r3, [r0, #64]	; 0x40
     f40:	e1a03c23 	lsr	r3, r3, #24
     f44:	e5c01041 	strb	r1, [r0, #65]	; 0x41
     f48:	e5c02042 	strb	r2, [r0, #66]	; 0x42
     f4c:	e5c03043 	strb	r3, [r0, #67]	; 0x43
     f50:	ee173f14 	mrc	15, 0, r3, cr7, cr4, {0}
     f54:	e7e71453 	ubfx	r1, r3, #8, #8
     f58:	e7e72853 	ubfx	r2, r3, #16, #8
     f5c:	e5c03044 	strb	r3, [r0, #68]	; 0x44
     f60:	e1a03c23 	lsr	r3, r3, #24
     f64:	e5c01045 	strb	r1, [r0, #69]	; 0x45
     f68:	e5c02046 	strb	r2, [r0, #70]	; 0x46
     f6c:	e5c03047 	strb	r3, [r0, #71]	; 0x47
     f70:	ee193f1c 	mrc	15, 0, r3, cr9, cr12, {0}
     f74:	e7e71453 	ubfx	r1, r3, #8, #8
     f78:	e7e72853 	ubfx	r2, r3, #16, #8
     f7c:	e5c03048 	strb	r3, [r0, #72]	; 0x48
     f80:	e1a03c23 	lsr	r3, r3, #24
     f84:	e5c01049 	strb	r1, [r0, #73]	; 0x49
     f88:	e5c0204a 	strb	r2, [r0, #74]	; 0x4a
     f8c:	e5c0304b 	strb	r3, [r0, #75]	; 0x4b
     f90:	ee193f3c 	mrc	15, 0, r3, cr9, cr12, {1}
     f94:	e7e71453 	ubfx	r1, r3, #8, #8
     f98:	e7e72853 	ubfx	r2, r3, #16, #8
     f9c:	e5c0304c 	strb	r3, [r0, #76]	; 0x4c
     fa0:	e1a03c23 	lsr	r3, r3, #24
     fa4:	e5c0104d 	strb	r1, [r0, #77]	; 0x4d
     fa8:	e5c0204e 	strb	r2, [r0, #78]	; 0x4e
     fac:	e5c0304f 	strb	r3, [r0, #79]	; 0x4f
     fb0:	ee193f5c 	mrc	15, 0, r3, cr9, cr12, {2}
     fb4:	e7e71453 	ubfx	r1, r3, #8, #8
     fb8:	e7e72853 	ubfx	r2, r3, #16, #8
     fbc:	e5c03050 	strb	r3, [r0, #80]	; 0x50
     fc0:	e1a03c23 	lsr	r3, r3, #24
     fc4:	e5c01051 	strb	r1, [r0, #81]	; 0x51
     fc8:	e5c02052 	strb	r2, [r0, #82]	; 0x52
     fcc:	e5c03053 	strb	r3, [r0, #83]	; 0x53
     fd0:	ee193f7c 	mrc	15, 0, r3, cr9, cr12, {3}
     fd4:	e7e71453 	ubfx	r1, r3, #8, #8
     fd8:	e7e72853 	ubfx	r2, r3, #16, #8
     fdc:	e5c03054 	strb	r3, [r0, #84]	; 0x54
     fe0:	e1a03c23 	lsr	r3, r3, #24
     fe4:	e5c01055 	strb	r1, [r0, #85]	; 0x55
     fe8:	e5c02056 	strb	r2, [r0, #86]	; 0x56
     fec:	e5c03057 	strb	r3, [r0, #87]	; 0x57
     ff0:	ee193fbc 	mrc	15, 0, r3, cr9, cr12, {5}
     ff4:	e7e71453 	ubfx	r1, r3, #8, #8
     ff8:	e7e72853 	ubfx	r2, r3, #16, #8
     ffc:	e5c0305c 	strb	r3, [r0, #92]	; 0x5c
    1000:	e1a03c23 	lsr	r3, r3, #24
    1004:	e5c0105d 	strb	r1, [r0, #93]	; 0x5d
    1008:	e5c0205e 	strb	r2, [r0, #94]	; 0x5e
    100c:	e5c0305f 	strb	r3, [r0, #95]	; 0x5f
    1010:	ee193f1d 	mrc	15, 0, r3, cr9, cr13, {0}
    1014:	e7e71453 	ubfx	r1, r3, #8, #8
    1018:	e7e72853 	ubfx	r2, r3, #16, #8
    101c:	e5c03060 	strb	r3, [r0, #96]	; 0x60
    1020:	e1a03c23 	lsr	r3, r3, #24
    1024:	e5c01061 	strb	r1, [r0, #97]	; 0x61
    1028:	e5c02062 	strb	r2, [r0, #98]	; 0x62
    102c:	e5c03063 	strb	r3, [r0, #99]	; 0x63
    1030:	ee193f3d 	mrc	15, 0, r3, cr9, cr13, {1}
    1034:	e7e71453 	ubfx	r1, r3, #8, #8
    1038:	e7e72853 	ubfx	r2, r3, #16, #8
    103c:	e5c03064 	strb	r3, [r0, #100]	; 0x64
    1040:	e1a03c23 	lsr	r3, r3, #24
    1044:	e5c01065 	strb	r1, [r0, #101]	; 0x65
    1048:	e5c02066 	strb	r2, [r0, #102]	; 0x66
    104c:	e5c03067 	strb	r3, [r0, #103]	; 0x67
    1050:	ee193f5d 	mrc	15, 0, r3, cr9, cr13, {2}
    1054:	e7e71453 	ubfx	r1, r3, #8, #8
    1058:	e7e72853 	ubfx	r2, r3, #16, #8
    105c:	e5c03068 	strb	r3, [r0, #104]	; 0x68
    1060:	e1a03c23 	lsr	r3, r3, #24
    1064:	e5c01069 	strb	r1, [r0, #105]	; 0x69
    1068:	e5c0206a 	strb	r2, [r0, #106]	; 0x6a
    106c:	e5c0306b 	strb	r3, [r0, #107]	; 0x6b
    1070:	ee193f1e 	mrc	15, 0, r3, cr9, cr14, {0}
    1074:	e7e71453 	ubfx	r1, r3, #8, #8
    1078:	e7e72853 	ubfx	r2, r3, #16, #8
    107c:	e5c0306c 	strb	r3, [r0, #108]	; 0x6c
    1080:	e1a03c23 	lsr	r3, r3, #24
    1084:	e5c0106d 	strb	r1, [r0, #109]	; 0x6d
    1088:	e5c0206e 	strb	r2, [r0, #110]	; 0x6e
    108c:	e5c0306f 	strb	r3, [r0, #111]	; 0x6f
    1090:	ee193f3e 	mrc	15, 0, r3, cr9, cr14, {1}
    1094:	e7e71453 	ubfx	r1, r3, #8, #8
    1098:	e7e72853 	ubfx	r2, r3, #16, #8
    109c:	e5c03070 	strb	r3, [r0, #112]	; 0x70
    10a0:	e1a03c23 	lsr	r3, r3, #24
    10a4:	e5c01071 	strb	r1, [r0, #113]	; 0x71
    10a8:	e5c02072 	strb	r2, [r0, #114]	; 0x72
    10ac:	e5c03073 	strb	r3, [r0, #115]	; 0x73
    10b0:	ee193f5e 	mrc	15, 0, r3, cr9, cr14, {2}
    10b4:	e7e71453 	ubfx	r1, r3, #8, #8
    10b8:	e7e72853 	ubfx	r2, r3, #16, #8
    10bc:	e5c03074 	strb	r3, [r0, #116]	; 0x74
    10c0:	e1a03c23 	lsr	r3, r3, #24
    10c4:	e5c01075 	strb	r1, [r0, #117]	; 0x75
    10c8:	e5c02076 	strb	r2, [r0, #118]	; 0x76
    10cc:	e5c03077 	strb	r3, [r0, #119]	; 0x77
    10d0:	ee1a3f12 	mrc	15, 0, r3, cr10, cr2, {0}
    10d4:	e7e71453 	ubfx	r1, r3, #8, #8
    10d8:	e7e72853 	ubfx	r2, r3, #16, #8
    10dc:	e5c03078 	strb	r3, [r0, #120]	; 0x78
    10e0:	e1a03c23 	lsr	r3, r3, #24
    10e4:	e5c01079 	strb	r1, [r0, #121]	; 0x79
    10e8:	e5c0207a 	strb	r2, [r0, #122]	; 0x7a
    10ec:	e5c0307b 	strb	r3, [r0, #123]	; 0x7b
    10f0:	ee1a3f32 	mrc	15, 0, r3, cr10, cr2, {1}
    10f4:	e7e71453 	ubfx	r1, r3, #8, #8
    10f8:	e7e72853 	ubfx	r2, r3, #16, #8
    10fc:	e5c0307c 	strb	r3, [r0, #124]	; 0x7c
    1100:	e1a03c23 	lsr	r3, r3, #24
    1104:	e5c0107d 	strb	r1, [r0, #125]	; 0x7d
    1108:	e5c0207e 	strb	r2, [r0, #126]	; 0x7e
    110c:	e5c0307f 	strb	r3, [r0, #127]	; 0x7f
    1110:	ee1c3f10 	mrc	15, 0, r3, cr12, cr0, {0}
    1114:	e7e71453 	ubfx	r1, r3, #8, #8
    1118:	e7e72853 	ubfx	r2, r3, #16, #8
    111c:	e5c03080 	strb	r3, [r0, #128]	; 0x80
    1120:	e1a03c23 	lsr	r3, r3, #24
    1124:	e5c01081 	strb	r1, [r0, #129]	; 0x81
    1128:	e5c02082 	strb	r2, [r0, #130]	; 0x82
    112c:	e5c03083 	strb	r3, [r0, #131]	; 0x83
    1130:	ee1d3f30 	mrc	15, 0, r3, cr13, cr0, {1}
    1134:	e7e71453 	ubfx	r1, r3, #8, #8
    1138:	e7e72853 	ubfx	r2, r3, #16, #8
    113c:	e5c03090 	strb	r3, [r0, #144]	; 0x90
    1140:	e1a03c23 	lsr	r3, r3, #24
    1144:	e5c01091 	strb	r1, [r0, #145]	; 0x91
    1148:	e5c02092 	strb	r2, [r0, #146]	; 0x92
    114c:	e5c03093 	strb	r3, [r0, #147]	; 0x93
    1150:	ee1d3f50 	mrc	15, 0, r3, cr13, cr0, {2}
    1154:	e7e71453 	ubfx	r1, r3, #8, #8
    1158:	e7e72853 	ubfx	r2, r3, #16, #8
    115c:	e5c03094 	strb	r3, [r0, #148]	; 0x94
    1160:	e1a03c23 	lsr	r3, r3, #24
    1164:	e5c01095 	strb	r1, [r0, #149]	; 0x95
    1168:	e5c02096 	strb	r2, [r0, #150]	; 0x96
    116c:	e5c03097 	strb	r3, [r0, #151]	; 0x97
    1170:	ee1d3f70 	mrc	15, 0, r3, cr13, cr0, {3}
    1174:	e7e71453 	ubfx	r1, r3, #8, #8
    1178:	e7e72853 	ubfx	r2, r3, #16, #8
    117c:	e5c03098 	strb	r3, [r0, #152]	; 0x98
    1180:	e1a03c23 	lsr	r3, r3, #24
    1184:	e5c01099 	strb	r1, [r0, #153]	; 0x99
    1188:	e5c0209a 	strb	r2, [r0, #154]	; 0x9a
    118c:	e5c0309b 	strb	r3, [r0, #155]	; 0x9b
    1190:	ee1d3f90 	mrc	15, 0, r3, cr13, cr0, {4}
    1194:	e7e71453 	ubfx	r1, r3, #8, #8
    1198:	e7e72853 	ubfx	r2, r3, #16, #8
    119c:	e5c0309c 	strb	r3, [r0, #156]	; 0x9c
    11a0:	e1a03c23 	lsr	r3, r3, #24
    11a4:	e5c0109d 	strb	r1, [r0, #157]	; 0x9d
    11a8:	e5c0209e 	strb	r2, [r0, #158]	; 0x9e
    11ac:	e5c0309f 	strb	r3, [r0, #159]	; 0x9f
    11b0:	e12fff1e 	bx	lr

000011b4 <__restore_processor_state>:
    11b4:	e5d0c001 	ldrb	ip, [r0, #1]
    11b8:	e5d02000 	ldrb	r2, [r0]
    11bc:	e5d03002 	ldrb	r3, [r0, #2]
    11c0:	e5d01003 	ldrb	r1, [r0, #3]
    11c4:	e182240c 	orr	r2, r2, ip, lsl #8
    11c8:	e1823803 	orr	r3, r2, r3, lsl #16
    11cc:	e1833c01 	orr	r3, r3, r1, lsl #24
    11d0:	ee403f10 	mcr	15, 2, r3, cr0, cr0, {0}
    11d4:	e5d0c00d 	ldrb	ip, [r0, #13]
    11d8:	e5d0200c 	ldrb	r2, [r0, #12]
    11dc:	e5d0300e 	ldrb	r3, [r0, #14]
    11e0:	e5d0100f 	ldrb	r1, [r0, #15]
    11e4:	e182240c 	orr	r2, r2, ip, lsl #8
    11e8:	e1823803 	orr	r3, r2, r3, lsl #16
    11ec:	e1833c01 	orr	r3, r3, r1, lsl #24
    11f0:	ee013f50 	mcr	15, 0, r3, cr1, cr0, {2}
    11f4:	e5d0c01d 	ldrb	ip, [r0, #29]
    11f8:	e5d0201c 	ldrb	r2, [r0, #28]
    11fc:	e5d0301e 	ldrb	r3, [r0, #30]
    1200:	e5d0101f 	ldrb	r1, [r0, #31]
    1204:	e182240c 	orr	r2, r2, ip, lsl #8
    1208:	e1823803 	orr	r3, r2, r3, lsl #16
    120c:	e1833c01 	orr	r3, r3, r1, lsl #24
    1210:	ee023f10 	mcr	15, 0, r3, cr2, cr0, {0}
    1214:	f57ff04f 	dsb	sy
    1218:	f57ff06f 	isb	sy
    121c:	e5d0c021 	ldrb	ip, [r0, #33]	; 0x21
    1220:	e5d02020 	ldrb	r2, [r0, #32]
    1224:	e5d03022 	ldrb	r3, [r0, #34]	; 0x22
    1228:	e5d01023 	ldrb	r1, [r0, #35]	; 0x23
    122c:	e182240c 	orr	r2, r2, ip, lsl #8
    1230:	e1823803 	orr	r3, r2, r3, lsl #16
    1234:	e1833c01 	orr	r3, r3, r1, lsl #24
    1238:	ee023f30 	mcr	15, 0, r3, cr2, cr0, {1}
    123c:	f57ff04f 	dsb	sy
    1240:	f57ff06f 	isb	sy
    1244:	e5d0c025 	ldrb	ip, [r0, #37]	; 0x25
    1248:	e5d02024 	ldrb	r2, [r0, #36]	; 0x24
    124c:	e5d03026 	ldrb	r3, [r0, #38]	; 0x26
    1250:	e5d01027 	ldrb	r1, [r0, #39]	; 0x27
    1254:	e182240c 	orr	r2, r2, ip, lsl #8
    1258:	e1823803 	orr	r3, r2, r3, lsl #16
    125c:	e1833c01 	orr	r3, r3, r1, lsl #24
    1260:	ee023f50 	mcr	15, 0, r3, cr2, cr0, {2}
    1264:	f57ff04f 	dsb	sy
    1268:	f57ff06f 	isb	sy
    126c:	e5d0c029 	ldrb	ip, [r0, #41]	; 0x29
    1270:	e5d02028 	ldrb	r2, [r0, #40]	; 0x28
    1274:	e5d0302a 	ldrb	r3, [r0, #42]	; 0x2a
    1278:	e5d0102b 	ldrb	r1, [r0, #43]	; 0x2b
    127c:	e182240c 	orr	r2, r2, ip, lsl #8
    1280:	e1823803 	orr	r3, r2, r3, lsl #16
    1284:	e1833c01 	orr	r3, r3, r1, lsl #24
    1288:	ee033f10 	mcr	15, 0, r3, cr3, cr0, {0}
    128c:	e5d0c045 	ldrb	ip, [r0, #69]	; 0x45
    1290:	e5d02044 	ldrb	r2, [r0, #68]	; 0x44
    1294:	e5d03046 	ldrb	r3, [r0, #70]	; 0x46
    1298:	e5d01047 	ldrb	r1, [r0, #71]	; 0x47
    129c:	e182240c 	orr	r2, r2, ip, lsl #8
    12a0:	e1823803 	orr	r3, r2, r3, lsl #16
    12a4:	e1833c01 	orr	r3, r3, r1, lsl #24
    12a8:	ee073f14 	mcr	15, 0, r3, cr7, cr4, {0}
    12ac:	e5d0c05d 	ldrb	ip, [r0, #93]	; 0x5d
    12b0:	e5d0205c 	ldrb	r2, [r0, #92]	; 0x5c
    12b4:	e5d0305e 	ldrb	r3, [r0, #94]	; 0x5e
    12b8:	e5d0105f 	ldrb	r1, [r0, #95]	; 0x5f
    12bc:	e182240c 	orr	r2, r2, ip, lsl #8
    12c0:	e1823803 	orr	r3, r2, r3, lsl #16
    12c4:	e1833c01 	orr	r3, r3, r1, lsl #24
    12c8:	ee093fbc 	mcr	15, 0, r3, cr9, cr12, {5}
    12cc:	e5d0c061 	ldrb	ip, [r0, #97]	; 0x61
    12d0:	e5d02060 	ldrb	r2, [r0, #96]	; 0x60
    12d4:	e5d03062 	ldrb	r3, [r0, #98]	; 0x62
    12d8:	e5d01063 	ldrb	r1, [r0, #99]	; 0x63
    12dc:	e182240c 	orr	r2, r2, ip, lsl #8
    12e0:	e1823803 	orr	r3, r2, r3, lsl #16
    12e4:	e1833c01 	orr	r3, r3, r1, lsl #24
    12e8:	ee093f1d 	mcr	15, 0, r3, cr9, cr13, {0}
    12ec:	e5d0c065 	ldrb	ip, [r0, #101]	; 0x65
    12f0:	e5d02064 	ldrb	r2, [r0, #100]	; 0x64
    12f4:	e5d03066 	ldrb	r3, [r0, #102]	; 0x66
    12f8:	e5d01067 	ldrb	r1, [r0, #103]	; 0x67
    12fc:	e182240c 	orr	r2, r2, ip, lsl #8
    1300:	e1823803 	orr	r3, r2, r3, lsl #16
    1304:	e1833c01 	orr	r3, r3, r1, lsl #24
    1308:	ee093f3d 	mcr	15, 0, r3, cr9, cr13, {1}
    130c:	e5d0c069 	ldrb	ip, [r0, #105]	; 0x69
    1310:	e5d02068 	ldrb	r2, [r0, #104]	; 0x68
    1314:	e5d0306a 	ldrb	r3, [r0, #106]	; 0x6a
    1318:	e5d0106b 	ldrb	r1, [r0, #107]	; 0x6b
    131c:	e182240c 	orr	r2, r2, ip, lsl #8
    1320:	e1823803 	orr	r3, r2, r3, lsl #16
    1324:	e1833c01 	orr	r3, r3, r1, lsl #24
    1328:	ee093f5d 	mcr	15, 0, r3, cr9, cr13, {2}
    132c:	e5d0c06d 	ldrb	ip, [r0, #109]	; 0x6d
    1330:	e5d0206c 	ldrb	r2, [r0, #108]	; 0x6c
    1334:	e5d0306e 	ldrb	r3, [r0, #110]	; 0x6e
    1338:	e5d0106f 	ldrb	r1, [r0, #111]	; 0x6f
    133c:	e182240c 	orr	r2, r2, ip, lsl #8
    1340:	e1823803 	orr	r3, r2, r3, lsl #16
    1344:	e1833c01 	orr	r3, r3, r1, lsl #24
    1348:	ee093f1e 	mcr	15, 0, r3, cr9, cr14, {0}
    134c:	e5d0c071 	ldrb	ip, [r0, #113]	; 0x71
    1350:	e5d02070 	ldrb	r2, [r0, #112]	; 0x70
    1354:	e5d03072 	ldrb	r3, [r0, #114]	; 0x72
    1358:	e5d01073 	ldrb	r1, [r0, #115]	; 0x73
    135c:	e182240c 	orr	r2, r2, ip, lsl #8
    1360:	e1823803 	orr	r3, r2, r3, lsl #16
    1364:	e1833c01 	orr	r3, r3, r1, lsl #24
    1368:	ee093f3e 	mcr	15, 0, r3, cr9, cr14, {1}
    136c:	e5d0c075 	ldrb	ip, [r0, #117]	; 0x75
    1370:	e5d02074 	ldrb	r2, [r0, #116]	; 0x74
    1374:	e5d03076 	ldrb	r3, [r0, #118]	; 0x76
    1378:	e5d01077 	ldrb	r1, [r0, #119]	; 0x77
    137c:	e182240c 	orr	r2, r2, ip, lsl #8
    1380:	e1823803 	orr	r3, r2, r3, lsl #16
    1384:	e1833c01 	orr	r3, r3, r1, lsl #24
    1388:	ee093f5e 	mcr	15, 0, r3, cr9, cr14, {2}
    138c:	e5d0c079 	ldrb	ip, [r0, #121]	; 0x79
    1390:	e5d02078 	ldrb	r2, [r0, #120]	; 0x78
    1394:	e5d0307a 	ldrb	r3, [r0, #122]	; 0x7a
    1398:	e5d0107b 	ldrb	r1, [r0, #123]	; 0x7b
    139c:	e182240c 	orr	r2, r2, ip, lsl #8
    13a0:	e1823803 	orr	r3, r2, r3, lsl #16
    13a4:	e1833c01 	orr	r3, r3, r1, lsl #24
    13a8:	ee0a3f12 	mcr	15, 0, r3, cr10, cr2, {0}
    13ac:	e5d0c07d 	ldrb	ip, [r0, #125]	; 0x7d
    13b0:	e5d0207c 	ldrb	r2, [r0, #124]	; 0x7c
    13b4:	e5d0307e 	ldrb	r3, [r0, #126]	; 0x7e
    13b8:	e5d0107f 	ldrb	r1, [r0, #127]	; 0x7f
    13bc:	e182240c 	orr	r2, r2, ip, lsl #8
    13c0:	e1823803 	orr	r3, r2, r3, lsl #16
    13c4:	e1833c01 	orr	r3, r3, r1, lsl #24
    13c8:	ee0a3f32 	mcr	15, 0, r3, cr10, cr2, {1}
    13cc:	e5d0c081 	ldrb	ip, [r0, #129]	; 0x81
    13d0:	e5d02080 	ldrb	r2, [r0, #128]	; 0x80
    13d4:	e5d03082 	ldrb	r3, [r0, #130]	; 0x82
    13d8:	e5d01083 	ldrb	r1, [r0, #131]	; 0x83
    13dc:	e182240c 	orr	r2, r2, ip, lsl #8
    13e0:	e1823803 	orr	r3, r2, r3, lsl #16
    13e4:	e1833c01 	orr	r3, r3, r1, lsl #24
    13e8:	ee0c3f10 	mcr	15, 0, r3, cr12, cr0, {0}
    13ec:	e5d0c091 	ldrb	ip, [r0, #145]	; 0x91
    13f0:	e5d02090 	ldrb	r2, [r0, #144]	; 0x90
    13f4:	e5d03092 	ldrb	r3, [r0, #146]	; 0x92
    13f8:	e5d01093 	ldrb	r1, [r0, #147]	; 0x93
    13fc:	e182240c 	orr	r2, r2, ip, lsl #8
    1400:	e1823803 	orr	r3, r2, r3, lsl #16
    1404:	e1833c01 	orr	r3, r3, r1, lsl #24
    1408:	ee0d3f30 	mcr	15, 0, r3, cr13, cr0, {1}
    140c:	e5d0c095 	ldrb	ip, [r0, #149]	; 0x95
    1410:	e5d02094 	ldrb	r2, [r0, #148]	; 0x94
    1414:	e5d03096 	ldrb	r3, [r0, #150]	; 0x96
    1418:	e5d01097 	ldrb	r1, [r0, #151]	; 0x97
    141c:	e182240c 	orr	r2, r2, ip, lsl #8
    1420:	e1823803 	orr	r3, r2, r3, lsl #16
    1424:	e1833c01 	orr	r3, r3, r1, lsl #24
    1428:	ee0d3f50 	mcr	15, 0, r3, cr13, cr0, {2}
    142c:	e5d0c099 	ldrb	ip, [r0, #153]	; 0x99
    1430:	e5d02098 	ldrb	r2, [r0, #152]	; 0x98
    1434:	e5d0309a 	ldrb	r3, [r0, #154]	; 0x9a
    1438:	e5d0109b 	ldrb	r1, [r0, #155]	; 0x9b
    143c:	e182240c 	orr	r2, r2, ip, lsl #8
    1440:	e1823803 	orr	r3, r2, r3, lsl #16
    1444:	e1833c01 	orr	r3, r3, r1, lsl #24
    1448:	ee0d3f70 	mcr	15, 0, r3, cr13, cr0, {3}
    144c:	e5d0c09d 	ldrb	ip, [r0, #157]	; 0x9d
    1450:	e5d0209c 	ldrb	r2, [r0, #156]	; 0x9c
    1454:	e5d0309e 	ldrb	r3, [r0, #158]	; 0x9e
    1458:	e5d0109f 	ldrb	r1, [r0, #159]	; 0x9f
    145c:	e182240c 	orr	r2, r2, ip, lsl #8
    1460:	e1823803 	orr	r3, r2, r3, lsl #16
    1464:	e1833c01 	orr	r3, r3, r1, lsl #24
    1468:	ee0d3f90 	mcr	15, 0, r3, cr13, cr0, {4}
    146c:	f57ff04f 	dsb	sy
    1470:	f57ff06f 	isb	sy
    1474:	e12fff1e 	bx	lr

00001478 <disable_cache_invalidate>:
    1478:	e3a03000 	mov	r3, #0
    147c:	e34f31c2 	movt	r3, #61890	; 0xf1c2
    1480:	e5932d3c 	ldr	r2, [r3, #3388]	; 0xd3c
    1484:	e3822003 	orr	r2, r2, #3
    1488:	e5832d3c 	str	r2, [r3, #3388]	; 0xd3c
    148c:	e12fff1e 	bx	lr

00001490 <set_copro_default>:
    1490:	e3a03002 	mov	r3, #2
    1494:	ee403f10 	mcr	15, 2, r3, cr0, cr0, {0}
    1498:	e3003878 	movw	r3, #2168	; 0x878
    149c:	e34030c5 	movt	r3, #197	; 0xc5
    14a0:	ee013f10 	mcr	15, 0, r3, cr1, cr0, {0}
    14a4:	e3063040 	movw	r3, #24640	; 0x6040
    14a8:	ee013f30 	mcr	15, 0, r3, cr1, cr0, {1}
    14ac:	e3a03000 	mov	r3, #0
    14b0:	ee013f50 	mcr	15, 0, r3, cr1, cr0, {2}
    14b4:	ee023f10 	mcr	15, 0, r3, cr2, cr0, {0}
    14b8:	ee023f30 	mcr	15, 0, r3, cr2, cr0, {1}
    14bc:	ee023f50 	mcr	15, 0, r3, cr2, cr0, {2}
    14c0:	ee033f10 	mcr	15, 0, r3, cr3, cr0, {0}
    14c4:	ee053f10 	mcr	15, 0, r3, cr5, cr0, {0}
    14c8:	ee053f30 	mcr	15, 0, r3, cr5, cr0, {1}
    14cc:	ee053f11 	mcr	15, 0, r3, cr5, cr1, {0}
    14d0:	ee053f31 	mcr	15, 0, r3, cr5, cr1, {1}
    14d4:	ee063f10 	mcr	15, 0, r3, cr6, cr0, {0}
    14d8:	ee063f50 	mcr	15, 0, r3, cr6, cr0, {2}
    14dc:	ee073f14 	mcr	15, 0, r3, cr7, cr4, {0}
    14e0:	ee093f1e 	mcr	15, 0, r3, cr9, cr14, {0}
    14e4:	ee093f3e 	mcr	15, 0, r3, cr9, cr14, {1}
    14e8:	ee093f5e 	mcr	15, 0, r3, cr9, cr14, {2}
    14ec:	e30821a4 	movw	r2, #33188	; 0x81a4
    14f0:	e340200a 	movt	r2, #10
    14f4:	ee0a2f12 	mcr	15, 0, r2, cr10, cr2, {0}
    14f8:	e30428e0 	movw	r2, #18656	; 0x48e0
    14fc:	e34424e0 	movt	r2, #17632	; 0x44e0
    1500:	ee0a2f32 	mcr	15, 0, r2, cr10, cr2, {1}
    1504:	ee0d3f30 	mcr	15, 0, r3, cr13, cr0, {1}
    1508:	ee0d3f50 	mcr	15, 0, r3, cr13, cr0, {2}
    150c:	ee0d3f70 	mcr	15, 0, r3, cr13, cr0, {3}
    1510:	ee0d3f90 	mcr	15, 0, r3, cr13, cr0, {4}
    1514:	f57ff04f 	dsb	sy
    1518:	f57ff06f 	isb	sy
    151c:	e12fff1e 	bx	lr

00001520 <save_processor_state>:
    1520:	e3020dc0 	movw	r0, #11712	; 0x2dc0
    1524:	e3400000 	movt	r0, #0
    1528:	eafffe20 	b	db0 <__save_processor_state>

0000152c <restore_processor_state>:
    152c:	e3020dc0 	movw	r0, #11712	; 0x2dc0
    1530:	e3400000 	movt	r0, #0
    1534:	eaffff1e 	b	11b4 <__restore_processor_state>

00001538 <restore_processor_ttbr0>:
    1538:	e3023dc0 	movw	r3, #11712	; 0x2dc0
    153c:	e3403000 	movt	r3, #0
    1540:	e593301c 	ldr	r3, [r3, #28]
    1544:	ee023f10 	mcr	15, 0, r3, cr2, cr0, {0}
    1548:	e12fff1e 	bx	lr

0000154c <set_ttbr0>:
    154c:	ee123f30 	mrc	15, 0, r3, cr2, cr0, {1}
    1550:	ee023f10 	mcr	15, 0, r3, cr2, cr0, {0}
    1554:	f57ff06f 	isb	sy
    1558:	e12fff1e 	bx	lr

0000155c <set_serial_clk>:
    155c:	e92d4070 	push	{r4, r5, r6, lr}
    1560:	e1a04000 	mov	r4, r0
    1564:	eb0004cb 	bl	2898 <mem_get_ba>
    1568:	e5903058 	ldr	r3, [r0, #88]	; 0x58
    156c:	e7e12c53 	ubfx	r2, r3, #24, #2
    1570:	e3520003 	cmp	r2, #3
    1574:	13021c1c 	movwne	r1, #11292	; 0x2c1c
    1578:	03a00000 	moveq	r0, #0
    157c:	13401000 	movtne	r1, #0
    1580:	17910102 	ldrne	r0, [r1, r2, lsl #2]
    1584:	e203101f 	and	r1, r3, #31
    1588:	e2811001 	add	r1, r1, #1
    158c:	e7e13853 	ubfx	r3, r3, #16, #2
    1590:	e1a01311 	lsl	r1, r1, r3
    1594:	eb000347 	bl	22b8 <__aeabi_uidiv>
    1598:	e3540000 	cmp	r4, #0
    159c:	e3a04000 	mov	r4, #0
    15a0:	134f41c2 	movtne	r4, #61890	; 0xf1c2
    15a4:	13023e60 	movwne	r3, #11872	; 0x2e60
    15a8:	1594206c 	ldrne	r2, [r4, #108]	; 0x6c
    15ac:	034041c2 	movteq	r4, #450	; 0x1c2
    15b0:	13403000 	movtne	r3, #0
    15b4:	e1a05000 	mov	r5, r0
    15b8:	15832000 	strne	r2, [r3]
    15bc:	159422d8 	ldrne	r2, [r4, #728]	; 0x2d8
    15c0:	15832004 	strne	r2, [r3, #4]
    15c4:	e59432d8 	ldr	r3, [r4, #728]	; 0x2d8
    15c8:	e3c33801 	bic	r3, r3, #65536	; 0x10000
    15cc:	e58432d8 	str	r3, [r4, #728]	; 0x2d8
    15d0:	e59432d8 	ldr	r3, [r4, #728]	; 0x2d8
    15d4:	e3833801 	orr	r3, r3, #65536	; 0x10000
    15d8:	e58432d8 	str	r3, [r4, #728]	; 0x2d8
    15dc:	ebfffc01 	bl	5e8 <change_runtime_env>
    15e0:	e3a00001 	mov	r0, #1
    15e4:	ebfffc0b 	bl	618 <delay_us>
    15e8:	e594306c 	ldr	r3, [r4, #108]	; 0x6c
    15ec:	e1a00005 	mov	r0, r5
    15f0:	e3c33801 	bic	r3, r3, #65536	; 0x10000
    15f4:	e584306c 	str	r3, [r4, #108]	; 0x6c
    15f8:	e594306c 	ldr	r3, [r4, #108]	; 0x6c
    15fc:	e3833801 	orr	r3, r3, #65536	; 0x10000
    1600:	e584306c 	str	r3, [r4, #108]	; 0x6c
    1604:	e8bd8070 	pop	{r4, r5, r6, pc}

00001608 <serial_exit>:
    1608:	e3023e60 	movw	r3, #11872	; 0x2e60
    160c:	e3a02000 	mov	r2, #0
    1610:	e3403000 	movt	r3, #0
    1614:	e34f21c2 	movt	r2, #61890	; 0xf1c2
    1618:	e5930000 	ldr	r0, [r3]
    161c:	e3a01000 	mov	r1, #0
    1620:	e582006c 	str	r0, [r2, #108]	; 0x6c
    1624:	e5930004 	ldr	r0, [r3, #4]
    1628:	e58202d8 	str	r0, [r2, #728]	; 0x2d8
    162c:	e5930008 	ldr	r0, [r3, #8]
    1630:	e58208b4 	str	r0, [r2, #2228]	; 0x8b4
    1634:	e583100c 	str	r1, [r3, #12]
    1638:	e12fff1e 	bx	lr

0000163c <serial_init_nommu>:
    163c:	e3a03000 	mov	r3, #0
    1640:	e1a00003 	mov	r0, r3
    1644:	e34031c2 	movt	r3, #450	; 0x1c2
    1648:	e59328b4 	ldr	r2, [r3, #2228]	; 0x8b4
    164c:	e92d41f0 	push	{r4, r5, r6, r7, r8, lr}
    1650:	e3c22807 	bic	r2, r2, #458752	; 0x70000
    1654:	e3c22c07 	bic	r2, r2, #1792	; 0x700
    1658:	e58328b4 	str	r2, [r3, #2228]	; 0x8b4
    165c:	e59328b4 	ldr	r2, [r3, #2228]	; 0x8b4
    1660:	e3a08000 	mov	r8, #0
    1664:	e3a07003 	mov	r7, #3
    1668:	e3a060e1 	mov	r6, #225	; 0xe1
    166c:	e3822803 	orr	r2, r2, #196608	; 0x30000
    1670:	e3822c03 	orr	r2, r2, #768	; 0x300
    1674:	e58328b4 	str	r2, [r3, #2228]	; 0x8b4
    1678:	ebffffb7 	bl	155c <set_serial_clk>
    167c:	e3a03902 	mov	r3, #32768	; 0x8000
    1680:	e34031c2 	movt	r3, #450	; 0x1c2
    1684:	e30b23c5 	movw	r2, #46021	; 0xb3c5
    1688:	e593100c 	ldr	r1, [r3, #12]
    168c:	e34921a2 	movt	r2, #37282	; 0x91a2
    1690:	e3a0e001 	mov	lr, #1
    1694:	e583e0a4 	str	lr, [r3, #164]	; 0xa4
    1698:	e3814080 	orr	r4, r1, #128	; 0x80
    169c:	e583400c 	str	r4, [r3, #12]
    16a0:	e302ce60 	movw	ip, #11872	; 0x2e60
    16a4:	e3c11080 	bic	r1, r1, #128	; 0x80
    16a8:	e340c000 	movt	ip, #0
    16ac:	e2800ae1 	add	r0, r0, #921600	; 0xe1000
    16b0:	e0854290 	umull	r4, r5, r0, r2
    16b4:	e7e72a55 	ubfx	r2, r5, #20, #8
    16b8:	e1a00e25 	lsr	r0, r5, #28
    16bc:	e5830004 	str	r0, [r3, #4]
    16c0:	e5832000 	str	r2, [r3]
    16c4:	e583100c 	str	r1, [r3, #12]
    16c8:	e58380a4 	str	r8, [r3, #164]	; 0xa4
    16cc:	e583700c 	str	r7, [r3, #12]
    16d0:	e5836008 	str	r6, [r3, #8]
    16d4:	e58ce00c 	str	lr, [ip, #12]
    16d8:	e8bd81f0 	pop	{r4, r5, r6, r7, r8, pc}

000016dc <serial_puts_nommu>:
    16dc:	e3023e60 	movw	r3, #11872	; 0x2e60
    16e0:	e3403000 	movt	r3, #0
    16e4:	e593300c 	ldr	r3, [r3, #12]
    16e8:	e3530000 	cmp	r3, #0
    16ec:	0a000022 	beq	177c <serial_puts_nommu+0xa0>
    16f0:	e5d03000 	ldrb	r3, [r0]
    16f4:	e3530000 	cmp	r3, #0
    16f8:	0a00001d 	beq	1774 <serial_puts_nommu+0x98>
    16fc:	e3a02902 	mov	r2, #32768	; 0x8000
    1700:	e34021c2 	movt	r2, #450	; 0x1c2
    1704:	e52de004 	push	{lr}		; (str lr, [sp, #-4]!)
    1708:	e1a0c002 	mov	ip, r2
    170c:	e3a0e00d 	mov	lr, #13
    1710:	e353000a 	cmp	r3, #10
    1714:	0a00000d 	beq	1750 <serial_puts_nommu+0x74>
    1718:	e4d01001 	ldrb	r1, [r0], #1
    171c:	e592307c 	ldr	r3, [r2, #124]	; 0x7c
    1720:	e3130002 	tst	r3, #2
    1724:	0afffffc 	beq	171c <serial_puts_nommu+0x40>
    1728:	f57ff04f 	dsb	sy
    172c:	f57ff06f 	isb	sy
    1730:	e58c1000 	str	r1, [ip]
    1734:	f57ff04f 	dsb	sy
    1738:	f57ff06f 	isb	sy
    173c:	e5d03000 	ldrb	r3, [r0]
    1740:	e3530000 	cmp	r3, #0
    1744:	1afffff1 	bne	1710 <serial_puts_nommu+0x34>
    1748:	e3a00000 	mov	r0, #0
    174c:	e49df004 	pop	{pc}		; (ldr pc, [sp], #4)
    1750:	e592307c 	ldr	r3, [r2, #124]	; 0x7c
    1754:	e3130002 	tst	r3, #2
    1758:	0afffffc 	beq	1750 <serial_puts_nommu+0x74>
    175c:	f57ff04f 	dsb	sy
    1760:	f57ff06f 	isb	sy
    1764:	e58ce000 	str	lr, [ip]
    1768:	f57ff04f 	dsb	sy
    176c:	f57ff06f 	isb	sy
    1770:	eaffffe8 	b	1718 <serial_puts_nommu+0x3c>
    1774:	e3a00000 	mov	r0, #0
    1778:	e12fff1e 	bx	lr
    177c:	e3e00000 	mvn	r0, #0
    1780:	e12fff1e 	bx	lr

00001784 <serial_gets_nommu>:
    1784:	e3023e60 	movw	r3, #11872	; 0x2e60
    1788:	e3403000 	movt	r3, #0
    178c:	e593300c 	ldr	r3, [r3, #12]
    1790:	e3530000 	cmp	r3, #0
    1794:	1a000001 	bne	17a0 <serial_gets_nommu+0x1c>
    1798:	e3e00000 	mvn	r0, #0
    179c:	e12fff1e 	bx	lr
    17a0:	e3510000 	cmp	r1, #0
    17a4:	0a000018 	beq	180c <serial_gets_nommu+0x88>
    17a8:	e3a0c902 	mov	ip, #32768	; 0x8000
    17ac:	e52de004 	push	{lr}		; (str lr, [sp, #-4]!)
    17b0:	e340c1c2 	movt	ip, #450	; 0x1c2
    17b4:	e240e001 	sub	lr, r0, #1
    17b8:	e3a00000 	mov	r0, #0
    17bc:	e30f3fff 	movw	r3, #65535	; 0xffff
    17c0:	ea000001 	b	17cc <serial_gets_nommu+0x48>
    17c4:	e2533001 	subs	r3, r3, #1
    17c8:	3a000004 	bcc	17e0 <serial_gets_nommu+0x5c>
    17cc:	e59c207c 	ldr	r2, [ip, #124]	; 0x7c
    17d0:	e3120008 	tst	r2, #8
    17d4:	0afffffa 	beq	17c4 <serial_gets_nommu+0x40>
    17d8:	e3530000 	cmp	r3, #0
    17dc:	0a000008 	beq	1804 <serial_gets_nommu+0x80>
    17e0:	e59c3000 	ldr	r3, [ip]
    17e4:	e2800001 	add	r0, r0, #1
    17e8:	e21330ff 	ands	r3, r3, #255	; 0xff
    17ec:	0a000008 	beq	1814 <serial_gets_nommu+0x90>
    17f0:	e1510000 	cmp	r1, r0
    17f4:	e5ee3001 	strb	r3, [lr, #1]!
    17f8:	1affffef 	bne	17bc <serial_gets_nommu+0x38>
    17fc:	e2810001 	add	r0, r1, #1
    1800:	e49df004 	pop	{pc}		; (ldr pc, [sp], #4)
    1804:	e2800001 	add	r0, r0, #1
    1808:	e49df004 	pop	{pc}		; (ldr pc, [sp], #4)
    180c:	e3a00001 	mov	r0, #1
    1810:	e12fff1e 	bx	lr
    1814:	e49df004 	pop	{pc}		; (ldr pc, [sp], #4)

00001818 <serial_init_manager>:
    1818:	e3023e60 	movw	r3, #11872	; 0x2e60
    181c:	e3a02001 	mov	r2, #1
    1820:	e3403000 	movt	r3, #0
    1824:	e583200c 	str	r2, [r3, #12]
    1828:	e12fff1e 	bx	lr

0000182c <serial_exit_manager>:
    182c:	e3023e60 	movw	r3, #11872	; 0x2e60
    1830:	e3a02000 	mov	r2, #0
    1834:	e3403000 	movt	r3, #0
    1838:	e583200c 	str	r2, [r3, #12]
    183c:	e12fff1e 	bx	lr

00001840 <serial_init>:
    1840:	e3a03000 	mov	r3, #0
    1844:	e3a00001 	mov	r0, #1
    1848:	e34f31c2 	movt	r3, #61890	; 0xf1c2
    184c:	e59328b4 	ldr	r2, [r3, #2228]	; 0x8b4
    1850:	e92d41f0 	push	{r4, r5, r6, r7, r8, lr}
    1854:	e3024e60 	movw	r4, #11872	; 0x2e60
    1858:	e3404000 	movt	r4, #0
    185c:	e3a08000 	mov	r8, #0
    1860:	e5842008 	str	r2, [r4, #8]
    1864:	e3a05003 	mov	r5, #3
    1868:	e59328b4 	ldr	r2, [r3, #2228]	; 0x8b4
    186c:	e3c22807 	bic	r2, r2, #458752	; 0x70000
    1870:	e3c22c07 	bic	r2, r2, #1792	; 0x700
    1874:	e58328b4 	str	r2, [r3, #2228]	; 0x8b4
    1878:	e59328b4 	ldr	r2, [r3, #2228]	; 0x8b4
    187c:	e3822803 	orr	r2, r2, #196608	; 0x30000
    1880:	e3822c03 	orr	r2, r2, #768	; 0x300
    1884:	e58328b4 	str	r2, [r3, #2228]	; 0x8b4
    1888:	ebffff33 	bl	155c <set_serial_clk>
    188c:	e30b23c5 	movw	r2, #46021	; 0xb3c5
    1890:	e34921a2 	movt	r2, #37282	; 0x91a2
    1894:	e3a03902 	mov	r3, #32768	; 0x8000
    1898:	e34f31c2 	movt	r3, #61890	; 0xf1c2
    189c:	e3a0c001 	mov	ip, #1
    18a0:	e593100c 	ldr	r1, [r3, #12]
    18a4:	e583c0a4 	str	ip, [r3, #164]	; 0xa4
    18a8:	e381e080 	orr	lr, r1, #128	; 0x80
    18ac:	e3c11080 	bic	r1, r1, #128	; 0x80
    18b0:	e583e00c 	str	lr, [r3, #12]
    18b4:	e3a0e0e1 	mov	lr, #225	; 0xe1
    18b8:	e2800ae1 	add	r0, r0, #921600	; 0xe1000
    18bc:	e0876290 	umull	r6, r7, r0, r2
    18c0:	e7e72a57 	ubfx	r2, r7, #20, #8
    18c4:	e1a00e27 	lsr	r0, r7, #28
    18c8:	e5830004 	str	r0, [r3, #4]
    18cc:	e5832000 	str	r2, [r3]
    18d0:	e583100c 	str	r1, [r3, #12]
    18d4:	e58380a4 	str	r8, [r3, #164]	; 0xa4
    18d8:	e583500c 	str	r5, [r3, #12]
    18dc:	e583e008 	str	lr, [r3, #8]
    18e0:	e584c00c 	str	ip, [r4, #12]
    18e4:	e8bd81f0 	pop	{r4, r5, r6, r7, r8, pc}

000018e8 <serial_puts>:
    18e8:	e3023e60 	movw	r3, #11872	; 0x2e60
    18ec:	e3403000 	movt	r3, #0
    18f0:	e593300c 	ldr	r3, [r3, #12]
    18f4:	e3530000 	cmp	r3, #0
    18f8:	0a000022 	beq	1988 <serial_puts+0xa0>
    18fc:	e5d03000 	ldrb	r3, [r0]
    1900:	e3530000 	cmp	r3, #0
    1904:	0a00001d 	beq	1980 <serial_puts+0x98>
    1908:	e3a02902 	mov	r2, #32768	; 0x8000
    190c:	e34f21c2 	movt	r2, #61890	; 0xf1c2
    1910:	e52de004 	push	{lr}		; (str lr, [sp, #-4]!)
    1914:	e1a0c002 	mov	ip, r2
    1918:	e3a0e00d 	mov	lr, #13
    191c:	e353000a 	cmp	r3, #10
    1920:	0a00000d 	beq	195c <serial_puts+0x74>
    1924:	e4d01001 	ldrb	r1, [r0], #1
    1928:	e592307c 	ldr	r3, [r2, #124]	; 0x7c
    192c:	e3130002 	tst	r3, #2
    1930:	0afffffc 	beq	1928 <serial_puts+0x40>
    1934:	f57ff04f 	dsb	sy
    1938:	f57ff06f 	isb	sy
    193c:	e58c1000 	str	r1, [ip]
    1940:	f57ff04f 	dsb	sy
    1944:	f57ff06f 	isb	sy
    1948:	e5d03000 	ldrb	r3, [r0]
    194c:	e3530000 	cmp	r3, #0
    1950:	1afffff1 	bne	191c <serial_puts+0x34>
    1954:	e3a00000 	mov	r0, #0
    1958:	e49df004 	pop	{pc}		; (ldr pc, [sp], #4)
    195c:	e592307c 	ldr	r3, [r2, #124]	; 0x7c
    1960:	e3130002 	tst	r3, #2
    1964:	0afffffc 	beq	195c <serial_puts+0x74>
    1968:	f57ff04f 	dsb	sy
    196c:	f57ff06f 	isb	sy
    1970:	e58ce000 	str	lr, [ip]
    1974:	f57ff04f 	dsb	sy
    1978:	f57ff06f 	isb	sy
    197c:	eaffffe8 	b	1924 <serial_puts+0x3c>
    1980:	e3a00000 	mov	r0, #0
    1984:	e12fff1e 	bx	lr
    1988:	e3e00000 	mvn	r0, #0
    198c:	e12fff1e 	bx	lr

00001990 <serial_gets>:
    1990:	e3023e60 	movw	r3, #11872	; 0x2e60
    1994:	e3403000 	movt	r3, #0
    1998:	e593300c 	ldr	r3, [r3, #12]
    199c:	e3530000 	cmp	r3, #0
    19a0:	1a000001 	bne	19ac <serial_gets+0x1c>
    19a4:	e3e00000 	mvn	r0, #0
    19a8:	e12fff1e 	bx	lr
    19ac:	e3510000 	cmp	r1, #0
    19b0:	0a000018 	beq	1a18 <serial_gets+0x88>
    19b4:	e3a0c902 	mov	ip, #32768	; 0x8000
    19b8:	e52de004 	push	{lr}		; (str lr, [sp, #-4]!)
    19bc:	e34fc1c2 	movt	ip, #61890	; 0xf1c2
    19c0:	e240e001 	sub	lr, r0, #1
    19c4:	e3a00000 	mov	r0, #0
    19c8:	e30f3fff 	movw	r3, #65535	; 0xffff
    19cc:	ea000001 	b	19d8 <serial_gets+0x48>
    19d0:	e2533001 	subs	r3, r3, #1
    19d4:	3a000004 	bcc	19ec <serial_gets+0x5c>
    19d8:	e59c207c 	ldr	r2, [ip, #124]	; 0x7c
    19dc:	e3120008 	tst	r2, #8
    19e0:	0afffffa 	beq	19d0 <serial_gets+0x40>
    19e4:	e3530000 	cmp	r3, #0
    19e8:	0a000008 	beq	1a10 <serial_gets+0x80>
    19ec:	e59c3000 	ldr	r3, [ip]
    19f0:	e2800001 	add	r0, r0, #1
    19f4:	e21330ff 	ands	r3, r3, #255	; 0xff
    19f8:	0a000008 	beq	1a20 <serial_gets+0x90>
    19fc:	e1510000 	cmp	r1, r0
    1a00:	e5ee3001 	strb	r3, [lr, #1]!
    1a04:	1affffef 	bne	19c8 <serial_gets+0x38>
    1a08:	e2810001 	add	r0, r1, #1
    1a0c:	e49df004 	pop	{pc}		; (ldr pc, [sp], #4)
    1a10:	e2800001 	add	r0, r0, #1
    1a14:	e49df004 	pop	{pc}		; (ldr pc, [sp], #4)
    1a18:	e3a00001 	mov	r0, #1
    1a1c:	e12fff1e 	bx	lr
    1a20:	e49df004 	pop	{pc}		; (ldr pc, [sp], #4)

00001a24 <utoa>:
    1a24:	e302cd48 	movw	ip, #11592	; 0x2d48
    1a28:	e3500000 	cmp	r0, #0
    1a2c:	e340c000 	movt	ip, #0
    1a30:	e92d43f0 	push	{r4, r5, r6, r7, r8, r9, lr}
    1a34:	e1a05000 	mov	r5, r0
    1a38:	e1a08001 	mov	r8, r1
    1a3c:	e1a07002 	mov	r7, r2
    1a40:	e8bc000f 	ldm	ip!, {r0, r1, r2, r3}
    1a44:	e24dd02c 	sub	sp, sp, #44	; 0x2c
    1a48:	e28de014 	add	lr, sp, #20
    1a4c:	128d9003 	addne	r9, sp, #3
    1a50:	13a06000 	movne	r6, #0
    1a54:	e59cc000 	ldr	ip, [ip]
    1a58:	e8ae000f 	stmia	lr!, {r0, r1, r2, r3}
    1a5c:	e5cec000 	strb	ip, [lr]
    1a60:	1a000001 	bne	1a6c <utoa+0x48>
    1a64:	ea00001b 	b	1ad8 <utoa+0xb4>
    1a68:	e1a06003 	mov	r6, r3
    1a6c:	e1a00005 	mov	r0, r5
    1a70:	e1a01007 	mov	r1, r7
    1a74:	eb000269 	bl	2420 <__aeabi_uidivmod>
    1a78:	e28d3028 	add	r3, sp, #40	; 0x28
    1a7c:	e1a00005 	mov	r0, r5
    1a80:	e0833001 	add	r3, r3, r1
    1a84:	e1a01007 	mov	r1, r7
    1a88:	e5534014 	ldrb	r4, [r3, #-20]	; 0xffffffec
    1a8c:	e5e94001 	strb	r4, [r9, #1]!
    1a90:	eb000208 	bl	22b8 <__aeabi_uidiv>
    1a94:	e2863001 	add	r3, r6, #1
    1a98:	e2505000 	subs	r5, r0, #0
    1a9c:	1afffff1 	bne	1a68 <utoa+0x44>
    1aa0:	e28d1004 	add	r1, sp, #4
    1aa4:	e2482001 	sub	r2, r8, #1
    1aa8:	e0813006 	add	r3, r1, r6
    1aac:	ea000000 	b	1ab4 <utoa+0x90>
    1ab0:	e5734001 	ldrb	r4, [r3, #-1]!
    1ab4:	e1530001 	cmp	r3, r1
    1ab8:	e5e24001 	strb	r4, [r2, #1]!
    1abc:	1afffffb 	bne	1ab0 <utoa+0x8c>
    1ac0:	e0886006 	add	r6, r8, r6
    1ac4:	e3a03000 	mov	r3, #0
    1ac8:	e1a00008 	mov	r0, r8
    1acc:	e5c63001 	strb	r3, [r6, #1]
    1ad0:	e28dd02c 	add	sp, sp, #44	; 0x2c
    1ad4:	e8bd83f0 	pop	{r4, r5, r6, r7, r8, r9, pc}
    1ad8:	e3a03030 	mov	r3, #48	; 0x30
    1adc:	e1a00008 	mov	r0, r8
    1ae0:	e5c85001 	strb	r5, [r8, #1]
    1ae4:	e5c83000 	strb	r3, [r8]
    1ae8:	e28dd02c 	add	sp, sp, #44	; 0x2c
    1aec:	e8bd83f0 	pop	{r4, r5, r6, r7, r8, r9, pc}

00001af0 <print_align>:
    1af0:	e92d4070 	push	{r4, r5, r6, lr}
    1af4:	e302ed5c 	movw	lr, #11612	; 0x2d5c
    1af8:	e340e000 	movt	lr, #0
    1afc:	e1a06001 	mov	r6, r1
    1b00:	e1a05002 	mov	r5, r2
    1b04:	e1a0c000 	mov	ip, r0
    1b08:	e8be000f 	ldm	lr!, {r0, r1, r2, r3}
    1b0c:	e24dd018 	sub	sp, sp, #24
    1b10:	e1560005 	cmp	r6, r5
    1b14:	e28d4004 	add	r4, sp, #4
    1b18:	e59ee000 	ldr	lr, [lr]
    1b1c:	e8a4000f 	stmia	r4!, {r0, r1, r2, r3}
    1b20:	a3a00000 	movge	r0, #0
    1b24:	e5c4e000 	strb	lr, [r4]
    1b28:	aa000011 	bge	1b74 <print_align+0x84>
    1b2c:	e5dc3000 	ldrb	r3, [ip]
    1b30:	e0660005 	rsb	r0, r6, r5
    1b34:	e3530000 	cmp	r3, #0
    1b38:	0a000002 	beq	1b48 <print_align+0x58>
    1b3c:	e5fc3001 	ldrb	r3, [ip, #1]!
    1b40:	e3530000 	cmp	r3, #0
    1b44:	1afffffc 	bne	1b3c <print_align+0x4c>
    1b48:	e1a0300c 	mov	r3, ip
    1b4c:	e28d4004 	add	r4, sp, #4
    1b50:	e1a0e000 	mov	lr, r0
    1b54:	ea000001 	b	1b60 <print_align+0x70>
    1b58:	e25ee001 	subs	lr, lr, #1
    1b5c:	0a000006 	beq	1b7c <print_align+0x8c>
    1b60:	e4d4c001 	ldrb	ip, [r4], #1
    1b64:	e1a02003 	mov	r2, r3
    1b68:	e35c0000 	cmp	ip, #0
    1b6c:	e4c3c001 	strb	ip, [r3], #1
    1b70:	1afffff8 	bne	1b58 <print_align+0x68>
    1b74:	e28dd018 	add	sp, sp, #24
    1b78:	e8bd8070 	pop	{r4, r5, r6, pc}
    1b7c:	e5c2e001 	strb	lr, [r2, #1]
    1b80:	e28dd018 	add	sp, sp, #24
    1b84:	e8bd8070 	pop	{r4, r5, r6, pc}

00001b88 <itoa.constprop.0>:
    1b88:	e92d4070 	push	{r4, r5, r6, lr}
    1b8c:	e3024d48 	movw	r4, #11592	; 0x2d48
    1b90:	e3404000 	movt	r4, #0
    1b94:	e1a0c000 	mov	ip, r0
    1b98:	e1a0e001 	mov	lr, r1
    1b9c:	e24dd028 	sub	sp, sp, #40	; 0x28
    1ba0:	e8b4000f 	ldm	r4!, {r0, r1, r2, r3}
    1ba4:	e28d5014 	add	r5, sp, #20
    1ba8:	e35c0000 	cmp	ip, #0
    1bac:	e5944000 	ldr	r4, [r4]
    1bb0:	e8a5000f 	stmia	r5!, {r0, r1, r2, r3}
    1bb4:	e5c54000 	strb	r4, [r5]
    1bb8:	0a000029 	beq	1c64 <itoa.constprop.0+0xdc>
    1bbc:	e3064667 	movw	r4, #26215	; 0x6667
    1bc0:	b26cc000 	rsblt	ip, ip, #0
    1bc4:	b3a05001 	movlt	r5, #1
    1bc8:	a3a05000 	movge	r5, #0
    1bcc:	e28d0003 	add	r0, sp, #3
    1bd0:	e3464666 	movt	r4, #26214	; 0x6666
    1bd4:	e3a01000 	mov	r1, #0
    1bd8:	ea000000 	b	1be0 <itoa.constprop.0+0x58>
    1bdc:	e1a01006 	mov	r1, r6
    1be0:	e0c3249c 	smull	r2, r3, ip, r4
    1be4:	e1a02fcc 	asr	r2, ip, #31
    1be8:	e2816001 	add	r6, r1, #1
    1bec:	e0622143 	rsb	r2, r2, r3, asr #2
    1bf0:	e1a03182 	lsl	r3, r2, #3
    1bf4:	e0833082 	add	r3, r3, r2, lsl #1
    1bf8:	e063300c 	rsb	r3, r3, ip
    1bfc:	e252c000 	subs	ip, r2, #0
    1c00:	e28d2028 	add	r2, sp, #40	; 0x28
    1c04:	e0823003 	add	r3, r2, r3
    1c08:	e5533014 	ldrb	r3, [r3, #-20]	; 0xffffffec
    1c0c:	e5e03001 	strb	r3, [r0, #1]!
    1c10:	1afffff1 	bne	1bdc <itoa.constprop.0+0x54>
    1c14:	e3550000 	cmp	r5, #0
    1c18:	e28dc004 	add	ip, sp, #4
    1c1c:	13a05001 	movne	r5, #1
    1c20:	e2450001 	sub	r0, r5, #1
    1c24:	13a0202d 	movne	r2, #45	; 0x2d
    1c28:	e08e0000 	add	r0, lr, r0
    1c2c:	15ce2000 	strbne	r2, [lr]
    1c30:	e08c2001 	add	r2, ip, r1
    1c34:	ea000000 	b	1c3c <itoa.constprop.0+0xb4>
    1c38:	e5723001 	ldrb	r3, [r2, #-1]!
    1c3c:	e15c0002 	cmp	ip, r2
    1c40:	e5e03001 	strb	r3, [r0, #1]!
    1c44:	1afffffb 	bne	1c38 <itoa.constprop.0+0xb0>
    1c48:	e2855001 	add	r5, r5, #1
    1c4c:	e3a03000 	mov	r3, #0
    1c50:	e08e5005 	add	r5, lr, r5
    1c54:	e1a0000e 	mov	r0, lr
    1c58:	e7c53001 	strb	r3, [r5, r1]
    1c5c:	e28dd028 	add	sp, sp, #40	; 0x28
    1c60:	e8bd8070 	pop	{r4, r5, r6, pc}
    1c64:	e3a03030 	mov	r3, #48	; 0x30
    1c68:	e1a0000e 	mov	r0, lr
    1c6c:	e5cec001 	strb	ip, [lr, #1]
    1c70:	e5ce3000 	strb	r3, [lr]
    1c74:	e28dd028 	add	sp, sp, #40	; 0x28
    1c78:	e8bd8070 	pop	{r4, r5, r6, pc}

00001c7c <printk>:
    1c7c:	e92d000f 	push	{r0, r1, r2, r3}
    1c80:	e92d47f0 	push	{r4, r5, r6, r7, r8, r9, sl, lr}
    1c84:	e24dd018 	sub	sp, sp, #24
    1c88:	e28d303c 	add	r3, sp, #60	; 0x3c
    1c8c:	e3026e70 	movw	r6, #11888	; 0x2e70
    1c90:	e59d4038 	ldr	r4, [sp, #56]	; 0x38
    1c94:	e58d3004 	str	r3, [sp, #4]
    1c98:	e5d43000 	ldrb	r3, [r4]
    1c9c:	e3530000 	cmp	r3, #0
    1ca0:	0a00002f 	beq	1d64 <printk+0xe8>
    1ca4:	e3406000 	movt	r6, #0
    1ca8:	e28d8008 	add	r8, sp, #8
    1cac:	e3a07025 	mov	r7, #37	; 0x25
    1cb0:	e1a05006 	mov	r5, r6
    1cb4:	ea000003 	b	1cc8 <printk+0x4c>
    1cb8:	e5d43001 	ldrb	r3, [r4, #1]
    1cbc:	e2844001 	add	r4, r4, #1
    1cc0:	e3530000 	cmp	r3, #0
    1cc4:	0a000028 	beq	1d6c <printk+0xf0>
    1cc8:	e3530025 	cmp	r3, #37	; 0x25
    1ccc:	15c53000 	strbne	r3, [r5]
    1cd0:	12855001 	addne	r5, r5, #1
    1cd4:	1afffff7 	bne	1cb8 <printk+0x3c>
    1cd8:	e5d49001 	ldrb	r9, [r4, #1]
    1cdc:	e2493031 	sub	r3, r9, #49	; 0x31
    1ce0:	e3530008 	cmp	r3, #8
    1ce4:	82844001 	addhi	r4, r4, #1
    1ce8:	92499030 	subls	r9, r9, #48	; 0x30
    1cec:	95d43002 	ldrbls	r3, [r4, #2]
    1cf0:	81a03009 	movhi	r3, r9
    1cf4:	92844002 	addls	r4, r4, #2
    1cf8:	83a09000 	movhi	r9, #0
    1cfc:	e2433063 	sub	r3, r3, #99	; 0x63
    1d00:	e3530015 	cmp	r3, #21
    1d04:	979ff103 	ldrls	pc, [pc, r3, lsl #2]
    1d08:	ea00008e 	b	1f48 <printk+0x2cc>
    1d0c:	00001f30 	andeq	r1, r0, r0, lsr pc
    1d10:	00001ec4 	andeq	r1, r0, r4, asr #29
    1d14:	00001f48 	andeq	r1, r0, r8, asr #30
    1d18:	00001f48 	andeq	r1, r0, r8, asr #30
    1d1c:	00001f48 	andeq	r1, r0, r8, asr #30
    1d20:	00001f48 	andeq	r1, r0, r8, asr #30
    1d24:	00001f48 	andeq	r1, r0, r8, asr #30
    1d28:	00001f48 	andeq	r1, r0, r8, asr #30
    1d2c:	00001f48 	andeq	r1, r0, r8, asr #30
    1d30:	00001f48 	andeq	r1, r0, r8, asr #30
    1d34:	00001f48 	andeq	r1, r0, r8, asr #30
    1d38:	00001f48 	andeq	r1, r0, r8, asr #30
    1d3c:	00001f48 	andeq	r1, r0, r8, asr #30
    1d40:	00001e54 	andeq	r1, r0, r4, asr lr
    1d44:	00001f48 	andeq	r1, r0, r8, asr #30
    1d48:	00001f48 	andeq	r1, r0, r8, asr #30
    1d4c:	00001e04 	andeq	r1, r0, r4, lsl #28
    1d50:	00001f48 	andeq	r1, r0, r8, asr #30
    1d54:	00001d94 	muleq	r0, r4, sp
    1d58:	00001f48 	andeq	r1, r0, r8, asr #30
    1d5c:	00001f48 	andeq	r1, r0, r8, asr #30
    1d60:	00001e54 	andeq	r1, r0, r4, asr lr
    1d64:	e3406000 	movt	r6, #0
    1d68:	e1a05006 	mov	r5, r6
    1d6c:	e3020e70 	movw	r0, #11888	; 0x2e70
    1d70:	e3a03000 	mov	r3, #0
    1d74:	e3400000 	movt	r0, #0
    1d78:	e4c53001 	strb	r3, [r5], #1
    1d7c:	ebfffed9 	bl	18e8 <serial_puts>
    1d80:	e0660005 	rsb	r0, r6, r5
    1d84:	e28dd018 	add	sp, sp, #24
    1d88:	e8bd47f0 	pop	{r4, r5, r6, r7, r8, r9, sl, lr}
    1d8c:	e28dd010 	add	sp, sp, #16
    1d90:	e12fff1e 	bx	lr
    1d94:	e59d3004 	ldr	r3, [sp, #4]
    1d98:	e3a0200a 	mov	r2, #10
    1d9c:	e1a01008 	mov	r1, r8
    1da0:	e2830004 	add	r0, r3, #4
    1da4:	e58d0004 	str	r0, [sp, #4]
    1da8:	e5930000 	ldr	r0, [r3]
    1dac:	ebffff1c 	bl	1a24 <utoa>
    1db0:	e5dd3008 	ldrb	r3, [sp, #8]
    1db4:	e3530000 	cmp	r3, #0
    1db8:	0a00006a 	beq	1f68 <printk+0x2ec>
    1dbc:	e1a03008 	mov	r3, r8
    1dc0:	e5f32001 	ldrb	r2, [r3, #1]!
    1dc4:	e3520000 	cmp	r2, #0
    1dc8:	1afffffc 	bne	1dc0 <printk+0x144>
    1dcc:	e068a003 	rsb	sl, r8, r3
    1dd0:	e1a02009 	mov	r2, r9
    1dd4:	e1a0100a 	mov	r1, sl
    1dd8:	e1a00008 	mov	r0, r8
    1ddc:	ebffff43 	bl	1af0 <print_align>
    1de0:	e2451001 	sub	r1, r5, #1
    1de4:	e1a02008 	mov	r2, r8
    1de8:	e080000a 	add	r0, r0, sl
    1dec:	e4d23001 	ldrb	r3, [r2], #1
    1df0:	e3530000 	cmp	r3, #0
    1df4:	e5e13001 	strb	r3, [r1, #1]!
    1df8:	1afffffb 	bne	1dec <printk+0x170>
    1dfc:	e0855000 	add	r5, r5, r0
    1e00:	eaffffac 	b	1cb8 <printk+0x3c>
    1e04:	e59d3004 	ldr	r3, [sp, #4]
    1e08:	e2451001 	sub	r1, r5, #1
    1e0c:	e2832004 	add	r2, r3, #4
    1e10:	e58d2004 	str	r2, [sp, #4]
    1e14:	e5930000 	ldr	r0, [r3]
    1e18:	e1a02000 	mov	r2, r0
    1e1c:	e4d23001 	ldrb	r3, [r2], #1
    1e20:	e3530000 	cmp	r3, #0
    1e24:	e5e13001 	strb	r3, [r1, #1]!
    1e28:	1afffffb 	bne	1e1c <printk+0x1a0>
    1e2c:	e5d03000 	ldrb	r3, [r0]
    1e30:	e3530000 	cmp	r3, #0
    1e34:	e1a03000 	mov	r3, r0
    1e38:	0a000002 	beq	1e48 <printk+0x1cc>
    1e3c:	e5f32001 	ldrb	r2, [r3, #1]!
    1e40:	e3520000 	cmp	r2, #0
    1e44:	1afffffc 	bne	1e3c <printk+0x1c0>
    1e48:	e0603003 	rsb	r3, r0, r3
    1e4c:	e0855003 	add	r5, r5, r3
    1e50:	eaffff98 	b	1cb8 <printk+0x3c>
    1e54:	e59d3004 	ldr	r3, [sp, #4]
    1e58:	e3a02010 	mov	r2, #16
    1e5c:	e1a01008 	mov	r1, r8
    1e60:	e2830004 	add	r0, r3, #4
    1e64:	e58d0004 	str	r0, [sp, #4]
    1e68:	e5930000 	ldr	r0, [r3]
    1e6c:	ebfffeec 	bl	1a24 <utoa>
    1e70:	e5dd3008 	ldrb	r3, [sp, #8]
    1e74:	e3530000 	cmp	r3, #0
    1e78:	0a00003c 	beq	1f70 <printk+0x2f4>
    1e7c:	e1a03008 	mov	r3, r8
    1e80:	e5f32001 	ldrb	r2, [r3, #1]!
    1e84:	e3520000 	cmp	r2, #0
    1e88:	1afffffc 	bne	1e80 <printk+0x204>
    1e8c:	e068a003 	rsb	sl, r8, r3
    1e90:	e1a02009 	mov	r2, r9
    1e94:	e1a0100a 	mov	r1, sl
    1e98:	e1a00008 	mov	r0, r8
    1e9c:	ebffff13 	bl	1af0 <print_align>
    1ea0:	e2451001 	sub	r1, r5, #1
    1ea4:	e1a02008 	mov	r2, r8
    1ea8:	e080000a 	add	r0, r0, sl
    1eac:	e4d23001 	ldrb	r3, [r2], #1
    1eb0:	e3530000 	cmp	r3, #0
    1eb4:	e5e13001 	strb	r3, [r1, #1]!
    1eb8:	1afffffb 	bne	1eac <printk+0x230>
    1ebc:	e0855000 	add	r5, r5, r0
    1ec0:	eaffff7c 	b	1cb8 <printk+0x3c>
    1ec4:	e59d3004 	ldr	r3, [sp, #4]
    1ec8:	e1a01008 	mov	r1, r8
    1ecc:	e2832004 	add	r2, r3, #4
    1ed0:	e58d2004 	str	r2, [sp, #4]
    1ed4:	e5930000 	ldr	r0, [r3]
    1ed8:	ebffff2a 	bl	1b88 <itoa.constprop.0>
    1edc:	e5dd3008 	ldrb	r3, [sp, #8]
    1ee0:	e3530000 	cmp	r3, #0
    1ee4:	0a00001d 	beq	1f60 <printk+0x2e4>
    1ee8:	e1a03008 	mov	r3, r8
    1eec:	e5f32001 	ldrb	r2, [r3, #1]!
    1ef0:	e3520000 	cmp	r2, #0
    1ef4:	1afffffc 	bne	1eec <printk+0x270>
    1ef8:	e068a003 	rsb	sl, r8, r3
    1efc:	e1a02009 	mov	r2, r9
    1f00:	e1a0100a 	mov	r1, sl
    1f04:	e1a00008 	mov	r0, r8
    1f08:	ebfffef8 	bl	1af0 <print_align>
    1f0c:	e2451001 	sub	r1, r5, #1
    1f10:	e1a02008 	mov	r2, r8
    1f14:	e080000a 	add	r0, r0, sl
    1f18:	e4d23001 	ldrb	r3, [r2], #1
    1f1c:	e3530000 	cmp	r3, #0
    1f20:	e5e13001 	strb	r3, [r1, #1]!
    1f24:	1afffffb 	bne	1f18 <printk+0x29c>
    1f28:	e0855000 	add	r5, r5, r0
    1f2c:	eaffff61 	b	1cb8 <printk+0x3c>
    1f30:	e59d3004 	ldr	r3, [sp, #4]
    1f34:	e2832004 	add	r2, r3, #4
    1f38:	e58d2004 	str	r2, [sp, #4]
    1f3c:	e5933000 	ldr	r3, [r3]
    1f40:	e5c53000 	strb	r3, [r5]
    1f44:	eaffff5b 	b	1cb8 <printk+0x3c>
    1f48:	e1a03005 	mov	r3, r5
    1f4c:	e4c37002 	strb	r7, [r3], #2
    1f50:	e5d42000 	ldrb	r2, [r4]
    1f54:	e5c52001 	strb	r2, [r5, #1]
    1f58:	e1a05003 	mov	r5, r3
    1f5c:	eaffff55 	b	1cb8 <printk+0x3c>
    1f60:	e1a0a003 	mov	sl, r3
    1f64:	eaffffe4 	b	1efc <printk+0x280>
    1f68:	e1a0a003 	mov	sl, r3
    1f6c:	eaffff97 	b	1dd0 <printk+0x154>
    1f70:	e1a0a003 	mov	sl, r3
    1f74:	eaffffc5 	b	1e90 <printk+0x214>

00001f78 <printk_nommu>:
    1f78:	e92d000f 	push	{r0, r1, r2, r3}
    1f7c:	e92d47f0 	push	{r4, r5, r6, r7, r8, r9, sl, lr}
    1f80:	e24dd018 	sub	sp, sp, #24
    1f84:	e28d303c 	add	r3, sp, #60	; 0x3c
    1f88:	e3026e70 	movw	r6, #11888	; 0x2e70
    1f8c:	e59d4038 	ldr	r4, [sp, #56]	; 0x38
    1f90:	e58d3004 	str	r3, [sp, #4]
    1f94:	e5d43000 	ldrb	r3, [r4]
    1f98:	e3530000 	cmp	r3, #0
    1f9c:	0a00002f 	beq	2060 <printk_nommu+0xe8>
    1fa0:	e3406000 	movt	r6, #0
    1fa4:	e28d8008 	add	r8, sp, #8
    1fa8:	e3a07025 	mov	r7, #37	; 0x25
    1fac:	e1a05006 	mov	r5, r6
    1fb0:	ea000003 	b	1fc4 <printk_nommu+0x4c>
    1fb4:	e5d43001 	ldrb	r3, [r4, #1]
    1fb8:	e2844001 	add	r4, r4, #1
    1fbc:	e3530000 	cmp	r3, #0
    1fc0:	0a000028 	beq	2068 <printk_nommu+0xf0>
    1fc4:	e3530025 	cmp	r3, #37	; 0x25
    1fc8:	15c53000 	strbne	r3, [r5]
    1fcc:	12855001 	addne	r5, r5, #1
    1fd0:	1afffff7 	bne	1fb4 <printk_nommu+0x3c>
    1fd4:	e5d49001 	ldrb	r9, [r4, #1]
    1fd8:	e2493031 	sub	r3, r9, #49	; 0x31
    1fdc:	e3530008 	cmp	r3, #8
    1fe0:	82844001 	addhi	r4, r4, #1
    1fe4:	92499030 	subls	r9, r9, #48	; 0x30
    1fe8:	95d43002 	ldrbls	r3, [r4, #2]
    1fec:	81a03009 	movhi	r3, r9
    1ff0:	92844002 	addls	r4, r4, #2
    1ff4:	83a09000 	movhi	r9, #0
    1ff8:	e2433063 	sub	r3, r3, #99	; 0x63
    1ffc:	e3530015 	cmp	r3, #21
    2000:	979ff103 	ldrls	pc, [pc, r3, lsl #2]
    2004:	ea00008e 	b	2244 <printk_nommu+0x2cc>
    2008:	0000222c 	andeq	r2, r0, ip, lsr #4
    200c:	000021c0 	andeq	r2, r0, r0, asr #3
    2010:	00002244 	andeq	r2, r0, r4, asr #4
    2014:	00002244 	andeq	r2, r0, r4, asr #4
    2018:	00002244 	andeq	r2, r0, r4, asr #4
    201c:	00002244 	andeq	r2, r0, r4, asr #4
    2020:	00002244 	andeq	r2, r0, r4, asr #4
    2024:	00002244 	andeq	r2, r0, r4, asr #4
    2028:	00002244 	andeq	r2, r0, r4, asr #4
    202c:	00002244 	andeq	r2, r0, r4, asr #4
    2030:	00002244 	andeq	r2, r0, r4, asr #4
    2034:	00002244 	andeq	r2, r0, r4, asr #4
    2038:	00002244 	andeq	r2, r0, r4, asr #4
    203c:	00002150 	andeq	r2, r0, r0, asr r1
    2040:	00002244 	andeq	r2, r0, r4, asr #4
    2044:	00002244 	andeq	r2, r0, r4, asr #4
    2048:	00002100 	andeq	r2, r0, r0, lsl #2
    204c:	00002244 	andeq	r2, r0, r4, asr #4
    2050:	00002090 	muleq	r0, r0, r0
    2054:	00002244 	andeq	r2, r0, r4, asr #4
    2058:	00002244 	andeq	r2, r0, r4, asr #4
    205c:	00002150 	andeq	r2, r0, r0, asr r1
    2060:	e3406000 	movt	r6, #0
    2064:	e1a05006 	mov	r5, r6
    2068:	e3020e70 	movw	r0, #11888	; 0x2e70
    206c:	e3a03000 	mov	r3, #0
    2070:	e3400000 	movt	r0, #0
    2074:	e4c53001 	strb	r3, [r5], #1
    2078:	ebfffd97 	bl	16dc <serial_puts_nommu>
    207c:	e0660005 	rsb	r0, r6, r5
    2080:	e28dd018 	add	sp, sp, #24
    2084:	e8bd47f0 	pop	{r4, r5, r6, r7, r8, r9, sl, lr}
    2088:	e28dd010 	add	sp, sp, #16
    208c:	e12fff1e 	bx	lr
    2090:	e59d3004 	ldr	r3, [sp, #4]
    2094:	e3a0200a 	mov	r2, #10
    2098:	e1a01008 	mov	r1, r8
    209c:	e2830004 	add	r0, r3, #4
    20a0:	e58d0004 	str	r0, [sp, #4]
    20a4:	e5930000 	ldr	r0, [r3]
    20a8:	ebfffe5d 	bl	1a24 <utoa>
    20ac:	e5dd3008 	ldrb	r3, [sp, #8]
    20b0:	e3530000 	cmp	r3, #0
    20b4:	0a00006a 	beq	2264 <printk_nommu+0x2ec>
    20b8:	e1a03008 	mov	r3, r8
    20bc:	e5f32001 	ldrb	r2, [r3, #1]!
    20c0:	e3520000 	cmp	r2, #0
    20c4:	1afffffc 	bne	20bc <printk_nommu+0x144>
    20c8:	e068a003 	rsb	sl, r8, r3
    20cc:	e1a02009 	mov	r2, r9
    20d0:	e1a0100a 	mov	r1, sl
    20d4:	e1a00008 	mov	r0, r8
    20d8:	ebfffe84 	bl	1af0 <print_align>
    20dc:	e2451001 	sub	r1, r5, #1
    20e0:	e1a02008 	mov	r2, r8
    20e4:	e080000a 	add	r0, r0, sl
    20e8:	e4d23001 	ldrb	r3, [r2], #1
    20ec:	e3530000 	cmp	r3, #0
    20f0:	e5e13001 	strb	r3, [r1, #1]!
    20f4:	1afffffb 	bne	20e8 <printk_nommu+0x170>
    20f8:	e0855000 	add	r5, r5, r0
    20fc:	eaffffac 	b	1fb4 <printk_nommu+0x3c>
    2100:	e59d3004 	ldr	r3, [sp, #4]
    2104:	e2451001 	sub	r1, r5, #1
    2108:	e2832004 	add	r2, r3, #4
    210c:	e58d2004 	str	r2, [sp, #4]
    2110:	e5930000 	ldr	r0, [r3]
    2114:	e1a02000 	mov	r2, r0
    2118:	e4d23001 	ldrb	r3, [r2], #1
    211c:	e3530000 	cmp	r3, #0
    2120:	e5e13001 	strb	r3, [r1, #1]!
    2124:	1afffffb 	bne	2118 <printk_nommu+0x1a0>
    2128:	e5d03000 	ldrb	r3, [r0]
    212c:	e3530000 	cmp	r3, #0
    2130:	e1a03000 	mov	r3, r0
    2134:	0a000002 	beq	2144 <printk_nommu+0x1cc>
    2138:	e5f32001 	ldrb	r2, [r3, #1]!
    213c:	e3520000 	cmp	r2, #0
    2140:	1afffffc 	bne	2138 <printk_nommu+0x1c0>
    2144:	e0603003 	rsb	r3, r0, r3
    2148:	e0855003 	add	r5, r5, r3
    214c:	eaffff98 	b	1fb4 <printk_nommu+0x3c>
    2150:	e59d3004 	ldr	r3, [sp, #4]
    2154:	e3a02010 	mov	r2, #16
    2158:	e1a01008 	mov	r1, r8
    215c:	e2830004 	add	r0, r3, #4
    2160:	e58d0004 	str	r0, [sp, #4]
    2164:	e5930000 	ldr	r0, [r3]
    2168:	ebfffe2d 	bl	1a24 <utoa>
    216c:	e5dd3008 	ldrb	r3, [sp, #8]
    2170:	e3530000 	cmp	r3, #0
    2174:	0a00003c 	beq	226c <printk_nommu+0x2f4>
    2178:	e1a03008 	mov	r3, r8
    217c:	e5f32001 	ldrb	r2, [r3, #1]!
    2180:	e3520000 	cmp	r2, #0
    2184:	1afffffc 	bne	217c <printk_nommu+0x204>
    2188:	e068a003 	rsb	sl, r8, r3
    218c:	e1a02009 	mov	r2, r9
    2190:	e1a0100a 	mov	r1, sl
    2194:	e1a00008 	mov	r0, r8
    2198:	ebfffe54 	bl	1af0 <print_align>
    219c:	e2451001 	sub	r1, r5, #1
    21a0:	e1a02008 	mov	r2, r8
    21a4:	e080000a 	add	r0, r0, sl
    21a8:	e4d23001 	ldrb	r3, [r2], #1
    21ac:	e3530000 	cmp	r3, #0
    21b0:	e5e13001 	strb	r3, [r1, #1]!
    21b4:	1afffffb 	bne	21a8 <printk_nommu+0x230>
    21b8:	e0855000 	add	r5, r5, r0
    21bc:	eaffff7c 	b	1fb4 <printk_nommu+0x3c>
    21c0:	e59d3004 	ldr	r3, [sp, #4]
    21c4:	e1a01008 	mov	r1, r8
    21c8:	e2832004 	add	r2, r3, #4
    21cc:	e58d2004 	str	r2, [sp, #4]
    21d0:	e5930000 	ldr	r0, [r3]
    21d4:	ebfffe6b 	bl	1b88 <itoa.constprop.0>
    21d8:	e5dd3008 	ldrb	r3, [sp, #8]
    21dc:	e3530000 	cmp	r3, #0
    21e0:	0a00001d 	beq	225c <printk_nommu+0x2e4>
    21e4:	e1a03008 	mov	r3, r8
    21e8:	e5f32001 	ldrb	r2, [r3, #1]!
    21ec:	e3520000 	cmp	r2, #0
    21f0:	1afffffc 	bne	21e8 <printk_nommu+0x270>
    21f4:	e068a003 	rsb	sl, r8, r3
    21f8:	e1a02009 	mov	r2, r9
    21fc:	e1a0100a 	mov	r1, sl
    2200:	e1a00008 	mov	r0, r8
    2204:	ebfffe39 	bl	1af0 <print_align>
    2208:	e2451001 	sub	r1, r5, #1
    220c:	e1a02008 	mov	r2, r8
    2210:	e080000a 	add	r0, r0, sl
    2214:	e4d23001 	ldrb	r3, [r2], #1
    2218:	e3530000 	cmp	r3, #0
    221c:	e5e13001 	strb	r3, [r1, #1]!
    2220:	1afffffb 	bne	2214 <printk_nommu+0x29c>
    2224:	e0855000 	add	r5, r5, r0
    2228:	eaffff61 	b	1fb4 <printk_nommu+0x3c>
    222c:	e59d3004 	ldr	r3, [sp, #4]
    2230:	e2832004 	add	r2, r3, #4
    2234:	e58d2004 	str	r2, [sp, #4]
    2238:	e5933000 	ldr	r3, [r3]
    223c:	e5c53000 	strb	r3, [r5]
    2240:	eaffff5b 	b	1fb4 <printk_nommu+0x3c>
    2244:	e1a03005 	mov	r3, r5
    2248:	e4c37002 	strb	r7, [r3], #2
    224c:	e5d42000 	ldrb	r2, [r4]
    2250:	e5c52001 	strb	r2, [r5, #1]
    2254:	e1a05003 	mov	r5, r3
    2258:	eaffff55 	b	1fb4 <printk_nommu+0x3c>
    225c:	e1a0a003 	mov	sl, r3
    2260:	eaffffe4 	b	21f8 <printk_nommu+0x280>
    2264:	e1a0a003 	mov	sl, r3
    2268:	eaffff97 	b	20cc <printk_nommu+0x154>
    226c:	e1a0a003 	mov	sl, r3
    2270:	eaffffc5 	b	218c <printk_nommu+0x214>

00002274 <standby_delay>:
    2274:	e92d000f 	push	{r0, r1, r2, r3}
    2278:	e3a01011 	mov	r1, #17
    227c:	e1a03000 	mov	r3, r0

00002280 <standby_delay_loop2>:
    2280:	e2500001 	subs	r0, r0, #1
    2284:	8afffffd 	bhi	2280 <standby_delay_loop2>
    2288:	e1a00003 	mov	r0, r3
    228c:	e2511001 	subs	r1, r1, #1
    2290:	8afffffa 	bhi	2280 <standby_delay_loop2>
    2294:	e8bd000f 	pop	{r0, r1, r2, r3}
    2298:	e1a0f00e 	mov	pc, lr

0000229c <standby_delay_cycle>:
    229c:	e2500001 	subs	r0, r0, #1
    22a0:	8afffffd 	bhi	229c <standby_delay_cycle>
    22a4:	e1a0f00e 	mov	pc, lr

000022a8 <Ldiv0>:
    22a8:	e52de008 	str	lr, [sp, #-8]!
    22ac:	eb000067 	bl	2450 <__mem_div0>
    22b0:	e3a00000 	mov	r0, #0
    22b4:	e49df008 	ldr	pc, [sp], #8

000022b8 <__aeabi_uidiv>:
    22b8:	e2512001 	subs	r2, r1, #1
    22bc:	01a0f00e 	moveq	pc, lr
    22c0:	3afffff8 	bcc	22a8 <Ldiv0>
    22c4:	e1500001 	cmp	r0, r1
    22c8:	9a00001a 	bls	2338 <__aeabi_uidiv+0x80>
    22cc:	e1110002 	tst	r1, r2
    22d0:	0a00001b 	beq	2344 <__aeabi_uidiv+0x8c>
    22d4:	e16f3f11 	clz	r3, r1
    22d8:	e16f2f10 	clz	r2, r0
    22dc:	e0432002 	sub	r2, r3, r2
    22e0:	e3a03001 	mov	r3, #1
    22e4:	e1a01211 	lsl	r1, r1, r2
    22e8:	e1a03213 	lsl	r3, r3, r2
    22ec:	e3a02000 	mov	r2, #0
    22f0:	e1500001 	cmp	r0, r1
    22f4:	20400001 	subcs	r0, r0, r1
    22f8:	21822003 	orrcs	r2, r2, r3
    22fc:	e15000a1 	cmp	r0, r1, lsr #1
    2300:	204000a1 	subcs	r0, r0, r1, lsr #1
    2304:	218220a3 	orrcs	r2, r2, r3, lsr #1
    2308:	e1500121 	cmp	r0, r1, lsr #2
    230c:	20400121 	subcs	r0, r0, r1, lsr #2
    2310:	21822123 	orrcs	r2, r2, r3, lsr #2
    2314:	e15001a1 	cmp	r0, r1, lsr #3
    2318:	204001a1 	subcs	r0, r0, r1, lsr #3
    231c:	218221a3 	orrcs	r2, r2, r3, lsr #3
    2320:	e3500000 	cmp	r0, #0
    2324:	11b03223 	lsrsne	r3, r3, #4
    2328:	11a01221 	lsrne	r1, r1, #4
    232c:	1affffef 	bne	22f0 <__aeabi_uidiv+0x38>
    2330:	e1a00002 	mov	r0, r2
    2334:	e1a0f00e 	mov	pc, lr
    2338:	03a00001 	moveq	r0, #1
    233c:	13a00000 	movne	r0, #0
    2340:	e1a0f00e 	mov	pc, lr
    2344:	e16f2f11 	clz	r2, r1
    2348:	e262201f 	rsb	r2, r2, #31
    234c:	e1a00230 	lsr	r0, r0, r2
    2350:	e1a0f00e 	mov	pc, lr

00002354 <__aeabi_idiv>:
    2354:	e3510000 	cmp	r1, #0
    2358:	e020c001 	eor	ip, r0, r1
    235c:	0affffd1 	beq	22a8 <Ldiv0>
    2360:	42611000 	rsbmi	r1, r1, #0
    2364:	e2512001 	subs	r2, r1, #1
    2368:	0a00001f 	beq	23ec <__aeabi_idiv+0x98>
    236c:	e1b03000 	movs	r3, r0
    2370:	42603000 	rsbmi	r3, r0, #0
    2374:	e1530001 	cmp	r3, r1
    2378:	9a00001e 	bls	23f8 <__aeabi_idiv+0xa4>
    237c:	e1110002 	tst	r1, r2
    2380:	0a000020 	beq	2408 <__aeabi_idiv+0xb4>
    2384:	e16f2f11 	clz	r2, r1
    2388:	e16f0f13 	clz	r0, r3
    238c:	e0420000 	sub	r0, r2, r0
    2390:	e3a02001 	mov	r2, #1
    2394:	e1a01011 	lsl	r1, r1, r0
    2398:	e1a02012 	lsl	r2, r2, r0
    239c:	e3a00000 	mov	r0, #0
    23a0:	e1530001 	cmp	r3, r1
    23a4:	20433001 	subcs	r3, r3, r1
    23a8:	21800002 	orrcs	r0, r0, r2
    23ac:	e15300a1 	cmp	r3, r1, lsr #1
    23b0:	204330a1 	subcs	r3, r3, r1, lsr #1
    23b4:	218000a2 	orrcs	r0, r0, r2, lsr #1
    23b8:	e1530121 	cmp	r3, r1, lsr #2
    23bc:	20433121 	subcs	r3, r3, r1, lsr #2
    23c0:	21800122 	orrcs	r0, r0, r2, lsr #2
    23c4:	e15301a1 	cmp	r3, r1, lsr #3
    23c8:	204331a1 	subcs	r3, r3, r1, lsr #3
    23cc:	218001a2 	orrcs	r0, r0, r2, lsr #3
    23d0:	e3530000 	cmp	r3, #0
    23d4:	11b02222 	lsrsne	r2, r2, #4
    23d8:	11a01221 	lsrne	r1, r1, #4
    23dc:	1affffef 	bne	23a0 <__aeabi_idiv+0x4c>
    23e0:	e35c0000 	cmp	ip, #0
    23e4:	42600000 	rsbmi	r0, r0, #0
    23e8:	e1a0f00e 	mov	pc, lr
    23ec:	e13c0000 	teq	ip, r0
    23f0:	42600000 	rsbmi	r0, r0, #0
    23f4:	e1a0f00e 	mov	pc, lr
    23f8:	33a00000 	movcc	r0, #0
    23fc:	01a00fcc 	asreq	r0, ip, #31
    2400:	03800001 	orreq	r0, r0, #1
    2404:	e1a0f00e 	mov	pc, lr
    2408:	e16f2f11 	clz	r2, r1
    240c:	e262201f 	rsb	r2, r2, #31
    2410:	e35c0000 	cmp	ip, #0
    2414:	e1a00233 	lsr	r0, r3, r2
    2418:	42600000 	rsbmi	r0, r0, #0
    241c:	e1a0f00e 	mov	pc, lr

00002420 <__aeabi_uidivmod>:
    2420:	e92d5003 	push	{r0, r1, ip, lr}
    2424:	ebffffa3 	bl	22b8 <__aeabi_uidiv>
    2428:	e8bd5006 	pop	{r1, r2, ip, lr}
    242c:	e0030290 	mul	r3, r0, r2
    2430:	e0411003 	sub	r1, r1, r3
    2434:	e1a0f00e 	mov	pc, lr

00002438 <__aeabi_idivmod>:
    2438:	e92d5003 	push	{r0, r1, ip, lr}
    243c:	ebffffc4 	bl	2354 <__aeabi_idiv>
    2440:	e8bd5006 	pop	{r1, r2, ip, lr}
    2444:	e0030290 	mul	r3, r0, r2
    2448:	e0411003 	sub	r1, r1, r3
    244c:	e1a0f00e 	mov	pc, lr

00002450 <__mem_div0>:
    2450:	e3020d70 	movw	r0, #11632	; 0x2d70
    2454:	e3400000 	movt	r0, #0
    2458:	eafffe07 	b	1c7c <printk>

0000245c <raw_lib_udiv>:
    245c:	e3510000 	cmp	r1, #0
    2460:	0a000010 	beq	24a8 <raw_lib_udiv+0x4c>
    2464:	e3a03000 	mov	r3, #0
    2468:	ba000002 	blt	2478 <raw_lib_udiv+0x1c>
    246c:	e1b01081 	lsls	r1, r1, #1
    2470:	e2833001 	add	r3, r3, #1
    2474:	5afffffc 	bpl	246c <raw_lib_udiv+0x10>
    2478:	e3a02000 	mov	r2, #0
    247c:	e1500001 	cmp	r0, r1
    2480:	e1a0c082 	lsl	ip, r2, #1
    2484:	e2433001 	sub	r3, r3, #1
    2488:	20610000 	rsbcs	r0, r1, r0
    248c:	238c2001 	orrcs	r2, ip, #1
    2490:	31a02082 	lslcc	r2, r2, #1
    2494:	e3730001 	cmn	r3, #1
    2498:	e1a010a1 	lsr	r1, r1, #1
    249c:	1afffff6 	bne	247c <raw_lib_udiv+0x20>
    24a0:	e1a00002 	mov	r0, r2
    24a4:	e12fff1e 	bx	lr
    24a8:	e1a00001 	mov	r0, r1
    24ac:	e12fff1e 	bx	lr

000024b0 <mem_int_init>:
    24b0:	e3020f70 	movw	r0, #12144	; 0x2f70
    24b4:	e3013184 	movw	r3, #4484	; 0x1184
    24b8:	e3a02d47 	mov	r2, #4544	; 0x11c0
    24bc:	e3400000 	movt	r0, #0
    24c0:	e3a0ca01 	mov	ip, #4096	; 0x1000
    24c4:	e34f31c8 	movt	r3, #61896	; 0xf1c8
    24c8:	e34f21c8 	movt	r2, #61896	; 0xf1c8
    24cc:	e3e01000 	mvn	r1, #0
    24d0:	e34fc1c8 	movt	ip, #61896	; 0xf1c8
    24d4:	e580c000 	str	ip, [r0]
    24d8:	e4831004 	str	r1, [r3], #4
    24dc:	e1530002 	cmp	r3, r2
    24e0:	1afffffc 	bne	24d8 <mem_int_init+0x28>
    24e4:	e3013284 	movw	r3, #4740	; 0x1284
    24e8:	e3a02d4b 	mov	r2, #4800	; 0x12c0
    24ec:	e34f31c8 	movt	r3, #61896	; 0xf1c8
    24f0:	e34f21c8 	movt	r2, #61896	; 0xf1c8
    24f4:	e3e01000 	mvn	r1, #0
    24f8:	e4831004 	str	r1, [r3], #4
    24fc:	e1530002 	cmp	r3, r2
    2500:	1afffffc 	bne	24f8 <mem_int_init+0x48>
    2504:	e3a03a02 	mov	r3, #8192	; 0x2000
    2508:	e30023ff 	movw	r2, #1023	; 0x3ff
    250c:	e34f31c8 	movt	r3, #61896	; 0xf1c8
    2510:	e593100c 	ldr	r1, [r3, #12]
    2514:	e1510002 	cmp	r1, r2
    2518:	0a000006 	beq	2538 <mem_int_init+0x88>
    251c:	e3020d8c 	movw	r0, #11660	; 0x2d8c
    2520:	e92d4010 	push	{r4, lr}
    2524:	e3400000 	movt	r0, #0
    2528:	e5831010 	str	r1, [r3, #16]
    252c:	ebfffdd2 	bl	1c7c <printk>
    2530:	e3a00000 	mov	r0, #0
    2534:	e8bd8010 	pop	{r4, pc}
    2538:	e3a00000 	mov	r0, #0
    253c:	e12fff1e 	bx	lr

00002540 <mem_int_exit>:
    2540:	e3023f70 	movw	r3, #12144	; 0x2f70
    2544:	e24dd008 	sub	sp, sp, #8
    2548:	e3403000 	movt	r3, #0
    254c:	e3a02000 	mov	r2, #0
    2550:	e5930000 	ldr	r0, [r3]
    2554:	e58d2004 	str	r2, [sp, #4]
    2558:	e2803c01 	add	r3, r0, #256	; 0x100
    255c:	e2800d05 	add	r0, r0, #320	; 0x140
    2560:	e5932000 	ldr	r2, [r3]
    2564:	e2833004 	add	r3, r3, #4
    2568:	e58d2004 	str	r2, [sp, #4]
    256c:	e59d1004 	ldr	r1, [sp, #4]
    2570:	e593217c 	ldr	r2, [r3, #380]	; 0x17c
    2574:	e1c22001 	bic	r2, r2, r1
    2578:	e583217c 	str	r2, [r3, #380]	; 0x17c
    257c:	e1530000 	cmp	r3, r0
    2580:	1afffff6 	bne	2560 <mem_int_exit+0x20>
    2584:	e3a00000 	mov	r0, #0
    2588:	e28dd008 	add	sp, sp, #8
    258c:	e12fff1e 	bx	lr

00002590 <mem_enable_int>:
    2590:	e3500000 	cmp	r0, #0
    2594:	e1a012a0 	lsr	r1, r0, #5
    2598:	e3022f70 	movw	r2, #12144	; 0x2f70
    259c:	e3a0ca01 	mov	ip, #4096	; 0x1000
    25a0:	e3402000 	movt	r2, #0
    25a4:	e34fc1c8 	movt	ip, #61896	; 0xf1c8
    25a8:	11a01101 	lslne	r1, r1, #2
    25ac:	e582c000 	str	ip, [r2]
    25b0:	13a02c11 	movne	r2, #4352	; 0x1100
    25b4:	e200301f 	and	r3, r0, #31
    25b8:	134f21c8 	movtne	r2, #61896	; 0xf1c8
    25bc:	10812002 	addne	r2, r1, r2
    25c0:	13a0c001 	movne	ip, #1
    25c4:	13a00000 	movne	r0, #0
    25c8:	15921000 	ldrne	r1, [r2]
    25cc:	03e00000 	mvneq	r0, #0
    25d0:	1181331c 	orrne	r3, r1, ip, lsl r3
    25d4:	15823000 	strne	r3, [r2]
    25d8:	e12fff1e 	bx	lr

000025dc <mem_query_int>:
    25dc:	e3023f70 	movw	r3, #12144	; 0x2f70
    25e0:	e3500000 	cmp	r0, #0
    25e4:	e3403000 	movt	r3, #0
    25e8:	e3a01a01 	mov	r1, #4096	; 0x1000
    25ec:	e1a022a0 	lsr	r2, r0, #5
    25f0:	e34f11c8 	movt	r1, #61896	; 0xf1c8
    25f4:	e200001f 	and	r0, r0, #31
    25f8:	e5831000 	str	r1, [r3]
    25fc:	0a000009 	beq	2628 <mem_query_int+0x4c>
    2600:	e1a02102 	lsl	r2, r2, #2
    2604:	e3a03c12 	mov	r3, #4608	; 0x1200
    2608:	e34f31c8 	movt	r3, #61896	; 0xf1c8
    260c:	e0823003 	add	r3, r2, r3
    2610:	e3a02001 	mov	r2, #1
    2614:	e5933000 	ldr	r3, [r3]
    2618:	e0133012 	ands	r3, r3, r2, lsl r0
    261c:	03e00000 	mvneq	r0, #0
    2620:	13a00000 	movne	r0, #0
    2624:	e12fff1e 	bx	lr
    2628:	e3e00000 	mvn	r0, #0
    262c:	e12fff1e 	bx	lr

00002630 <mem_gpio_save>:
    2630:	e3a03b02 	mov	r3, #2048	; 0x800
    2634:	e3001a5c 	movw	r1, #2652	; 0xa5c
    2638:	e2400004 	sub	r0, r0, #4
    263c:	e34f31c2 	movt	r3, #61890	; 0xf1c2
    2640:	e34f11c2 	movt	r1, #61890	; 0xf1c2
    2644:	e4932004 	ldr	r2, [r3], #4
    2648:	e1530001 	cmp	r3, r1
    264c:	e5a02004 	str	r2, [r0, #4]!
    2650:	1afffffb 	bne	2644 <mem_gpio_save+0x14>
    2654:	e3a00000 	mov	r0, #0
    2658:	e12fff1e 	bx	lr

0000265c <mem_gpio_restore>:
    265c:	e3a03b02 	mov	r3, #2048	; 0x800
    2660:	e3001a5c 	movw	r1, #2652	; 0xa5c
    2664:	e2400004 	sub	r0, r0, #4
    2668:	e34f31c2 	movt	r3, #61890	; 0xf1c2
    266c:	e34f11c2 	movt	r1, #61890	; 0xf1c2
    2670:	e5b02004 	ldr	r2, [r0, #4]!
    2674:	e4832004 	str	r2, [r3], #4
    2678:	e1530001 	cmp	r3, r1
    267c:	1afffffb 	bne	2670 <mem_gpio_restore+0x14>
    2680:	e3a00000 	mov	r0, #0
    2684:	e12fff1e 	bx	lr

00002688 <mem_tmr_save>:
    2688:	e3a03b03 	mov	r3, #3072	; 0xc00
    268c:	e3021f74 	movw	r1, #12148	; 0x2f74
    2690:	e34f31c2 	movt	r3, #61890	; 0xf1c2
    2694:	e1a02000 	mov	r2, r0
    2698:	e593c000 	ldr	ip, [r3]
    269c:	e3401000 	movt	r1, #0
    26a0:	e5813000 	str	r3, [r1]
    26a4:	e3a00000 	mov	r0, #0
    26a8:	e582c000 	str	ip, [r2]
    26ac:	e5931010 	ldr	r1, [r3, #16]
    26b0:	e5821010 	str	r1, [r2, #16]
    26b4:	e5931014 	ldr	r1, [r3, #20]
    26b8:	e5821014 	str	r1, [r2, #20]
    26bc:	e5931018 	ldr	r1, [r3, #24]
    26c0:	e5821018 	str	r1, [r2, #24]
    26c4:	e5931020 	ldr	r1, [r3, #32]
    26c8:	e5821020 	str	r1, [r2, #32]
    26cc:	e5931024 	ldr	r1, [r3, #36]	; 0x24
    26d0:	e5821024 	str	r1, [r2, #36]	; 0x24
    26d4:	e5933028 	ldr	r3, [r3, #40]	; 0x28
    26d8:	e5823028 	str	r3, [r2, #40]	; 0x28
    26dc:	e12fff1e 	bx	lr

000026e0 <mem_tmr_restore>:
    26e0:	e3023f74 	movw	r3, #12148	; 0x2f74
    26e4:	e5901014 	ldr	r1, [r0, #20]
    26e8:	e3403000 	movt	r3, #0
    26ec:	e1a02000 	mov	r2, r0
    26f0:	e5933000 	ldr	r3, [r3]
    26f4:	e3a00000 	mov	r0, #0
    26f8:	e5831014 	str	r1, [r3, #20]
    26fc:	e5921018 	ldr	r1, [r2, #24]
    2700:	e5831018 	str	r1, [r3, #24]
    2704:	e5921010 	ldr	r1, [r2, #16]
    2708:	e5831010 	str	r1, [r3, #16]
    270c:	e5921024 	ldr	r1, [r2, #36]	; 0x24
    2710:	e5831024 	str	r1, [r3, #36]	; 0x24
    2714:	e5921028 	ldr	r1, [r2, #40]	; 0x28
    2718:	e5831028 	str	r1, [r3, #40]	; 0x28
    271c:	e5921020 	ldr	r1, [r2, #32]
    2720:	e5831020 	str	r1, [r3, #32]
    2724:	e5922000 	ldr	r2, [r2]
    2728:	e5832000 	str	r2, [r3]
    272c:	e12fff1e 	bx	lr

00002730 <mem_tmr_init>:
    2730:	e3a02b03 	mov	r2, #3072	; 0xc00
    2734:	e3023f74 	movw	r3, #12148	; 0x2f74
    2738:	e34f21c2 	movt	r2, #61890	; 0xf1c2
    273c:	e3403000 	movt	r3, #0
    2740:	e59210b4 	ldr	r1, [r2, #180]	; 0xb4
    2744:	e3a00000 	mov	r0, #0
    2748:	e5832000 	str	r2, [r3]
    274c:	e5831004 	str	r1, [r3, #4]
    2750:	e59210b8 	ldr	r1, [r2, #184]	; 0xb8
    2754:	e5831008 	str	r1, [r3, #8]
    2758:	e59220a0 	ldr	r2, [r2, #160]	; 0xa0
    275c:	e583200c 	str	r2, [r3, #12]
    2760:	e12fff1e 	bx	lr

00002764 <mem_tmr_exit>:
    2764:	e3023f74 	movw	r3, #12148	; 0x2f74
    2768:	e3a00000 	mov	r0, #0
    276c:	e3403000 	movt	r3, #0
    2770:	e8931004 	ldm	r3, {r2, ip}
    2774:	e5931008 	ldr	r1, [r3, #8]
    2778:	e593300c 	ldr	r3, [r3, #12]
    277c:	e582c0b4 	str	ip, [r2, #180]	; 0xb4
    2780:	e58210b8 	str	r1, [r2, #184]	; 0xb8
    2784:	e58230a0 	str	r3, [r2, #160]	; 0xa0
    2788:	e12fff1e 	bx	lr

0000278c <mem_tmr_enable_watchdog>:
    278c:	e3023f74 	movw	r3, #12148	; 0x2f74
    2790:	e3a010b0 	mov	r1, #176	; 0xb0
    2794:	e3403000 	movt	r3, #0
    2798:	e5933000 	ldr	r3, [r3]
    279c:	e59320b4 	ldr	r2, [r3, #180]	; 0xb4
    27a0:	e3c22003 	bic	r2, r2, #3
    27a4:	e58320b4 	str	r2, [r3, #180]	; 0xb4
    27a8:	e59320b4 	ldr	r2, [r3, #180]	; 0xb4
    27ac:	e3822001 	orr	r2, r2, #1
    27b0:	e58320b4 	str	r2, [r3, #180]	; 0xb4
    27b4:	e58310b8 	str	r1, [r3, #184]	; 0xb8
    27b8:	e59320a0 	ldr	r2, [r3, #160]	; 0xa0
    27bc:	e3822001 	orr	r2, r2, #1
    27c0:	e58320a0 	str	r2, [r3, #160]	; 0xa0
    27c4:	e59320b8 	ldr	r2, [r3, #184]	; 0xb8
    27c8:	e3822001 	orr	r2, r2, #1
    27cc:	e58320b8 	str	r2, [r3, #184]	; 0xb8
    27d0:	e12fff1e 	bx	lr

000027d4 <mem_tmr_disable_watchdog>:
    27d4:	e3023f74 	movw	r3, #12148	; 0x2f74
    27d8:	e3403000 	movt	r3, #0
    27dc:	e5933000 	ldr	r3, [r3]
    27e0:	e59320b4 	ldr	r2, [r3, #180]	; 0xb4
    27e4:	e3c22003 	bic	r2, r2, #3
    27e8:	e58320b4 	str	r2, [r3, #180]	; 0xb4
    27ec:	e59320b4 	ldr	r2, [r3, #180]	; 0xb4
    27f0:	e3822002 	orr	r2, r2, #2
    27f4:	e58320b4 	str	r2, [r3, #180]	; 0xb4
    27f8:	e59320a0 	ldr	r2, [r3, #160]	; 0xa0
    27fc:	e3c22001 	bic	r2, r2, #1
    2800:	e58320a0 	str	r2, [r3, #160]	; 0xa0
    2804:	e59320b8 	ldr	r2, [r3, #184]	; 0xb8
    2808:	e3c22001 	bic	r2, r2, #1
    280c:	e58320b8 	str	r2, [r3, #184]	; 0xb8
    2810:	e12fff1e 	bx	lr

00002814 <mem_tmr_set>:
    2814:	e3023f74 	movw	r3, #12148	; 0x2f74
    2818:	e3a02000 	mov	r2, #0
    281c:	e3403000 	movt	r3, #0
    2820:	e3a01001 	mov	r1, #1
    2824:	e5933000 	ldr	r3, [r3]
    2828:	e3a0c0d0 	mov	ip, #208	; 0xd0
    282c:	e52de004 	push	{lr}		; (str lr, [sp, #-4]!)
    2830:	e1a0e500 	lsl	lr, r0, #10
    2834:	e5831004 	str	r1, [r3, #4]
    2838:	e1a00002 	mov	r0, r2
    283c:	e5831000 	str	r1, [r3]
    2840:	e5832010 	str	r2, [r3, #16]
    2844:	e583e014 	str	lr, [r3, #20]
    2848:	e583c010 	str	ip, [r3, #16]
    284c:	e5932010 	ldr	r2, [r3, #16]
    2850:	e3822002 	orr	r2, r2, #2
    2854:	e5832010 	str	r2, [r3, #16]
    2858:	e5932010 	ldr	r2, [r3, #16]
    285c:	e1822001 	orr	r2, r2, r1
    2860:	e5832010 	str	r2, [r3, #16]
    2864:	e49df004 	pop	{pc}		; (ldr pc, [sp], #4)

00002868 <mem_clk_init>:
    2868:	e3500001 	cmp	r0, #1
    286c:	03a02000 	moveq	r2, #0
    2870:	13a02000 	movne	r2, #0
    2874:	03023f84 	movweq	r3, #12164	; 0x2f84
    2878:	13023f84 	movwne	r3, #12164	; 0x2f84
    287c:	034f21c2 	movteq	r2, #61890	; 0xf1c2
    2880:	134021c2 	movtne	r2, #450	; 0x1c2
    2884:	03403000 	movteq	r3, #0
    2888:	13403000 	movtne	r3, #0
    288c:	e1a00002 	mov	r0, r2
    2890:	e5832000 	str	r2, [r3]
    2894:	e12fff1e 	bx	lr

00002898 <mem_get_ba>:
    2898:	e3023f84 	movw	r3, #12164	; 0x2f84
    289c:	e3403000 	movt	r3, #0
    28a0:	e5930000 	ldr	r0, [r3]
    28a4:	e12fff1e 	bx	lr

000028a8 <mem_clk_save>:
    28a8:	e3a03000 	mov	r3, #0
    28ac:	e3021f84 	movw	r1, #12164	; 0x2f84
    28b0:	e34f31c2 	movt	r3, #61890	; 0xf1c2
    28b4:	e1a02000 	mov	r2, r0
    28b8:	e593c050 	ldr	ip, [r3, #80]	; 0x50
    28bc:	e3401000 	movt	r1, #0
    28c0:	e5803000 	str	r3, [r0]
    28c4:	e3a00000 	mov	r0, #0
    28c8:	e5813000 	str	r3, [r1]
    28cc:	e582c004 	str	ip, [r2, #4]
    28d0:	e5931058 	ldr	r1, [r3, #88]	; 0x58
    28d4:	e5821008 	str	r1, [r2, #8]
    28d8:	e5933054 	ldr	r3, [r3, #84]	; 0x54
    28dc:	e582300c 	str	r3, [r2, #12]
    28e0:	e12fff1e 	bx	lr

000028e4 <mem_clk_restore>:
    28e4:	e5903000 	ldr	r3, [r0]
    28e8:	e3021f84 	movw	r1, #12164	; 0x2f84
    28ec:	e590c004 	ldr	ip, [r0, #4]
    28f0:	e1a02000 	mov	r2, r0
    28f4:	e3401000 	movt	r1, #0
    28f8:	e3a00000 	mov	r0, #0
    28fc:	e5813000 	str	r3, [r1]
    2900:	e583c050 	str	ip, [r3, #80]	; 0x50
    2904:	e5921008 	ldr	r1, [r2, #8]
    2908:	e5831058 	str	r1, [r3, #88]	; 0x58
    290c:	e592200c 	ldr	r2, [r2, #12]
    2910:	e5832054 	str	r2, [r3, #84]	; 0x54
    2914:	e12fff1e 	bx	lr

00002918 <mem_clk_setdiv>:
    2918:	e3500000 	cmp	r0, #0
    291c:	0a00001a 	beq	298c <mem_clk_setdiv+0x74>
    2920:	e92d4070 	push	{r4, r5, r6, lr}
    2924:	e3a03000 	mov	r3, #0
    2928:	e3024f84 	movw	r4, #12164	; 0x2f84
    292c:	e34031c2 	movt	r3, #450	; 0x1c2
    2930:	e3404000 	movt	r4, #0
    2934:	e1a05000 	mov	r5, r0
    2938:	e5843000 	str	r3, [r4]
    293c:	e3a00005 	mov	r0, #5
    2940:	e5932050 	ldr	r2, [r3, #80]	; 0x50
    2944:	e5951000 	ldr	r1, [r5]
    2948:	e5842004 	str	r2, [r4, #4]
    294c:	e7c12011 	bfi	r2, r1, #0, #2
    2950:	e5c42004 	strb	r2, [r4, #4]
    2954:	e5942004 	ldr	r2, [r4, #4]
    2958:	e5832050 	str	r2, [r3, #80]	; 0x50
    295c:	e5952004 	ldr	r2, [r5, #4]
    2960:	e3c22a03 	bic	r2, r2, #12288	; 0x3000
    2964:	e3822a01 	orr	r2, r2, #4096	; 0x1000
    2968:	e5832054 	str	r2, [r3, #84]	; 0x54
    296c:	ebfff729 	bl	618 <delay_us>
    2970:	e5943000 	ldr	r3, [r4]
    2974:	e5952004 	ldr	r2, [r5, #4]
    2978:	e3a00005 	mov	r0, #5
    297c:	e5832054 	str	r2, [r3, #84]	; 0x54
    2980:	ebfff724 	bl	618 <delay_us>
    2984:	e3a00000 	mov	r0, #0
    2988:	e8bd8070 	pop	{r4, r5, r6, pc}
    298c:	e3e00000 	mvn	r0, #0
    2990:	e12fff1e 	bx	lr

00002994 <mem_clk_getdiv>:
    2994:	e2501000 	subs	r1, r0, #0
    2998:	0a00000d 	beq	29d4 <mem_clk_getdiv+0x40>
    299c:	e3022f84 	movw	r2, #12164	; 0x2f84
    29a0:	e3a03000 	mov	r3, #0
    29a4:	e3402000 	movt	r2, #0
    29a8:	e34f31c2 	movt	r3, #61890	; 0xf1c2
    29ac:	e52de004 	push	{lr}		; (str lr, [sp, #-4]!)
    29b0:	e3a00000 	mov	r0, #0
    29b4:	e5823000 	str	r3, [r2]
    29b8:	e593c050 	ldr	ip, [r3, #80]	; 0x50
    29bc:	e20ce003 	and	lr, ip, #3
    29c0:	e581e000 	str	lr, [r1]
    29c4:	e582c004 	str	ip, [r2, #4]
    29c8:	e5933054 	ldr	r3, [r3, #84]	; 0x54
    29cc:	e5813004 	str	r3, [r1, #4]
    29d0:	e49df004 	pop	{pc}		; (ldr pc, [sp], #4)
    29d4:	e3e00000 	mvn	r0, #0
    29d8:	e12fff1e 	bx	lr

000029dc <mem_clk_set_pll_factor>:
    29dc:	e3023f84 	movw	r3, #12164	; 0x2f84
    29e0:	e3a0c000 	mov	ip, #0
    29e4:	e3403000 	movt	r3, #0
    29e8:	e340c1c2 	movt	ip, #450	; 0x1c2
    29ec:	e92d4070 	push	{r4, r5, r6, lr}
    29f0:	e1a0e000 	mov	lr, r0
    29f4:	e583c000 	str	ip, [r3]
    29f8:	e3a00000 	mov	r0, #0
    29fc:	e59c2000 	ldr	r2, [ip]
    2a00:	e5de5003 	ldrb	r5, [lr, #3]
    2a04:	e5de6002 	ldrb	r6, [lr, #2]
    2a08:	e1a04822 	lsr	r4, r2, #16
    2a0c:	e5832008 	str	r2, [r3, #8]
    2a10:	e7c14015 	bfi	r4, r5, #0, #2
    2a14:	e5de5001 	ldrb	r5, [lr, #1]
    2a18:	e5dee000 	ldrb	lr, [lr]
    2a1c:	e1a01002 	mov	r1, r2
    2a20:	e1a02422 	lsr	r2, r2, #8
    2a24:	e7c11016 	bfi	r1, r6, #0, #2
    2a28:	e5c3400a 	strb	r4, [r3, #10]
    2a2c:	e7c51215 	bfi	r1, r5, #4, #2
    2a30:	e7c4201e 	bfi	r2, lr, #0, #5
    2a34:	e5c31008 	strb	r1, [r3, #8]
    2a38:	e5c32009 	strb	r2, [r3, #9]
    2a3c:	e5933008 	ldr	r3, [r3, #8]
    2a40:	e58c3000 	str	r3, [ip]
    2a44:	e8bd8070 	pop	{r4, r5, r6, pc}

00002a48 <mem_clk_get_pll_factor>:
    2a48:	e3021f84 	movw	r1, #12164	; 0x2f84
    2a4c:	e3a02000 	mov	r2, #0
    2a50:	e3401000 	movt	r1, #0
    2a54:	e34f21c2 	movt	r2, #61890	; 0xf1c2
    2a58:	e92d4010 	push	{r4, lr}
    2a5c:	e1a03000 	mov	r3, r0
    2a60:	e5812000 	str	r2, [r1]
    2a64:	e3a00000 	mov	r0, #0
    2a68:	e592c000 	ldr	ip, [r2]
    2a6c:	e7e4445c 	ubfx	r4, ip, #8, #5
    2a70:	e7e1e85c 	ubfx	lr, ip, #16, #2
    2a74:	e6ef207c 	uxtb	r2, ip
    2a78:	e581c008 	str	ip, [r1, #8]
    2a7c:	e5c34000 	strb	r4, [r3]
    2a80:	e7e11252 	ubfx	r1, r2, #4, #2
    2a84:	e5c3e003 	strb	lr, [r3, #3]
    2a88:	e7e12052 	ubfx	r2, r2, #0, #2
    2a8c:	e5c31001 	strb	r1, [r3, #1]
    2a90:	e5c32002 	strb	r2, [r3, #2]
    2a94:	e8bd8010 	pop	{r4, pc}

00002a98 <mem_clk_set_misc>:
    2a98:	e1a01000 	mov	r1, r0
    2a9c:	e5900000 	ldr	r0, [r0]
    2aa0:	e3022f84 	movw	r2, #12164	; 0x2f84
    2aa4:	e3a03000 	mov	r3, #0
    2aa8:	e34031c2 	movt	r3, #450	; 0x1c2
    2aac:	e3402000 	movt	r2, #0
    2ab0:	e92d4010 	push	{r4, lr}
    2ab4:	e3a0e002 	mov	lr, #2
    2ab8:	e5823000 	str	r3, [r2]
    2abc:	e3a0c001 	mov	ip, #1
    2ac0:	e5830220 	str	r0, [r3, #544]	; 0x220
    2ac4:	e3a00000 	mov	r0, #0
    2ac8:	e5914008 	ldr	r4, [r1, #8]
    2acc:	e5834250 	str	r4, [r3, #592]	; 0x250
    2ad0:	e5914014 	ldr	r4, [r1, #20]
    2ad4:	e5834228 	str	r4, [r3, #552]	; 0x228
    2ad8:	e5914018 	ldr	r4, [r1, #24]
    2adc:	e583422c 	str	r4, [r3, #556]	; 0x22c
    2ae0:	e591401c 	ldr	r4, [r1, #28]
    2ae4:	e5834288 	str	r4, [r3, #648]	; 0x288
    2ae8:	e5914020 	ldr	r4, [r1, #32]
    2aec:	e583428c 	str	r4, [r3, #652]	; 0x28c
    2af0:	e591400c 	ldr	r4, [r1, #12]
    2af4:	e5834010 	str	r4, [r3, #16]
    2af8:	e5911010 	ldr	r1, [r1, #16]
    2afc:	e5831018 	str	r1, [r3, #24]
    2b00:	e5931050 	ldr	r1, [r3, #80]	; 0x50
    2b04:	e5821004 	str	r1, [r2, #4]
    2b08:	e7c1101e 	bfi	r1, lr, #0, #2
    2b0c:	e5c21004 	strb	r1, [r2, #4]
    2b10:	e5921004 	ldr	r1, [r2, #4]
    2b14:	e5831050 	str	r1, [r3, #80]	; 0x50
    2b18:	e5d21004 	ldrb	r1, [r2, #4]
    2b1c:	e7c1101c 	bfi	r1, ip, #0, #2
    2b20:	e5c21004 	strb	r1, [r2, #4]
    2b24:	e5922004 	ldr	r2, [r2, #4]
    2b28:	e5832050 	str	r2, [r3, #80]	; 0x50
    2b2c:	e8bd8010 	pop	{r4, pc}

00002b30 <mem_clk_get_misc>:
    2b30:	e3a03000 	mov	r3, #0
    2b34:	e3021f84 	movw	r1, #12164	; 0x2f84
    2b38:	e34f31c2 	movt	r3, #61890	; 0xf1c2
    2b3c:	e1a02000 	mov	r2, r0
    2b40:	e593c220 	ldr	ip, [r3, #544]	; 0x220
    2b44:	e3401000 	movt	r1, #0
    2b48:	e5813000 	str	r3, [r1]
    2b4c:	e3a00000 	mov	r0, #0
    2b50:	e582c000 	str	ip, [r2]
    2b54:	e5931250 	ldr	r1, [r3, #592]	; 0x250
    2b58:	e5821008 	str	r1, [r2, #8]
    2b5c:	e5931228 	ldr	r1, [r3, #552]	; 0x228
    2b60:	e5821014 	str	r1, [r2, #20]
    2b64:	e593122c 	ldr	r1, [r3, #556]	; 0x22c
    2b68:	e5821018 	str	r1, [r2, #24]
    2b6c:	e5931288 	ldr	r1, [r3, #648]	; 0x288
    2b70:	e582101c 	str	r1, [r2, #28]
    2b74:	e593128c 	ldr	r1, [r3, #652]	; 0x28c
    2b78:	e5821020 	str	r1, [r2, #32]
    2b7c:	e5931010 	ldr	r1, [r3, #16]
    2b80:	e582100c 	str	r1, [r2, #12]
    2b84:	e5933018 	ldr	r3, [r3, #24]
    2b88:	e5823010 	str	r3, [r2, #16]
    2b8c:	e12fff1e 	bx	lr

00002b90 <mem_clk_get_cpu_freq>:
    2b90:	e3023f84 	movw	r3, #12164	; 0x2f84
    2b94:	e3403000 	movt	r3, #0
    2b98:	e5930000 	ldr	r0, [r3]
    2b9c:	e5902050 	ldr	r2, [r0, #80]	; 0x50
    2ba0:	e7e11852 	ubfx	r1, r2, #16, #2
    2ba4:	e3510000 	cmp	r1, #0
    2ba8:	e5832004 	str	r2, [r3, #4]
    2bac:	1a000001 	bne	2bb8 <mem_clk_get_cpu_freq+0x28>
    2bb0:	e3a00020 	mov	r0, #32
    2bb4:	e12fff1e 	bx	lr
    2bb8:	e3510001 	cmp	r1, #1
    2bbc:	0a000010 	beq	2c04 <mem_clk_get_cpu_freq+0x74>
    2bc0:	e92d4030 	push	{r4, r5, lr}
    2bc4:	e3a0c001 	mov	ip, #1
    2bc8:	e5904000 	ldr	r4, [r0]
    2bcc:	e3050dc0 	movw	r0, #24000	; 0x5dc0
    2bd0:	e7e11854 	ubfx	r1, r4, #16, #2
    2bd4:	e7e45454 	ubfx	r5, r4, #8, #5
    2bd8:	e6efe074 	uxtb	lr, r4
    2bdc:	e1a0111c 	lsl	r1, ip, r1
    2be0:	e7e1c25e 	ubfx	ip, lr, #4, #2
    2be4:	e20ee003 	and	lr, lr, #3
    2be8:	e28c2001 	add	r2, ip, #1
    2bec:	e5834008 	str	r4, [r3, #8]
    2bf0:	e021119e 	mla	r1, lr, r1, r1
    2bf4:	e0222295 	mla	r2, r5, r2, r2
    2bf8:	e8bd4030 	pop	{r4, r5, lr}
    2bfc:	e0000290 	mul	r0, r0, r2
    2c00:	eafffe15 	b	245c <raw_lib_udiv>
    2c04:	e3050dc0 	movw	r0, #24000	; 0x5dc0
    2c08:	e12fff1e 	bx	lr

Disassembly of section .rodata:

00002c0c <CSWTCH.9>:
    2c0c:	00000001 	andeq	r0, r0, r1
    2c10:	00000002 	andeq	r0, r0, r2
    2c14:	00000000 	andeq	r0, r0, r0
    2c18:	00000003 	andeq	r0, r0, r3

00002c1c <CSWTCH.20>:
    2c1c:	00007d00 	andeq	r7, r0, r0, lsl #26
    2c20:	016e3600 	cmneq	lr, r0, lsl #12
    2c24:	23c34600 	biccs	r4, r3, #0, 12

Disassembly of section .rodata.str1.4:

00002c28 <.rodata.str1.4>:
    2c28:	75736572 	ldrbvc	r6, [r3, #-1394]!	; 0xfffffa8e
    2c2c:	3a31656d 	bcc	c5c1e8 <__bss_end+0xc5906c>
    2c30:	202e3120 	eorcs	r3, lr, r0, lsr #2
    2c34:	6f666562 	svcvs	0x00666562
    2c38:	72206572 	eorvc	r6, r0, #478150656	; 0x1c800000
    2c3c:	6f747365 	svcvs	0x00747365
    2c40:	6d206572 	cfstr32vs	mvfx6, [r0, #-456]!	; 0xfffffe38
    2c44:	202e756d 	eorcs	r7, lr, sp, ror #10
    2c48:	0000000a 	andeq	r0, r0, sl
    2c4c:	75736572 	ldrbvc	r6, [r3, #-1394]!	; 0xfffffa8e
    2c50:	3a31656d 	bcc	c5c20c <__bss_end+0xc59090>
    2c54:	202e3320 	eorcs	r3, lr, r0, lsr #6
    2c58:	65746661 	ldrbvs	r6, [r4, #-1633]!	; 0xfffff99f
    2c5c:	65722072 	ldrbvs	r2, [r2, #-114]!	; 0xffffff8e
    2c60:	726f7473 	rsbvc	r7, pc, #1929379840	; 0x73000000
    2c64:	6d6d2065 	stclvs	0, cr2, [sp, #-404]!	; 0xfffffe6c
    2c68:	62202c75 	eorvs	r2, r0, #29952	; 0x7500
    2c6c:	726f6665 	rsbvc	r6, pc, #105906176	; 0x6500000
    2c70:	756a2065 	strbvc	r2, [sl, #-101]!	; 0xffffff9b
    2c74:	0a2e706d 	beq	b9ee30 <__bss_end+0xb9bcb4>
    2c78:	00000000 	andeq	r0, r0, r0
    2c7c:	5f746567 	svcpl	0x00746567
    2c80:	5f727563 	svcpl	0x00727563
    2c84:	73756c63 	cmnvc	r5, #25344	; 0x6300
    2c88:	5f726574 	svcpl	0x00726574
    2c8c:	3d206469 	cfstrscc	mvf6, [r0, #-420]!	; 0xfffffe5c
    2c90:	2e642520 	cdpcs	5, 6, cr2, cr4, cr0, {1}
    2c94:	00000a20 	andeq	r0, r0, r0, lsr #20
    2c98:	5f6d656d 	svcpl	0x006d656d
    2c9c:	61726170 	cmnvs	r2, r0, ror r1
    2ca0:	666e695f 			; <UNDEFINED> instruction: 0x666e695f
    2ca4:	65642e6f 	strbvs	r2, [r4, #-3695]!	; 0xfffff191
    2ca8:	5f677562 	svcpl	0x00677562
    2cac:	6b73616d 	blvs	1cdb268 <__bss_end+0x1cd80ec>
    2cb0:	25203d20 	strcs	r3, [r0, #-3360]!	; 0xfffff2e0
    2cb4:	0a202e78 	beq	80e69c <__bss_end+0x80b520>
    2cb8:	00000000 	andeq	r0, r0, r0
    2cbc:	616c6564 	cmnvs	ip, r4, ror #10
    2cc0:	656d2079 	strbvs	r2, [sp, #-121]!	; 0xffffff87
    2cc4:	61705f6d 	cmnvs	r0, sp, ror #30
    2cc8:	695f6172 	ldmdbvs	pc, {r1, r4, r5, r6, r8, sp, lr}^	; <UNPREDICTABLE>
    2ccc:	2e6f666e 	cdpcs	6, 6, cr6, cr15, cr14, {3}
    2cd0:	70737573 	rsbsvc	r7, r3, r3, ror r5
    2cd4:	5f646e65 	svcpl	0x00646e65
    2cd8:	616c6564 	cmnvs	ip, r4, ror #10
    2cdc:	736d5f79 	cmnvc	sp, #484	; 0x1e4
    2ce0:	25203d20 	strcs	r3, [r0, #-3360]!	; 0xfffff2e0
    2ce4:	0a202e64 	beq	80e67c <__bss_end+0x80b500>
    2ce8:	00000000 	andeq	r0, r0, r0
    2cec:	72646461 	rsbvc	r6, r4, #1627389952	; 0x61000000
    2cf0:	3a465020 	bcc	1196d78 <__bss_end+0x1193bfc>
    2cf4:	25783020 	ldrbcs	r3, [r8, #-32]!	; 0xffffffe0
    2cf8:	203d2078 	eorscs	r2, sp, r8, ror r0
    2cfc:	78257830 	stmdavc	r5!, {r4, r5, fp, ip, sp, lr}
    2d00:	000a202e 	andeq	r2, sl, lr, lsr #32
    2d04:	72646461 	rsbvc	r6, r4, #1627389952	; 0x61000000
    2d08:	3a485020 	bcc	1216d90 <__bss_end+0x1213c14>
    2d0c:	25783020 	ldrbcs	r3, [r8, #-32]!	; 0xffffffe0
    2d10:	203d2078 	eorscs	r2, sp, r8, ror r0
    2d14:	78257830 	stmdavc	r5!, {r4, r5, fp, ip, sp, lr}
    2d18:	000a202e 	andeq	r2, sl, lr, lsr #32
    2d1c:	75736572 	ldrbvc	r6, [r3, #-1394]!	; 0xfffffa8e
    2d20:	3a31656d 	bcc	c5c2dc <__bss_end+0xc59160>
    2d24:	61747320 	cmnvs	r4, r0, lsr #6
    2d28:	202e7472 	eorcs	r7, lr, r2, ror r4
    2d2c:	0000000a 	andeq	r0, r0, sl
    2d30:	72646461 	rsbvc	r6, r4, #1627389952	; 0x61000000
    2d34:	2c782520 	cfldr64cs	mvdx2, [r8], #-128	; 0xffffff80
    2d38:	6c617620 	stclvs	6, cr7, [r1], #-128	; 0xffffff80
    2d3c:	3d206575 	cfstr32cc	mvfx6, [r0, #-468]!	; 0xfffffe2c
    2d40:	2e782520 	cdpcs	5, 7, cr2, cr8, cr0, {1}
    2d44:	00000a20 	andeq	r0, r0, r0, lsr #20
    2d48:	33323130 	teqcc	r2, #48, 2
    2d4c:	37363534 			; <UNDEFINED> instruction: 0x37363534
    2d50:	42413938 	submi	r3, r1, #56, 18	; 0xe0000
    2d54:	46454443 	strbmi	r4, [r5], -r3, asr #8
    2d58:	00000000 	andeq	r0, r0, r0
    2d5c:	20202020 	eorcs	r2, r0, r0, lsr #32
    2d60:	20202020 	eorcs	r2, r0, r0, lsr #32
    2d64:	20202020 	eorcs	r2, r0, r0, lsr #32
    2d68:	20202020 	eorcs	r2, r0, r0, lsr #32
    2d6c:	00000000 	andeq	r0, r0, r0
    2d70:	65747441 	ldrbvs	r7, [r4, #-1089]!	; 0xfffffbbf
    2d74:	6974706d 	ldmdbvs	r4!, {r0, r2, r3, r5, r6, ip, sp, lr}^
    2d78:	6420676e 	strtvs	r6, [r0], #-1902	; 0xfffff892
    2d7c:	73697669 	cmnvc	r9, #110100480	; 0x6900000
    2d80:	206e6f69 	rsbcs	r6, lr, r9, ror #30
    2d84:	30207962 	eorcc	r7, r0, r2, ror #18
    2d88:	00000021 	andeq	r0, r0, r1, lsr #32
    2d8c:	69746f6e 	ldmdbvs	r4!, {r1, r2, r3, r5, r6, r8, r9, sl, fp, sp, lr}^
    2d90:	203a6563 	eorscs	r6, sl, r3, ror #10
    2d94:	20636967 	rsbcs	r6, r3, r7, ror #18
    2d98:	20726169 	rsbscs	r6, r2, r9, ror #2
    2d9c:	30203d3d 	eorcc	r3, r0, sp, lsr sp
    2da0:	2e782578 	mrccs	5, 3, r2, cr8, cr8, {3}
    2da4:	00000a20 	andeq	r0, r0, r0, lsr #20

Disassembly of section .data:

00002da8 <tmpPtr>:
    2da8:	00002dac 	andeq	r2, r0, ip, lsr #27

Disassembly of section .bss:

00002dac <print_flag>:
    2dac:	00000000 	andeq	r0, r0, r0

00002db0 <backup_perf_counter_ctrl_reg>:
    2db0:	00000000 	andeq	r0, r0, r0

00002db4 <backup_perf_counter_enable_reg>:
    2db4:	00000000 	andeq	r0, r0, r0

00002db8 <overhead>:
    2db8:	00000000 	andeq	r0, r0, r0

00002dbc <cpu_freq>:
    2dbc:	00000000 	andeq	r0, r0, r0

00002dc0 <saved_context>:
	...

00002e60 <backup_ccu_uart>:
    2e60:	00000000 	andeq	r0, r0, r0

00002e64 <backup_ccu_uart_reset>:
    2e64:	00000000 	andeq	r0, r0, r0

00002e68 <backup_gpio_uart>:
    2e68:	00000000 	andeq	r0, r0, r0

00002e6c <serial_inited_flag>:
    2e6c:	00000000 	andeq	r0, r0, r0

00002e70 <debugger_buffer>:
	...

00002f70 <GicDDisc>:
    2f70:	00000000 	andeq	r0, r0, r0

00002f74 <TmrReg>:
    2f74:	00000000 	andeq	r0, r0, r0

00002f78 <WatchDog1_Config_Reg_Bak>:
    2f78:	00000000 	andeq	r0, r0, r0

00002f7c <WatchDog1_Mod_Reg_Bak>:
    2f7c:	00000000 	andeq	r0, r0, r0

00002f80 <WatchDog1_Irq_En_Bak>:
    2f80:	00000000 	andeq	r0, r0, r0

00002f84 <CmuReg>:
    2f84:	00000000 	andeq	r0, r0, r0

00002f88 <CmuReg_SysClkDiv_tmp>:
    2f88:	00000000 	andeq	r0, r0, r0

00002f8c <CmuReg_Pll1Ctl_tmp>:
    2f8c:	00000000 	andeq	r0, r0, r0

00002f90 <mem_para_info>:
	...

00003060 <func_entry>:
    3060:	00000000 	andeq	r0, r0, r0

00003064 <saved_context_r13_irq>:
	...

0000306c <saved_context_r12_svc>:
	...

00003074 <saved_spsr_fiq>:
    3074:	00000000 	andeq	r0, r0, r0

00003078 <saved_spsr_und>:
    3078:	00000000 	andeq	r0, r0, r0

0000307c <saved_spsr_irq>:
    307c:	00000000 	andeq	r0, r0, r0

00003080 <saved_context_r13_abt>:
	...

00003088 <saved_spsr_mon>:
    3088:	00000000 	andeq	r0, r0, r0

0000308c <saved_empty_context_svc>:
	...

0000313c <saved_context_r13_fiq>:
	...

00003158 <saved_cpsr_svc>:
    3158:	00000000 	andeq	r0, r0, r0

0000315c <saved_context_r13_sys>:
	...

00003164 <saved_spsr_abt>:
    3164:	00000000 	andeq	r0, r0, r0

00003168 <saved_context_r13_mon>:
	...

00003170 <saved_spsr_svc>:
    3170:	00000000 	andeq	r0, r0, r0

00003174 <saved_context_r13_und>:
	...

Disassembly of section .debug_info:

00000000 <.debug_info>:
       0:	000001bc 			; <UNDEFINED> instruction: 0x000001bc
       4:	00000004 	andeq	r0, r0, r4
       8:	01040000 	mrseq	r0, (UNDEF: 4)
       c:	00000000 	andeq	r0, r0, r0
      10:	0002930c 	andeq	r9, r2, ip, lsl #6
      14:	00019600 	andeq	r9, r1, r0, lsl #12
      18:	00000000 	andeq	r0, r0, r0
      1c:	06010200 	streq	r0, [r1], -r0, lsl #4
      20:	00000114 	andeq	r0, r0, r4, lsl r1
      24:	12080102 	andne	r0, r8, #-2147483648	; 0x80000000
      28:	02000001 	andeq	r0, r0, #1
      2c:	02760502 	rsbseq	r0, r6, #8388608	; 0x800000
      30:	02020000 	andeq	r0, r2, #0
      34:	00013607 	andeq	r3, r1, r7, lsl #12
      38:	05040300 	streq	r0, [r4, #-768]	; 0xfffffd00
      3c:	00746e69 	rsbseq	r6, r4, r9, ror #28
      40:	e6070402 	str	r0, [r7], -r2, lsl #8
      44:	02000001 	andeq	r0, r0, #1
      48:	02360508 	eorseq	r0, r6, #8, 10	; 0x2000000
      4c:	08020000 	stmdaeq	r2, {}	; <UNPREDICTABLE>
      50:	0001dc07 	andeq	sp, r1, r7, lsl #24
      54:	07040200 	streq	r0, [r4, -r0, lsl #4]
      58:	0000022d 	andeq	r0, r0, sp, lsr #4
      5c:	00020904 	andeq	r0, r2, r4, lsl #18
      60:	00400400 	subeq	r0, r0, r0, lsl #8
      64:	89020000 	stmdbhi	r2, {}	; <UNPREDICTABLE>
      68:	000000eb 	andeq	r0, r0, fp, ror #1
      6c:	0000d405 	andeq	sp, r0, r5, lsl #8
      70:	29050000 	stmdbcs	r5, {}	; <UNPREDICTABLE>
      74:	01000001 	tsteq	r0, r1
      78:	0000e105 	andeq	lr, r0, r5, lsl #2
      7c:	06050200 	streq	r0, [r5], -r0, lsl #4
      80:	03000001 	movweq	r0, #1
      84:	00025105 	andeq	r5, r2, r5, lsl #2
      88:	d0050400 	andle	r0, r5, r0, lsl #8
      8c:	05000001 	streq	r0, [r0, #-1]
      90:	00018905 	andeq	r8, r1, r5, lsl #18
      94:	f3050600 	vmax.u8	d0, d5, d0
      98:	07000001 	streq	r0, [r0, -r1]
      9c:	0000c805 	andeq	ip, r0, r5, lsl #16
      a0:	fb050800 	blx	1420aa <__bss_end+0x13ef2e>
      a4:	09000000 	stmdbeq	r0, {}	; <UNPREDICTABLE>
      a8:	0001c505 	andeq	ip, r1, r5, lsl #10
      ac:	6b050a00 	blvs	1428b4 <__bss_end+0x13f738>
      b0:	0b000002 	bleq	c0 <config_end+0x14>
      b4:	00020305 	andeq	r0, r2, r5, lsl #6
      b8:	1f050c00 	svcne	0x00050c00
      bc:	0d000002 	stceq	0, cr0, [r0, #-8]
      c0:	00031805 	andeq	r1, r3, r5, lsl #16
      c4:	5d050e00 	stcpl	14, cr0, [r5, #-0]
      c8:	0f000002 	svceq	0x00000002
      cc:	0002e805 	andeq	lr, r2, r5, lsl #16
      d0:	44051000 	strmi	r1, [r5], #-0
      d4:	11000002 	tstne	r0, r2
      d8:	00030205 	andeq	r0, r3, r5, lsl #4
      dc:	ee051200 	cdp	2, 0, cr1, cr5, cr0, {0}
      e0:	13000000 	movwne	r0, #0
      e4:	0002cd05 	andeq	ip, r2, r5, lsl #26
      e8:	02001400 	andeq	r1, r0, #0, 8
      ec:	011b0801 	tsteq	fp, r1, lsl #16
      f0:	04020000 	streq	r0, [r2], #-0
      f4:	0001e107 	andeq	lr, r1, r7, lsl #2
      f8:	00b60600 	adcseq	r0, r6, r0, lsl #12
      fc:	01300000 	teqeq	r0, r0
     100:	00017e49 	andeq	r7, r1, r9, asr #28
     104:	01780700 	cmneq	r8, r0, lsl #14
     108:	4b010000 	blmi	40110 <__bss_end+0x3cf94>
     10c:	00000040 	andeq	r0, r0, r0, asr #32
     110:	02f50700 	rscseq	r0, r5, #0, 14
     114:	4c010000 	stcmi	0, cr0, [r1], {-0}
     118:	0000017e 	andeq	r0, r0, lr, ror r1
     11c:	01540704 	cmpeq	r4, r4, lsl #14
     120:	4d010000 	stcmi	0, cr0, [r1, #-0]
     124:	00000040 	andeq	r0, r0, r0, asr #32
     128:	02fb070c 	rscseq	r0, fp, #12, 14	; 0x300000
     12c:	4e010000 	cdpmi	0, 0, cr0, cr1, cr0, {0}
     130:	00000040 	andeq	r0, r0, r0, asr #32
     134:	015e0710 	cmpeq	lr, r0, lsl r7
     138:	4f010000 	svcmi	0x00010000
     13c:	00000040 	andeq	r0, r0, r0, asr #32
     140:	02db0714 	sbcseq	r0, fp, #20, 14	; 0x500000
     144:	50010000 	andpl	r0, r1, r0
     148:	0000018e 	andeq	r0, r0, lr, lsl #3
     14c:	02110718 	andseq	r0, r1, #24, 14	; 0x600000
     150:	51010000 	mrspl	r0, (UNDEF: 1)
     154:	0000018e 	andeq	r0, r0, lr, lsl #3
     158:	0149071c 	cmpeq	r9, ip, lsl r7
     15c:	52010000 	andpl	r0, r1, #0
     160:	0000018e 	andeq	r0, r0, lr, lsl #3
     164:	01200720 			; <UNDEFINED> instruction: 0x01200720
     168:	53010000 	movwpl	r0, #4096	; 0x1000
     16c:	0000018e 	andeq	r0, r0, lr, lsl #3
     170:	030f0724 	movweq	r0, #63268	; 0xf724
     174:	54010000 	strpl	r0, [r1], #-0
     178:	0000017e 	andeq	r0, r0, lr, ror r1
     17c:	24080028 	strcs	r0, [r8], #-40	; 0xffffffd8
     180:	8e000000 	cdphi	0, 0, cr0, cr0, cr0, {0}
     184:	09000001 	stmdbeq	r0, {r0}
     188:	00000055 	andeq	r0, r0, r5, asr r0
     18c:	24080007 	strcs	r0, [r8], #-7
     190:	9e000000 	cdpls	0, 0, cr0, cr0, cr0, {0}
     194:	09000001 	stmdbeq	r0, {r0}
     198:	00000055 	andeq	r0, r0, r5, asr r0
     19c:	800a0003 	andhi	r0, sl, r3
     1a0:	01000002 	tsteq	r0, r2
     1a4:	0000f955 	andeq	pc, r0, r5, asr r9	; <UNPREDICTABLE>
     1a8:	016c0b00 	cmneq	ip, r0, lsl #22
     1ac:	24030000 	strcs	r0, [r3], #-0
     1b0:	000001ba 			; <UNDEFINED> instruction: 0x000001ba
     1b4:	00000305 	andeq	r0, r0, r5, lsl #6
     1b8:	9e0c0000 	cdpls	0, 0, cr0, cr12, cr0, {0}
     1bc:	00000001 	andeq	r0, r0, r1
     1c0:	00000087 	andeq	r0, r0, r7, lsl #1
     1c4:	00950002 	addseq	r0, r5, r2
     1c8:	01040000 	mrseq	r0, (UNDEF: 4)
     1cc:	000000bc 	strheq	r0, [r0], -ip
     1d0:	00000030 	andeq	r0, r0, r0, lsr r0
     1d4:	000000e0 	andeq	r0, r0, r0, ror #1
     1d8:	68637261 	stmdavs	r3!, {r0, r5, r6, r9, ip, sp, lr}^
     1dc:	6d72612f 	ldfvse	f6, [r2, #-188]!	; 0xffffff44
     1e0:	63616d2f 	cmnvs	r1, #3008	; 0xbc0
     1e4:	75732d68 	ldrbvc	r2, [r3, #-3432]!	; 0xfffff298
     1e8:	2f69786e 	svccs	0x0069786e
     1ec:	732f6d70 			; <UNDEFINED> instruction: 0x732f6d70
     1f0:	646e6174 	strbtvs	r6, [lr], #-372	; 0xfffffe8c
     1f4:	732f7962 			; <UNDEFINED> instruction: 0x732f7962
     1f8:	72657075 	rsbvc	r7, r5, #117	; 0x75
     1fc:	7365722f 	cmnvc	r5, #-268435454	; 0xf0000002
     200:	2f656d75 	svccs	0x00656d75
     204:	75736572 	ldrbvc	r6, [r3, #-1394]!	; 0xfffffa8e
     208:	2e31656d 	cdpcs	5, 3, cr6, cr1, cr13, {3}
     20c:	682f0053 	stmdavs	pc!, {r0, r1, r4, r6}	; <UNPREDICTABLE>
     210:	2f656d6f 	svccs	0x00656d6f
     214:	6c72616b 	ldfvse	f6, [r2], #-428	; 0xfffffe54
     218:	2f65656c 	svccs	0x0065656c
     21c:	69776c61 	ldmdbvs	r7!, {r0, r5, r6, sl, fp, sp, lr}^
     220:	72656e6e 	rsbvc	r6, r5, #1760	; 0x6e0
     224:	4950422f 	ldmdbmi	r0, {r0, r1, r2, r3, r5, r9, lr}^
     228:	4d324d2d 	ldcmi	13, cr4, [r2, #-180]!	; 0xffffff4c
     22c:	7073622d 	rsbsvc	r6, r3, sp, lsr #4
     230:	6e696c2f 	cdpvs	12, 6, cr6, cr9, cr15, {1}
     234:	732d7875 			; <UNDEFINED> instruction: 0x732d7875
     238:	69786e75 	ldmdbvs	r8!, {r0, r2, r4, r5, r6, r9, sl, fp, sp, lr}^
     23c:	554e4700 	strbpl	r4, [lr, #-1792]	; 0xfffff900
     240:	20534120 	subscs	r4, r3, r0, lsr #2
     244:	36322e32 			; <UNDEFINED> instruction: 0x36322e32
     248:	d2800100 	addle	r0, r0, #0, 2
     24c:	04000000 	streq	r0, [r0], #-0
     250:	0000a900 	andeq	sl, r0, r0, lsl #18
     254:	00010400 	andeq	r0, r1, r0, lsl #8
     258:	0c000000 	stceq	0, cr0, [r0], {-0}
     25c:	00000324 	andeq	r0, r0, r4, lsr #6
     260:	00000196 	muleq	r0, r6, r1
     264:	000000e0 	andeq	r0, r0, r0, ror #1
     268:	0000002c 	andeq	r0, r0, ip, lsr #32
     26c:	00000151 	andeq	r0, r0, r1, asr r1
     270:	14060102 	strne	r0, [r6], #-258	; 0xfffffefe
     274:	02000001 	andeq	r0, r0, #1
     278:	01120801 	tsteq	r2, r1, lsl #16
     27c:	02020000 	andeq	r0, r2, #0
     280:	00027605 	andeq	r7, r2, r5, lsl #12
     284:	07020200 	streq	r0, [r2, -r0, lsl #4]
     288:	00000136 	andeq	r0, r0, r6, lsr r1
     28c:	69050403 	stmdbvs	r5, {r0, r1, sl}
     290:	0200746e 	andeq	r7, r0, #1845493760	; 0x6e000000
     294:	01e60704 	mvneq	r0, r4, lsl #14
     298:	08020000 	stmdaeq	r2, {}	; <UNPREDICTABLE>
     29c:	00023605 	andeq	r3, r2, r5, lsl #12
     2a0:	07080200 	streq	r0, [r8, -r0, lsl #4]
     2a4:	000001dc 	ldrdeq	r0, [r0], -ip
     2a8:	2d070402 	cfstrscs	mvf0, [r7, #-8]
     2ac:	02000002 	andeq	r0, r0, #2
     2b0:	011b0801 	tsteq	fp, r1, lsl #16
     2b4:	04020000 	streq	r0, [r2], #-0
     2b8:	0001e107 	andeq	lr, r1, r7, lsl #2
     2bc:	48040400 	stmdami	r4, {sl}
     2c0:	05000000 	streq	r0, [r0, #-0]
     2c4:	03620604 	cmneq	r2, #4, 12	; 0x400000
     2c8:	23010000 	movwcs	r0, #4096	; 0x1000
     2cc:	000000e0 	andeq	r0, r0, r0, ror #1
     2d0:	0000002c 	andeq	r0, r0, ip, lsr #32
     2d4:	53079c01 	movwpl	r9, #31745	; 0x7c01
     2d8:	01000018 	tsteq	r0, r8, lsl r0
     2dc:	00007823 	andeq	r7, r0, r3, lsr #16
     2e0:	00000000 	andeq	r0, r0, r0
     2e4:	72730800 	rsbsvc	r0, r3, #0, 16
     2e8:	23010063 	movwcs	r0, #4195	; 0x1063
     2ec:	00000078 	andeq	r0, r0, r8, ror r0
     2f0:	0000002e 	andeq	r0, r0, lr, lsr #32
     2f4:	01006e08 	tsteq	r0, r8, lsl #28
     2f8:	00004123 	andeq	r4, r0, r3, lsr #2
     2fc:	00004f00 	andeq	r4, r0, r0, lsl #30
     300:	035a0900 	cmpeq	sl, #0, 18
     304:	25010000 	strcs	r0, [r1, #-0]
     308:	00000072 	andeq	r0, r0, r2, ror r0
     30c:	0000007a 	andeq	r0, r0, sl, ror r0
     310:	00035209 	andeq	r5, r3, r9, lsl #4
     314:	72260100 	eorvc	r0, r6, #0, 2
     318:	a5000000 	strge	r0, [r0, #-0]
     31c:	00000000 	andeq	r0, r0, r0
     320:	00006700 	andeq	r6, r0, r0, lsl #14
     324:	28000400 	stmdacs	r0, {sl}
     328:	04000001 	streq	r0, [r0], #-1
     32c:	00000001 	andeq	r0, r0, r1
     330:	036d0c00 	cmneq	sp, #0, 24
     334:	01960000 	orrseq	r0, r6, r0
     338:	01c40000 	biceq	r0, r4, r0
     33c:	01020000 	mrseq	r0, (UNDEF: 2)
     340:	00011406 	andeq	r1, r1, r6, lsl #8
     344:	08010200 	stmdaeq	r1, {r9}
     348:	00000112 	andeq	r0, r0, r2, lsl r1
     34c:	76050202 	strvc	r0, [r5], -r2, lsl #4
     350:	02000002 	andeq	r0, r0, #2
     354:	01360702 	teqeq	r6, r2, lsl #14
     358:	04030000 	streq	r0, [r3], #-0
     35c:	746e6905 	strbtvc	r6, [lr], #-2309	; 0xfffff6fb
     360:	07040200 	streq	r0, [r4, -r0, lsl #4]
     364:	000001e6 	andeq	r0, r0, r6, ror #3
     368:	36050802 	strcc	r0, [r5], -r2, lsl #16
     36c:	02000002 	andeq	r0, r0, #2
     370:	01dc0708 	bicseq	r0, ip, r8, lsl #14
     374:	04020000 	streq	r0, [r2], #-0
     378:	00022d07 	andeq	r2, r2, r7, lsl #26
     37c:	08010200 	stmdaeq	r1, {r9}
     380:	0000011b 	andeq	r0, r0, fp, lsl r1
     384:	e1070402 	tst	r7, r2, lsl #8
     388:	00000001 	andeq	r0, r0, r1
     38c:	00000084 	andeq	r0, r0, r4, lsl #1
     390:	014e0002 	cmpeq	lr, r2
     394:	01040000 	mrseq	r0, (UNDEF: 4)
     398:	000001e1 	andeq	r0, r0, r1, ror #3
     39c:	0000010c 	andeq	r0, r0, ip, lsl #2
     3a0:	00000134 	andeq	r0, r0, r4, lsr r1
     3a4:	68637261 	stmdavs	r3!, {r0, r5, r6, r9, ip, sp, lr}^
     3a8:	6d72612f 	ldfvse	f6, [r2, #-188]!	; 0xffffff44
     3ac:	63616d2f 	cmnvs	r1, #3008	; 0xbc0
     3b0:	75732d68 	ldrbvc	r2, [r3, #-3432]!	; 0xfffff298
     3b4:	2f69786e 	svccs	0x0069786e
     3b8:	732f6d70 			; <UNDEFINED> instruction: 0x732f6d70
     3bc:	646e6174 	strbtvs	r6, [lr], #-372	; 0xfffffe8c
     3c0:	732f7962 			; <UNDEFINED> instruction: 0x732f7962
     3c4:	72657075 	rsbvc	r7, r5, #117	; 0x75
     3c8:	7075732f 	rsbsvc	r7, r5, pc, lsr #6
     3cc:	645f7265 	ldrbvs	r7, [pc], #-613	; 3d4 <set_pll+0x154>
     3d0:	79616c65 	stmdbvc	r1!, {r0, r2, r5, r6, sl, fp, sp, lr}^
     3d4:	2f00532e 	svccs	0x0000532e
     3d8:	656d6f68 	strbvs	r6, [sp, #-3944]!	; 0xfffff098
     3dc:	72616b2f 	rsbvc	r6, r1, #48128	; 0xbc00
     3e0:	65656c6c 	strbvs	r6, [r5, #-3180]!	; 0xfffff394
     3e4:	776c612f 	strbvc	r6, [ip, -pc, lsr #2]!
     3e8:	656e6e69 	strbvs	r6, [lr, #-3689]!	; 0xfffff197
     3ec:	50422f72 	subpl	r2, r2, r2, ror pc
     3f0:	324d2d49 	subcc	r2, sp, #4672	; 0x1240
     3f4:	73622d4d 	cmnvc	r2, #4928	; 0x1340
     3f8:	696c2f70 	stmdbvs	ip!, {r4, r5, r6, r8, r9, sl, fp, sp}^
     3fc:	2d78756e 	cfldr64cs	mvdx7, [r8, #-440]!	; 0xfffffe48
     400:	786e7573 	stmdavc	lr!, {r0, r1, r4, r5, r6, r8, sl, ip, sp, lr}^
     404:	4e470069 	cdpmi	0, 4, cr0, cr7, cr9, {3}
     408:	53412055 	movtpl	r2, #4181	; 0x1055
     40c:	322e3220 	eorcc	r3, lr, #32, 4
     410:	80010036 	andhi	r0, r1, r6, lsr r0
     414:	00000067 	andeq	r0, r0, r7, rrx
     418:	01620004 	cmneq	r2, r4
     41c:	01040000 	mrseq	r0, (UNDEF: 4)
     420:	00000000 	andeq	r0, r0, r0
     424:	00039e0c 	andeq	r9, r3, ip, lsl #28
     428:	00019600 	andeq	r9, r1, r0, lsl #12
     42c:	00024c00 	andeq	r4, r2, r0, lsl #24
     430:	06010200 	streq	r0, [r1], -r0, lsl #4
     434:	00000114 	andeq	r0, r0, r4, lsl r1
     438:	12080102 	andne	r0, r8, #-2147483648	; 0x80000000
     43c:	02000001 	andeq	r0, r0, #1
     440:	02760502 	rsbseq	r0, r6, #8388608	; 0x800000
     444:	02020000 	andeq	r0, r2, #0
     448:	00013607 	andeq	r3, r1, r7, lsl #12
     44c:	05040300 	streq	r0, [r4, #-768]	; 0xfffffd00
     450:	00746e69 	rsbseq	r6, r4, r9, ror #28
     454:	e6070402 	str	r0, [r7], -r2, lsl #8
     458:	02000001 	andeq	r0, r0, #1
     45c:	02360508 	eorseq	r0, r6, #8, 10	; 0x2000000
     460:	08020000 	stmdaeq	r2, {}	; <UNPREDICTABLE>
     464:	0001dc07 	andeq	sp, r1, r7, lsl #24
     468:	07040200 	streq	r0, [r4, -r0, lsl #4]
     46c:	0000022d 	andeq	r0, r0, sp, lsr #4
     470:	1b080102 	blne	200880 <__bss_end+0x1fd704>
     474:	02000001 	andeq	r0, r0, #1
     478:	01e10704 	mvneq	r0, r4, lsl #14
     47c:	67000000 	strvs	r0, [r0, -r0]
     480:	04000000 	streq	r0, [r0], #-0
     484:	00018800 	andeq	r8, r1, r0, lsl #16
     488:	00010400 	andeq	r0, r1, r0, lsl #8
     48c:	0c000000 	stceq	0, cr0, [r0], {-0}
     490:	000003d1 	ldrdeq	r0, [r0], -r1
     494:	00000196 	muleq	r0, r6, r1
     498:	00000269 	andeq	r0, r0, r9, ror #4
     49c:	14060102 	strne	r0, [r6], #-258	; 0xfffffefe
     4a0:	02000001 	andeq	r0, r0, #1
     4a4:	01120801 	tsteq	r2, r1, lsl #16
     4a8:	02020000 	andeq	r0, r2, #0
     4ac:	00027605 	andeq	r7, r2, r5, lsl #12
     4b0:	07020200 	streq	r0, [r2, -r0, lsl #4]
     4b4:	00000136 	andeq	r0, r0, r6, lsr r1
     4b8:	69050403 	stmdbvs	r5, {r0, r1, sl}
     4bc:	0200746e 	andeq	r7, r0, #1845493760	; 0x6e000000
     4c0:	01e60704 	mvneq	r0, r4, lsl #14
     4c4:	08020000 	stmdaeq	r2, {}	; <UNPREDICTABLE>
     4c8:	00023605 	andeq	r3, r2, r5, lsl #12
     4cc:	07080200 	streq	r0, [r8, -r0, lsl #4]
     4d0:	000001dc 	ldrdeq	r0, [r0], -ip
     4d4:	2d070402 	cfstrscs	mvf0, [r7, #-8]
     4d8:	02000002 	andeq	r0, r0, #2
     4dc:	011b0801 	tsteq	fp, r1, lsl #16
     4e0:	04020000 	streq	r0, [r2], #-0
     4e4:	0001e107 	andeq	lr, r1, r7, lsl #2
     4e8:	00670000 	rsbeq	r0, r7, r0
     4ec:	00040000 	andeq	r0, r4, r0
     4f0:	000001ae 	andeq	r0, r0, lr, lsr #3
     4f4:	00000104 	andeq	r0, r0, r4, lsl #2
     4f8:	040c0000 	streq	r0, [ip], #-0
     4fc:	96000004 	strls	r0, [r0], -r4
     500:	86000001 	strhi	r0, [r0], -r1
     504:	02000002 	andeq	r0, r0, #2
     508:	01140601 	tsteq	r4, r1, lsl #12
     50c:	01020000 	mrseq	r0, (UNDEF: 2)
     510:	00011208 	andeq	r1, r1, r8, lsl #4
     514:	05020200 	streq	r0, [r2, #-512]	; 0xfffffe00
     518:	00000276 	andeq	r0, r0, r6, ror r2
     51c:	36070202 	strcc	r0, [r7], -r2, lsl #4
     520:	03000001 	movweq	r0, #1
     524:	6e690504 	cdpvs	5, 6, cr0, cr9, cr4, {0}
     528:	04020074 	streq	r0, [r2], #-116	; 0xffffff8c
     52c:	0001e607 	andeq	lr, r1, r7, lsl #12
     530:	05080200 	streq	r0, [r8, #-512]	; 0xfffffe00
     534:	00000236 	andeq	r0, r0, r6, lsr r2
     538:	dc070802 	stcle	8, cr0, [r7], {2}
     53c:	02000001 	andeq	r0, r0, #1
     540:	022d0704 	eoreq	r0, sp, #4, 14	; 0x100000
     544:	01020000 	mrseq	r0, (UNDEF: 2)
     548:	00011b08 	andeq	r1, r1, r8, lsl #22
     54c:	07040200 	streq	r0, [r4, -r0, lsl #4]
     550:	000001e1 	andeq	r0, r0, r1, ror #3
     554:	0017b100 	andseq	fp, r7, r0, lsl #2
     558:	d4000400 	strle	r0, [r0], #-1024	; 0xfffffc00
     55c:	04000001 	streq	r0, [r0], #-1
     560:	00000001 	andeq	r0, r0, r1
     564:	08ff0c00 	ldmeq	pc!, {sl, fp}^	; <UNPREDICTABLE>
     568:	01960000 	orrseq	r0, r6, r0
     56c:	01340000 	teqeq	r4, r0
     570:	02b80000 	adcseq	r0, r8, #0
     574:	02a30000 	adceq	r0, r3, #0
     578:	01020000 	mrseq	r0, (UNDEF: 2)
     57c:	00011406 	andeq	r1, r1, r6, lsl #8
     580:	0de60300 	stcleq	3, cr0, [r6]
     584:	0f020000 	svceq	0x00020000
     588:	00000037 	andeq	r0, r0, r7, lsr r0
     58c:	12080102 	andne	r0, r8, #-2147483648	; 0x80000000
     590:	02000001 	andeq	r0, r0, #1
     594:	02760502 	rsbseq	r0, r6, #8388608	; 0x800000
     598:	02020000 	andeq	r0, r2, #0
     59c:	00013607 	andeq	r3, r1, r7, lsl #12
     5a0:	05040400 	streq	r0, [r4, #-1024]	; 0xfffffc00
     5a4:	00746e69 	rsbseq	r6, r4, r9, ror #28
     5a8:	000a8003 	andeq	r8, sl, r3
     5ac:	5e130200 	cdppl	2, 1, cr0, cr3, cr0, {0}
     5b0:	02000000 	andeq	r0, r0, #0
     5b4:	01e60704 	mvneq	r0, r4, lsl #14
     5b8:	08020000 	stmdaeq	r2, {}	; <UNPREDICTABLE>
     5bc:	00023605 	andeq	r3, r2, r5, lsl #12
     5c0:	07080200 	streq	r0, [r8, -r0, lsl #4]
     5c4:	000001dc 	ldrdeq	r0, [r0], -ip
     5c8:	1a030405 	bne	c15e4 <__bss_end+0xbe468>
     5cc:	0000013f 	andeq	r0, r0, pc, lsr r1
     5d0:	00074006 	andeq	r4, r7, r6
     5d4:	531c0300 	tstpl	ip, #0, 6
     5d8:	04000000 	streq	r0, [r0], #-0
     5dc:	06001e02 	streq	r1, [r0], -r2, lsl #28
     5e0:	00000d34 	andeq	r0, r0, r4, lsr sp
     5e4:	00531d03 	subseq	r1, r3, r3, lsl #26
     5e8:	02040000 	andeq	r0, r4, #0
     5ec:	3806001c 	stmdacc	r6, {r2, r3, r4}
     5f0:	03000007 	movweq	r0, #7
     5f4:	0000531e 	andeq	r5, r0, lr, lsl r3
     5f8:	1a020400 	bne	81600 <__bss_end+0x7e484>
     5fc:	0d3e0600 	ldceq	6, cr0, [lr, #-0]
     600:	1f030000 	svcne	0x00030000
     604:	00000053 	andeq	r0, r0, r3, asr r0
     608:	00180204 	andseq	r0, r8, r4, lsl #4
     60c:	00074806 	andeq	r4, r7, r6, lsl #16
     610:	53200300 	noppl	{0}	; <UNPREDICTABLE>
     614:	04000000 	streq	r0, [r0], #-0
     618:	06001305 	streq	r1, [r0], -r5, lsl #6
     61c:	00000d48 	andeq	r0, r0, r8, asr #26
     620:	00532103 	subseq	r2, r3, r3, lsl #2
     624:	03040000 	movweq	r0, #16384	; 0x4000
     628:	58060010 	stmdapl	r6, {r4}
     62c:	03000007 	movweq	r0, #7
     630:	00005322 	andeq	r5, r0, r2, lsr #6
     634:	0e020400 	cfcpyseq	mvf0, mvf2
     638:	0d520600 	ldcleq	6, cr0, [r2, #-0]
     63c:	23030000 	movwcs	r0, #12288	; 0x3000
     640:	00000053 	andeq	r0, r0, r3, asr r0
     644:	00080604 	andeq	r0, r8, r4, lsl #12
     648:	000a5f06 	andeq	r5, sl, r6, lsl #30
     64c:	53240300 			; <UNDEFINED> instruction: 0x53240300
     650:	04000000 	streq	r0, [r0], #-0
     654:	06000701 	streq	r0, [r0], -r1, lsl #14
     658:	00000d5c 	andeq	r0, r0, ip, asr sp
     65c:	00532503 	subseq	r2, r3, r3, lsl #10
     660:	03040000 	movweq	r0, #16384	; 0x4000
     664:	fb060004 	blx	18067e <__bss_end+0x17d502>
     668:	0300000b 	movweq	r0, #11
     66c:	00005326 	andeq	r5, r0, r6, lsr #6
     670:	03010400 	movweq	r0, #5120	; 0x1400
     674:	0d660600 	stcleq	6, cr0, [r6, #-0]
     678:	27030000 	strcs	r0, [r3, -r0]
     67c:	00000053 	andeq	r0, r0, r3, asr r0
     680:	00010204 	andeq	r0, r1, r4, lsl #4
     684:	000caa06 	andeq	sl, ip, r6, lsl #20
     688:	53280300 			; <UNDEFINED> instruction: 0x53280300
     68c:	04000000 	streq	r0, [r0], #-0
     690:	00000001 	andeq	r0, r0, r1
     694:	18030407 	stmdane	r3, {r0, r1, r2, sl}
     698:	0000015e 	andeq	r0, r0, lr, asr r1
     69c:	0004d208 	andeq	sp, r4, r8, lsl #4
     6a0:	53190300 	tstpl	r9, #0, 6
     6a4:	08000000 	stmdaeq	r0, {}	; <UNPREDICTABLE>
     6a8:	00000ad0 	ldrdeq	r0, [r0], -r0	; <UNPREDICTABLE>
     6ac:	00732a03 	rsbseq	r2, r3, r3, lsl #20
     6b0:	03000000 	movweq	r0, #0
     6b4:	00000cb0 			; <UNDEFINED> instruction: 0x00000cb0
     6b8:	013f2b03 	teqeq	pc, r3, lsl #22
     6bc:	d1090000 	mrsle	r0, (UNDEF: 9)
     6c0:	0400000c 	streq	r0, [r0], #-12
     6c4:	021b2e03 	andseq	r2, fp, #3, 28	; 0x30
     6c8:	40060000 	andmi	r0, r6, r0
     6cc:	03000007 	movweq	r0, #7
     6d0:	00005330 	andeq	r5, r0, r0, lsr r3
     6d4:	1b050400 	blne	1416dc <__bss_end+0x13e560>
     6d8:	0d340600 	ldceq	6, cr0, [r4, #-0]
     6dc:	31030000 	mrscc	r0, (UNDEF: 3)
     6e0:	00000053 	andeq	r0, r0, r3, asr r0
     6e4:	00180304 	andseq	r0, r8, r4, lsl #6
     6e8:	00074806 	andeq	r4, r7, r6, lsl #16
     6ec:	53320300 	teqpl	r2, #0, 6
     6f0:	04000000 	streq	r0, [r0], #-0
     6f4:	06001107 	streq	r1, [r0], -r7, lsl #2
     6f8:	00000d3e 	andeq	r0, r0, lr, lsr sp
     6fc:	00533303 	subseq	r3, r3, r3, lsl #6
     700:	01040000 	mrseq	r0, (UNDEF: 4)
     704:	58060010 	stmdapl	r6, {r4}
     708:	03000007 	movweq	r0, #7
     70c:	00005334 	andeq	r5, r0, r4, lsr r3
     710:	0c040400 	cfstrseq	mvf0, [r4], {-0}
     714:	0d480600 	stcleq	6, cr0, [r8, #-0]
     718:	35030000 	strcc	r0, [r3, #-0]
     71c:	00000053 	andeq	r0, r0, r3, asr r0
     720:	00080404 	andeq	r0, r8, r4, lsl #8
     724:	000bd006 	andeq	sp, fp, r6
     728:	53360300 	teqpl	r6, #0, 6
     72c:	04000000 	streq	r0, [r0], #-0
     730:	06000701 	streq	r0, [r0], -r1, lsl #14
     734:	00000d52 	andeq	r0, r0, r2, asr sp
     738:	00533703 	subseq	r3, r3, r3, lsl #14
     73c:	03040000 	movweq	r0, #16384	; 0x4000
     740:	fb060004 	blx	18075a <__bss_end+0x17d5de>
     744:	0300000b 	movweq	r0, #11
     748:	00005338 	andeq	r5, r0, r8, lsr r3
     74c:	03010400 	movweq	r0, #5120	; 0x1400
     750:	0d5c0600 	ldcleq	6, cr0, [ip, #-0]
     754:	39030000 	stmdbcc	r3, {}	; <UNPREDICTABLE>
     758:	00000053 	andeq	r0, r0, r3, asr r0
     75c:	00010204 	andeq	r0, r1, r4, lsl #4
     760:	000caa06 	andeq	sl, ip, r6, lsl #20
     764:	533a0300 	teqpl	sl, #0, 6
     768:	04000000 	streq	r0, [r0], #-0
     76c:	00000001 	andeq	r0, r0, r1
     770:	000c2303 	andeq	r2, ip, r3, lsl #6
     774:	693b0300 	ldmdbvs	fp!, {r8, r9}
     778:	09000001 	stmdbeq	r0, {r0}
     77c:	00000c90 	muleq	r0, r0, ip
     780:	f6500304 			; <UNDEFINED> instruction: 0xf6500304
     784:	06000002 	streq	r0, [r0], -r2
     788:	00000740 	andeq	r0, r0, r0, asr #14
     78c:	00535203 	subseq	r5, r3, r3, lsl #4
     790:	02040000 	andeq	r0, r4, #0
     794:	3406001e 	strcc	r0, [r6], #-30	; 0xffffffe2
     798:	0300000d 	movweq	r0, #13
     79c:	00005353 	andeq	r5, r0, r3, asr r3
     7a0:	1c020400 	cfstrsne	mvf0, [r2], {-0}
     7a4:	07380600 	ldreq	r0, [r8, -r0, lsl #12]!
     7a8:	54030000 	strpl	r0, [r3], #-0
     7ac:	00000053 	andeq	r0, r0, r3, asr r0
     7b0:	001a0204 	andseq	r0, sl, r4, lsl #4
     7b4:	000d3e06 	andeq	r3, sp, r6, lsl #28
     7b8:	53550300 	cmppl	r5, #0, 6
     7bc:	04000000 	streq	r0, [r0], #-0
     7c0:	06001802 	streq	r1, [r0], -r2, lsl #16
     7c4:	00000748 	andeq	r0, r0, r8, asr #14
     7c8:	00535603 	subseq	r5, r3, r3, lsl #12
     7cc:	05040000 	streq	r0, [r4, #-0]
     7d0:	48060013 	stmdami	r6, {r0, r1, r4}
     7d4:	0300000d 	movweq	r0, #13
     7d8:	00005357 	andeq	r5, r0, r7, asr r3
     7dc:	0c070400 	cfstrseq	mvf0, [r7], {-0}
     7e0:	06950600 	ldreq	r0, [r5], r0, lsl #12
     7e4:	58030000 	stmdapl	r3, {}	; <UNPREDICTABLE>
     7e8:	00000053 	andeq	r0, r0, r3, asr r0
     7ec:	000b0104 	andeq	r0, fp, r4, lsl #2
     7f0:	000d5206 	andeq	r5, sp, r6, lsl #4
     7f4:	53590300 	cmppl	r9, #0, 6
     7f8:	04000000 	streq	r0, [r0], #-0
     7fc:	06000803 	streq	r0, [r0], -r3, lsl #16
     800:	00000a67 	andeq	r0, r0, r7, ror #20
     804:	00535a03 	subseq	r5, r3, r3, lsl #20
     808:	01040000 	mrseq	r0, (UNDEF: 4)
     80c:	5c060007 	stcpl	0, cr0, [r6], {7}
     810:	0300000d 	movweq	r0, #13
     814:	0000535b 	andeq	r5, r0, fp, asr r3
     818:	04030400 	streq	r0, [r3], #-1024	; 0xfffffc00
     81c:	0bfb0600 	bleq	ffec2024 <__bss_end+0xffebeea8>
     820:	5c030000 	stcpl	0, cr0, [r3], {-0}
     824:	00000053 	andeq	r0, r0, r3, asr r0
     828:	00030104 	andeq	r0, r3, r4, lsl #2
     82c:	000d6606 	andeq	r6, sp, r6, lsl #12
     830:	535d0300 	cmppl	sp, #0, 6
     834:	04000000 	streq	r0, [r0], #-0
     838:	06000102 	streq	r0, [r0], -r2, lsl #2
     83c:	00000caa 	andeq	r0, r0, sl, lsr #25
     840:	00535e03 	subseq	r5, r3, r3, lsl #28
     844:	01040000 	mrseq	r0, (UNDEF: 4)
     848:	03000000 	movweq	r0, #0
     84c:	000006ae 	andeq	r0, r0, lr, lsr #13
     850:	02265f03 	eoreq	r5, r6, #3, 30
     854:	a4090000 	strge	r0, [r9], #-0
     858:	04000010 	streq	r0, [r0], #-16
     85c:	03ef6203 	mvneq	r6, #805306368	; 0x30000000
     860:	40060000 	andmi	r0, r6, r0
     864:	03000007 	movweq	r0, #7
     868:	00005364 	andeq	r5, r0, r4, ror #6
     86c:	1e020400 	cfcpysne	mvf0, mvf2
     870:	0d340600 	ldceq	6, cr0, [r4, #-0]
     874:	65030000 	strvs	r0, [r3, #-0]
     878:	00000053 	andeq	r0, r0, r3, asr r0
     87c:	001c0204 	andseq	r0, ip, r4, lsl #4
     880:	00073806 	andeq	r3, r7, r6, lsl #16
     884:	53660300 	cmnpl	r6, #0, 6
     888:	04000000 	streq	r0, [r0], #-0
     88c:	06001a02 	streq	r1, [r0], -r2, lsl #20
     890:	00000d3e 	andeq	r0, r0, lr, lsr sp
     894:	00536703 	subseq	r6, r3, r3, lsl #14
     898:	02040000 	andeq	r0, r4, #0
     89c:	48060018 	stmdami	r6, {r3, r4}
     8a0:	03000007 	movweq	r0, #7
     8a4:	00005368 	andeq	r5, r0, r8, ror #6
     8a8:	13050400 	movwne	r0, #21504	; 0x5400
     8ac:	0d480600 	stcleq	6, cr0, [r8, #-0]
     8b0:	69030000 	stmdbvs	r3, {}	; <UNPREDICTABLE>
     8b4:	00000053 	andeq	r0, r0, r3, asr r0
     8b8:	00100304 	andseq	r0, r0, r4, lsl #6
     8bc:	000ed506 	andeq	sp, lr, r6, lsl #10
     8c0:	536a0300 	cmnpl	sl, #0, 6
     8c4:	04000000 	streq	r0, [r0], #-0
     8c8:	06000e02 	streq	r0, [r0], -r2, lsl #28
     8cc:	00000436 	andeq	r0, r0, r6, lsr r4
     8d0:	00536b03 	subseq	r6, r3, r3, lsl #22
     8d4:	01040000 	mrseq	r0, (UNDEF: 4)
     8d8:	5206000d 	andpl	r0, r6, #13
     8dc:	0300000d 	movweq	r0, #13
     8e0:	0000536c 	andeq	r5, r0, ip, ror #6
     8e4:	08050400 	stmdaeq	r5, {sl}
     8e8:	0b590600 	bleq	16420f0 <__bss_end+0x163ef74>
     8ec:	6d030000 	stcvs	0, cr0, [r3, #-0]
     8f0:	00000053 	andeq	r0, r0, r3, asr r0
     8f4:	00070104 	andeq	r0, r7, r4, lsl #2
     8f8:	000b0f06 	andeq	r0, fp, r6, lsl #30
     8fc:	536e0300 	cmnpl	lr, #0, 6
     900:	04000000 	streq	r0, [r0], #-0
     904:	06000601 	streq	r0, [r0], -r1, lsl #12
     908:	00000d5c 	andeq	r0, r0, ip, asr sp
     90c:	00536f03 	subseq	r6, r3, r3, lsl #30
     910:	02040000 	andeq	r0, r4, #0
     914:	fb060004 	blx	18092e <__bss_end+0x17d7b2>
     918:	0300000b 	movweq	r0, #11
     91c:	00005370 	andeq	r5, r0, r0, ror r3
     920:	03010400 	movweq	r0, #5120	; 0x1400
     924:	0d660600 	stcleq	6, cr0, [r6, #-0]
     928:	71030000 	mrsvc	r0, (UNDEF: 3)
     92c:	00000053 	andeq	r0, r0, r3, asr r0
     930:	00010204 	andeq	r0, r1, r4, lsl #4
     934:	000caa06 	andeq	sl, ip, r6, lsl #20
     938:	53720300 	cmnpl	r2, #0, 6
     93c:	04000000 	streq	r0, [r0], #-0
     940:	00000001 	andeq	r0, r0, r1
     944:	0005c403 	andeq	ip, r5, r3, lsl #8
     948:	01730300 	cmneq	r3, r0, lsl #6
     94c:	09000003 	stmdbeq	r0, {r0, r1}
     950:	00000887 	andeq	r0, r0, r7, lsl #17
     954:	bb750304 	bllt	1d4156c <__bss_end+0x1d3e3f0>
     958:	06000004 	streq	r0, [r0], -r4
     95c:	00000740 	andeq	r0, r0, r0, asr #14
     960:	00537703 	subseq	r7, r3, r3, lsl #14
     964:	04040000 	streq	r0, [r4], #-0
     968:	3406001c 	strcc	r0, [r6], #-28	; 0xffffffe4
     96c:	0300000d 	movweq	r0, #13
     970:	00005378 	andeq	r5, r0, r8, ror r3
     974:	18040400 	stmdane	r4, {sl}
     978:	07480600 	strbeq	r0, [r8, -r0, lsl #12]
     97c:	79030000 	stmdbvc	r3, {}	; <UNPREDICTABLE>
     980:	00000053 	andeq	r0, r0, r3, asr r0
     984:	00110704 	andseq	r0, r1, r4, lsl #14
     988:	000d3e06 	andeq	r3, sp, r6, lsl #28
     98c:	537a0300 	cmnpl	sl, #0, 6
     990:	04000000 	streq	r0, [r0], #-0
     994:	06000c05 	streq	r0, [r0], -r5, lsl #24
     998:	00000bd0 	ldrdeq	r0, [r0], -r0	; <UNPREDICTABLE>
     99c:	00537b03 	subseq	r7, r3, r3, lsl #22
     9a0:	01040000 	mrseq	r0, (UNDEF: 4)
     9a4:	4806000b 	stmdami	r6, {r0, r1, r3}
     9a8:	0300000d 	movweq	r0, #13
     9ac:	0000537c 	andeq	r5, r0, ip, ror r3
     9b0:	08030400 	stmdaeq	r3, {sl}
     9b4:	0c5f0600 	mrrceq	6, 0, r0, pc, cr0	; <UNPREDICTABLE>
     9b8:	7d030000 	stcvc	0, cr0, [r3, #-0]
     9bc:	00000053 	andeq	r0, r0, r3, asr r0
     9c0:	00070104 	andeq	r0, r7, r4, lsl #2
     9c4:	000dc206 	andeq	ip, sp, r6, lsl #4
     9c8:	537e0300 	cmnpl	lr, #0, 6
     9cc:	04000000 	streq	r0, [r0], #-0
     9d0:	06000601 	streq	r0, [r0], -r1, lsl #12
     9d4:	00000d52 	andeq	r0, r0, r2, asr sp
     9d8:	00537f03 	subseq	r7, r3, r3, lsl #30
     9dc:	02040000 	andeq	r0, r4, #0
     9e0:	fb060004 	blx	1809fa <__bss_end+0x17d87e>
     9e4:	0300000b 	movweq	r0, #11
     9e8:	00005380 	andeq	r5, r0, r0, lsl #7
     9ec:	03010400 	movweq	r0, #5120	; 0x1400
     9f0:	0d5c0600 	ldcleq	6, cr0, [ip, #-0]
     9f4:	81030000 	mrshi	r0, (UNDEF: 3)
     9f8:	00000053 	andeq	r0, r0, r3, asr r0
     9fc:	00010204 	andeq	r0, r1, r4, lsl #4
     a00:	000caa06 	andeq	sl, ip, r6, lsl #20
     a04:	53820300 	orrpl	r0, r2, #0, 6
     a08:	04000000 	streq	r0, [r0], #-0
     a0c:	00000001 	andeq	r0, r0, r1
     a10:	0009a303 	andeq	sl, r9, r3, lsl #6
     a14:	fa830300 	blx	fe0c161c <__bss_end+0xfe0be4a0>
     a18:	09000003 	stmdbeq	r0, {r0, r1}
     a1c:	00000bdf 	ldrdeq	r0, [r0], -pc	; <UNPREDICTABLE>
     a20:	f0860304 			; <UNDEFINED> instruction: 0xf0860304
     a24:	06000005 	streq	r0, [r0], -r5
     a28:	00000740 	andeq	r0, r0, r0, asr #14
     a2c:	00538803 	subseq	r8, r3, r3, lsl #16
     a30:	04040000 	streq	r0, [r4], #-0
     a34:	3806001c 	stmdacc	r6, {r2, r3, r4}
     a38:	03000007 	movweq	r0, #7
     a3c:	00005389 	andeq	r5, r0, r9, lsl #7
     a40:	1a020400 	bne	81a48 <__bss_end+0x7e8cc>
     a44:	0d340600 	ldceq	6, cr0, [r4, #-0]
     a48:	8a030000 	bhi	c0a50 <__bss_end+0xbd8d4>
     a4c:	00000053 	andeq	r0, r0, r3, asr r0
     a50:	00180204 	andseq	r0, r8, r4, lsl #4
     a54:	00074806 	andeq	r4, r7, r6, lsl #16
     a58:	538b0300 	orrpl	r0, fp, #0, 6
     a5c:	04000000 	streq	r0, [r0], #-0
     a60:	06001404 	streq	r1, [r0], -r4, lsl #8
     a64:	00000d3e 	andeq	r0, r0, lr, lsr sp
     a68:	00538c03 	subseq	r8, r3, r3, lsl #24
     a6c:	04040000 	streq	r0, [r4], #-0
     a70:	d2060010 	andle	r0, r6, #16
     a74:	03000006 	movweq	r0, #6
     a78:	0000538d 	andeq	r5, r0, sp, lsl #7
     a7c:	0f010400 	svceq	0x00010400
     a80:	0c670600 	stcleq	6, cr0, [r7], #-0
     a84:	8f030000 	svchi	0x00030000
     a88:	00000053 	andeq	r0, r0, r3, asr r0
     a8c:	000e0104 	andeq	r0, lr, r4, lsl #2
     a90:	000d4806 	andeq	r4, sp, r6, lsl #16
     a94:	53900300 	orrspl	r0, r0, #0, 6
     a98:	04000000 	streq	r0, [r0], #-0
     a9c:	06000c02 	streq	r0, [r0], -r2, lsl #24
     aa0:	00000bd0 	ldrdeq	r0, [r0], -r0	; <UNPREDICTABLE>
     aa4:	00539103 	subseq	r9, r3, r3, lsl #2
     aa8:	01040000 	mrseq	r0, (UNDEF: 4)
     aac:	7b06000b 	blvc	180ae0 <__bss_end+0x17d964>
     ab0:	03000005 	movweq	r0, #5
     ab4:	00005392 	muleq	r0, r2, r3
     ab8:	0a010400 	beq	41ac0 <__bss_end+0x3e944>
     abc:	060f0600 	streq	r0, [pc], -r0, lsl #12
     ac0:	93030000 	movwls	r0, #12288	; 0x3000
     ac4:	00000053 	andeq	r0, r0, r3, asr r0
     ac8:	00090104 	andeq	r0, r9, r4, lsl #2
     acc:	000d2d06 	andeq	r2, sp, r6, lsl #26
     ad0:	53940300 	orrspl	r0, r4, #0, 6
     ad4:	04000000 	streq	r0, [r0], #-0
     ad8:	06000801 	streq	r0, [r0], -r1, lsl #16
     adc:	00000d52 	andeq	r0, r0, r2, asr sp
     ae0:	00539503 	subseq	r9, r3, r3, lsl #10
     ae4:	01040000 	mrseq	r0, (UNDEF: 4)
     ae8:	17060007 	strne	r0, [r6, -r7]
     aec:	0300000c 	movweq	r0, #12
     af0:	00005396 	muleq	r0, r6, r3
     af4:	06010400 	streq	r0, [r1], -r0, lsl #8
     af8:	0ca40600 	stceq	6, cr0, [r4]
     afc:	97030000 	strls	r0, [r3, -r0]
     b00:	00000053 	andeq	r0, r0, r3, asr r0
     b04:	00050104 	andeq	r0, r5, r4, lsl #2
     b08:	000e7106 	andeq	r7, lr, r6, lsl #2
     b0c:	53980300 	orrspl	r0, r8, #0, 6
     b10:	04000000 	streq	r0, [r0], #-0
     b14:	06000401 	streq	r0, [r0], -r1, lsl #8
     b18:	00000bfb 	strdeq	r0, [r0], -fp
     b1c:	00539903 	subseq	r9, r3, r3, lsl #18
     b20:	01040000 	mrseq	r0, (UNDEF: 4)
     b24:	5c060003 	stcpl	0, cr0, [r6], {3}
     b28:	0300000d 	movweq	r0, #13
     b2c:	0000539a 	muleq	r0, sl, r3
     b30:	01020400 	tsteq	r2, r0, lsl #8
     b34:	0caa0600 	stceq	6, cr0, [sl]
     b38:	9b030000 	blls	c0b40 <__bss_end+0xbd9c4>
     b3c:	00000053 	andeq	r0, r0, r3, asr r0
     b40:	00000104 	andeq	r0, r0, r4, lsl #2
     b44:	04820300 	streq	r0, [r2], #768	; 0x300
     b48:	9c030000 	stcls	0, cr0, [r3], {-0}
     b4c:	000004c6 	andeq	r0, r0, r6, asr #9
     b50:	a4030405 	strge	r0, [r3], #-1029	; 0xfffffbfb
     b54:	0000065e 	andeq	r0, r0, lr, asr r6
     b58:	000fe106 	andeq	lr, pc, r6, lsl #2
     b5c:	53a60300 			; <UNDEFINED> instruction: 0x53a60300
     b60:	04000000 	streq	r0, [r0], #-0
     b64:	06001e02 	streq	r1, [r0], -r2, lsl #28
     b68:	00000d34 	andeq	r0, r0, r4, lsr sp
     b6c:	0053a703 	subseq	sl, r3, r3, lsl #14
     b70:	06040000 	streq	r0, [r4], -r0
     b74:	e5060018 	str	r0, [r6, #-24]	; 0xffffffe8
     b78:	0300000c 	movweq	r0, #12
     b7c:	000053a8 	andeq	r5, r0, r8, lsr #7
     b80:	16020400 	strne	r0, [r2], -r0, lsl #8
     b84:	0d3e0600 	ldceq	6, cr0, [lr, #-0]
     b88:	a9030000 	stmdbge	r3, {}	; <UNPREDICTABLE>
     b8c:	00000053 	andeq	r0, r0, r3, asr r0
     b90:	00100604 	andseq	r0, r0, r4, lsl #12
     b94:	0008c206 	andeq	ip, r8, r6, lsl #4
     b98:	53aa0300 			; <UNDEFINED> instruction: 0x53aa0300
     b9c:	04000000 	streq	r0, [r0], #-0
     ba0:	06000e02 	streq	r0, [r0], -r2, lsl #28
     ba4:	00000d48 	andeq	r0, r0, r8, asr #26
     ba8:	0053ab03 	subseq	sl, r3, r3, lsl #22
     bac:	0e040000 	cdpeq	0, 0, cr0, cr4, cr0, {0}
     bb0:	07000000 	streq	r0, [r0, -r0]
     bb4:	7da20304 	stcvc	3, cr0, [r2, #16]!
     bb8:	08000006 	stmdaeq	r0, {r1, r2}
     bbc:	000004d2 	ldrdeq	r0, [r0], -r2
     bc0:	0053a303 	subseq	sl, r3, r3, lsl #6
     bc4:	d0080000 	andle	r0, r8, r0
     bc8:	0300000a 	movweq	r0, #10
     bcc:	0005fbac 	andeq	pc, r5, ip, lsr #23
     bd0:	f1030000 			; <UNDEFINED> instruction: 0xf1030000
     bd4:	03000005 	movweq	r0, #5
     bd8:	00065ead 	andeq	r5, r6, sp, lsr #29
     bdc:	04520900 	ldrbeq	r0, [r2], #-2304	; 0xfffff700
     be0:	03040000 	movweq	r0, #16384	; 0x4000
     be4:	0006feb4 			; <UNDEFINED> instruction: 0x0006feb4
     be8:	0d340600 	ldceq	6, cr0, [r4, #-0]
     bec:	b6030000 	strlt	r0, [r3], -r0
     bf0:	00000053 	andeq	r0, r0, r3, asr r0
     bf4:	001c0404 	andseq	r0, ip, r4, lsl #8
     bf8:	000b2806 	andeq	r2, fp, r6, lsl #16
     bfc:	53b70300 			; <UNDEFINED> instruction: 0x53b70300
     c00:	04000000 	streq	r0, [r0], #-0
     c04:	06001a02 	streq	r1, [r0], -r2, lsl #20
     c08:	00000fa4 	andeq	r0, r0, r4, lsr #31
     c0c:	0053b803 	subseq	fp, r3, r3, lsl #16
     c10:	02040000 	andeq	r0, r4, #0
     c14:	57060018 	smladpl	r6, r8, r0, r0
     c18:	0300000c 	movweq	r0, #12
     c1c:	000053b9 			; <UNDEFINED> instruction: 0x000053b9
     c20:	16020400 	strne	r0, [r2], -r0, lsl #8
     c24:	0d3e0600 	ldceq	6, cr0, [lr, #-0]
     c28:	ba030000 	blt	c0c30 <__bss_end+0xbdab4>
     c2c:	00000053 	andeq	r0, r0, r3, asr r0
     c30:	00140204 	andseq	r0, r4, r4, lsl #4
     c34:	000c4206 	andeq	r4, ip, r6, lsl #4
     c38:	53bb0300 			; <UNDEFINED> instruction: 0x53bb0300
     c3c:	04000000 	streq	r0, [r0], #-0
     c40:	06001202 	streq	r1, [r0], -r2, lsl #4
     c44:	00000d48 	andeq	r0, r0, r8, asr #26
     c48:	0053bc03 	subseq	fp, r3, r3, lsl #24
     c4c:	12040000 	andne	r0, r4, #0
     c50:	03000000 	movweq	r0, #0
     c54:	00000ee8 	andeq	r0, r0, r8, ror #29
     c58:	0688bd03 	streq	fp, [r8], r3, lsl #26
     c5c:	04050000 	streq	r0, [r5], #-0
     c60:	076cc503 	strbeq	ip, [ip, -r3, lsl #10]!
     c64:	e7060000 	str	r0, [r6, -r0]
     c68:	03000007 	movweq	r0, #7
     c6c:	000053c7 	andeq	r5, r0, r7, asr #7
     c70:	1b050400 	blne	141c78 <__bss_end+0x13eafc>
     c74:	0fd80600 	svceq	0x00d80600
     c78:	c8030000 	stmdagt	r3, {}	; <UNPREDICTABLE>
     c7c:	00000053 	andeq	r0, r0, r3, asr r0
     c80:	00100b04 	andseq	r0, r0, r4, lsl #22
     c84:	0007ec06 	andeq	lr, r7, r6, lsl #24
     c88:	53c90300 	bicpl	r0, r9, #0, 6
     c8c:	04000000 	streq	r0, [r0], #-0
     c90:	06000e02 	streq	r0, [r0], -r2, lsl #28
     c94:	00000d3e 	andeq	r0, r0, lr, lsr sp
     c98:	0053ca03 	subseq	ip, r3, r3, lsl #20
     c9c:	06040000 	streq	r0, [r4], -r0
     ca0:	46060008 	strmi	r0, [r6], -r8
     ca4:	0300000c 	movweq	r0, #12
     ca8:	000053cb 	andeq	r5, r0, fp, asr #7
     cac:	06020400 	streq	r0, [r2], -r0, lsl #8
     cb0:	0d480600 	stcleq	6, cr0, [r8, #-0]
     cb4:	cc030000 	stcgt	0, cr0, [r3], {-0}
     cb8:	00000053 	andeq	r0, r0, r3, asr r0
     cbc:	00000604 	andeq	r0, r0, r4, lsl #12
     cc0:	03040700 	movweq	r0, #18176	; 0x4700
     cc4:	00078bc3 	andeq	r8, r7, r3, asr #23
     cc8:	04d20800 	ldrbeq	r0, [r2], #2048	; 0x800
     ccc:	c4030000 	strgt	r0, [r3], #-0
     cd0:	00000053 	andeq	r0, r0, r3, asr r0
     cd4:	000ad008 	andeq	sp, sl, r8
     cd8:	09cd0300 	stmibeq	sp, {r8, r9}^
     cdc:	00000007 	andeq	r0, r0, r7
     ce0:	000b6503 	andeq	r6, fp, r3, lsl #10
     ce4:	6cce0300 	stclvs	3, cr0, [lr], {0}
     ce8:	09000007 	stmdbeq	r0, {r0, r1, r2}
     cec:	000009de 	ldrdeq	r0, [r0], -lr
     cf0:	c1d00304 	bicsgt	r0, r0, r4, lsl #6
     cf4:	06000007 	streq	r0, [r0], -r7
     cf8:	00000f9b 	muleq	r0, fp, pc	; <UNPREDICTABLE>
     cfc:	0053d203 	subseq	sp, r3, r3, lsl #4
     d00:	10040000 	andne	r0, r4, r0
     d04:	d8060010 	stmdale	r6, {r4}
     d08:	0300000f 	movweq	r0, #15
     d0c:	000053d3 	ldrdeq	r5, [r0], -r3
     d10:	00100400 	andseq	r0, r0, r0, lsl #8
     d14:	2e030000 	cdpcs	0, 0, cr0, cr3, cr0, {0}
     d18:	0300000e 	movweq	r0, #14
     d1c:	000796d4 	ldrdeq	r9, [r7], -r4
     d20:	104e0a00 	subne	r0, lr, r0, lsl #20
     d24:	02dc0000 	sbcseq	r0, ip, #0
     d28:	0e99d603 	cdpeq	6, 9, cr13, cr9, cr3, {0}
     d2c:	760b0000 	strvc	r0, [fp], -r0
     d30:	03000009 	movweq	r0, #9
     d34:	000e99d8 	ldrdeq	r9, [lr], -r8
     d38:	340b0000 	strcc	r0, [fp], #-0
     d3c:	0300000d 	movweq	r0, #13
     d40:	000e9ed9 	ldrdeq	r9, [lr], -r9	; <UNPREDICTABLE>
     d44:	460b0400 	strmi	r0, [fp], -r0, lsl #8
     d48:	03000010 	movweq	r0, #16
     d4c:	000ea3da 	ldrdeq	sl, [lr], -sl	; <UNPREDICTABLE>
     d50:	3e0b0800 	cdpcc	8, 0, cr0, cr11, cr0, {0}
     d54:	0300000d 	movweq	r0, #13
     d58:	000e9edb 	ldrdeq	r9, [lr], -fp
     d5c:	470b0c00 	strmi	r0, [fp, -r0, lsl #24]
     d60:	0300000b 	movweq	r0, #11
     d64:	000e9edc 	ldrdeq	r9, [lr], -ip
     d68:	480b1000 	stmdami	fp, {ip}
     d6c:	0300000d 	movweq	r0, #13
     d70:	000e9edd 	ldrdeq	r9, [lr], -sp
     d74:	a50b1400 	strge	r1, [fp, #-1024]	; 0xfffffc00
     d78:	03000005 	movweq	r0, #5
     d7c:	000e9ede 	ldrdeq	r9, [lr], -lr
     d80:	520b1800 	andpl	r1, fp, #0, 16
     d84:	0300000d 	movweq	r0, #13
     d88:	000e9edf 	ldrdeq	r9, [lr], -pc	; <UNPREDICTABLE>
     d8c:	7e0b1c00 	cdpvc	12, 0, cr1, cr11, cr0, {0}
     d90:	0300000c 	movweq	r0, #12
     d94:	000ea8e0 	andeq	sl, lr, r0, ror #17
     d98:	5c0b2000 	stcpl	0, cr2, [fp], {-0}
     d9c:	0300000d 	movweq	r0, #13
     da0:	000e9ee1 	andeq	r9, lr, r1, ror #29
     da4:	3c0b2400 	cfstrscc	mvf2, [fp], {-0}
     da8:	03000005 	movweq	r0, #5
     dac:	000eade2 	andeq	sl, lr, r2, ror #27
     db0:	660b2800 	strvs	r2, [fp], -r0, lsl #16
     db4:	0300000d 	movweq	r0, #13
     db8:	000e9ee3 	andeq	r9, lr, r3, ror #29
     dbc:	730b2c00 	movwvc	r2, #48128	; 0xbc00
     dc0:	0300000c 	movweq	r0, #12
     dc4:	000e9ee4 	andeq	r9, lr, r4, ror #29
     dc8:	700b3000 	andvc	r3, fp, r0
     dcc:	0300000d 	movweq	r0, #13
     dd0:	000e9ee5 	andeq	r9, lr, r5, ror #29
     dd4:	cb0b3400 	blgt	2cdddc <__bss_end+0x2cac60>
     dd8:	03000009 	movweq	r0, #9
     ddc:	000eb2e6 	andeq	fp, lr, r6, ror #5
     de0:	7a0b3800 	bvc	2cede8 <__bss_end+0x2cbc6c>
     de4:	0300000d 	movweq	r0, #13
     de8:	000e9ee7 	andeq	r9, lr, r7, ror #29
     dec:	2d0b3c00 	stccs	12, cr3, [fp, #-0]
     df0:	03000007 	movweq	r0, #7
     df4:	000eb7e8 	andeq	fp, lr, r8, ror #15
     df8:	b80b4000 	stmdalt	fp, {lr}
     dfc:	03000010 	movweq	r0, #16
     e00:	000e9ee9 	andeq	r9, lr, r9, ror #29
     e04:	9c0b4400 	cfstrsls	mvf4, [fp], {-0}
     e08:	03000005 	movweq	r0, #5
     e0c:	000e9eea 	andeq	r9, lr, sl, ror #29
     e10:	c60b4800 	strgt	r4, [fp], -r0, lsl #16
     e14:	0300000c 	movweq	r0, #12
     e18:	000e9eeb 	andeq	r9, lr, fp, ror #29
     e1c:	4f0b4c00 	svcmi	0x000b4c00
     e20:	0300000b 	movweq	r0, #11
     e24:	000ebcec 	andeq	fp, lr, ip, ror #25
     e28:	280b5000 	stmdacs	fp, {ip, lr}
     e2c:	0300000b 	movweq	r0, #11
     e30:	000ec1ed 	andeq	ip, lr, sp, ror #3
     e34:	500b5400 	andpl	r5, fp, r0, lsl #8
     e38:	03000007 	movweq	r0, #7
     e3c:	000ec6ee 	andeq	ip, lr, lr, ror #13
     e40:	270b5800 	strcs	r5, [fp, -r0, lsl #16]
     e44:	0300000f 	movweq	r0, #15
     e48:	000e9eef 	andeq	r9, lr, pc, ror #29
     e4c:	110b5c00 	tstne	fp, r0, lsl #24
     e50:	0300000e 	movweq	r0, #14
     e54:	000e9ef0 	strdeq	r9, [lr], -r0
     e58:	3c0b6000 	stccc	0, cr6, [fp], {-0}
     e5c:	03000009 	movweq	r0, #9
     e60:	000e9ef1 	strdeq	r9, [lr], -r1
     e64:	eb0b6400 	bl	2d9e6c <__bss_end+0x2d6cf0>
     e68:	0300000f 	movweq	r0, #15
     e6c:	000e9ef2 	strdeq	r9, [lr], -r2
     e70:	d60b6800 	strle	r6, [fp], -r0, lsl #16
     e74:	0300000b 	movweq	r0, #11
     e78:	000e9ef3 	strdeq	r9, [lr], -r3
     e7c:	840b6c00 	strhi	r6, [fp], #-3072	; 0xfffff400
     e80:	0300000d 	movweq	r0, #13
     e84:	000ee2f4 	strdeq	lr, [lr], -r4
     e88:	760b7000 	strvc	r7, [fp], -r0
     e8c:	03000010 	movweq	r0, #16
     e90:	000e9ef5 	strdeq	r9, [lr], -r5
     e94:	f40b8000 	vst4.8	{d8-d11}, [fp], r0
     e98:	0300000f 	movweq	r0, #15
     e9c:	000e9ef6 	strdeq	r9, [lr], -r6
     ea0:	530c8400 	movwpl	r8, #50176	; 0xc400
     ea4:	03003064 	movweq	r3, #100	; 0x64
     ea8:	000e9ef7 	strdeq	r9, [lr], -r7
     eac:	530c8800 	movwpl	r8, #51200	; 0xc800
     eb0:	03003164 	movweq	r3, #356	; 0x164
     eb4:	000e9ef8 	strdeq	r9, [lr], -r8
     eb8:	530c8c00 	movwpl	r8, #52224	; 0xcc00
     ebc:	03003264 	movweq	r3, #612	; 0x264
     ec0:	000e9ef9 	strdeq	r9, [lr], -r9	; <UNPREDICTABLE>
     ec4:	ff0b9000 			; <UNDEFINED> instruction: 0xff0b9000
     ec8:	0300000f 	movweq	r0, #15
     ecc:	000ef7fa 	strdeq	pc, [lr], -sl
     ed0:	530c9400 	movwpl	r9, #50176	; 0xc400
     ed4:	fb030073 	blx	c10aa <__bss_end+0xbdf2e>
     ed8:	00000e9e 	muleq	r0, lr, lr
     edc:	0e070b9c 	vmoveq.32	d23[0], r0
     ee0:	fc030000 	stc2	0, cr0, [r3], {-0}
     ee4:	00000e9e 	muleq	r0, lr, lr
     ee8:	0e0c0ba0 	vmlaeq.f64	d0, d28, d16
     eec:	fd030000 	stc2	0, cr0, [r3, #-0]
     ef0:	00000e9e 	muleq	r0, lr, lr
     ef4:	100a0ba4 	andne	r0, sl, r4, lsr #23
     ef8:	fe030000 	cdp2	0, 0, cr0, cr3, cr0, {0}
     efc:	00000efc 	strdeq	r0, [r0], -ip
     f00:	05920ba8 	ldreq	r0, [r2, #2984]	; 0xba8
     f04:	ff030000 			; <UNDEFINED> instruction: 0xff030000
     f08:	00000e9e 	muleq	r0, lr, lr
     f0c:	05970db0 	ldreq	r0, [r7, #3504]	; 0xdb0
     f10:	00030000 	andeq	r0, r3, r0
     f14:	000e9e01 	andeq	r9, lr, r1, lsl #28
     f18:	d30db400 	movwle	fp, #54272	; 0xd400
     f1c:	03000009 	movweq	r0, #9
     f20:	0f010101 	svceq	0x00010101
     f24:	0db80000 	ldceq	0, cr0, [r8]
     f28:	00000e65 	andeq	r0, r0, r5, ror #28
     f2c:	9e010203 	cdpls	2, 0, cr0, cr1, cr3, {0}
     f30:	c000000e 	andgt	r0, r0, lr
     f34:	000b040d 	andeq	r0, fp, sp, lsl #8
     f38:	01030300 	mrseq	r0, SP_svc
     f3c:	00000f06 	andeq	r0, r0, r6, lsl #30
     f40:	73550ec4 	cmpvc	r5, #196, 28	; 0xc40
     f44:	04030062 	streq	r0, [r3], #-98	; 0xffffff9e
     f48:	000e9e01 	andeq	r9, lr, r1, lsl #28
     f4c:	520dcc00 	andpl	ip, sp, #0, 24
     f50:	0300000f 	movweq	r0, #15
     f54:	0e9e0105 	fmleqe	f0, f6, f5
     f58:	0dd00000 	ldcleq	0, cr0, [r0]
     f5c:	000009f5 	strdeq	r0, [r0], -r5
     f60:	1b010603 	blne	42774 <__bss_end+0x3f5f8>
     f64:	d400000f 	strle	r0, [r0], #-15
     f68:	00103a0d 	andseq	r3, r0, sp, lsl #20
     f6c:	01070300 	mrseq	r0, SP_und
     f70:	00000e9e 	muleq	r0, lr, lr
     f74:	0ee00df0 	mcreq	13, 7, r0, cr0, cr0, {7}
     f78:	08030000 	stmdaeq	r3, {}	; <UNPREDICTABLE>
     f7c:	000e9e01 	andeq	r9, lr, r1, lsl #28
     f80:	320df400 	andcc	pc, sp, #0, 8
     f84:	0300000a 	movweq	r0, #10
     f88:	0e9e0109 	fmleqe	f0, f6, #1.0
     f8c:	0df80000 	ldcleq	0, cr0, [r8]
     f90:	00000b81 	andeq	r0, r0, r1, lsl #23
     f94:	9e010a03 	vmlals.f32	s0, s2, s6
     f98:	fc00000e 	stc2	0, cr0, [r0], {14}
     f9c:	000c390f 	andeq	r3, ip, pc, lsl #18
     fa0:	010b0300 	mrseq	r0, (UNDEF: 59)
     fa4:	00000e9e 	muleq	r0, lr, lr
     fa8:	42100100 	andsmi	r0, r0, #0, 2
     fac:	03003065 	movweq	r3, #101	; 0x65
     fb0:	0e9e010c 	fmleqe	f0, f6, #4.0
     fb4:	01040000 	mrseq	r0, (UNDEF: 4)
     fb8:	000b3b0f 	andeq	r3, fp, pc, lsl #22
     fbc:	010d0300 	mrseq	r0, SP_mon
     fc0:	00000e9e 	muleq	r0, lr, lr
     fc4:	46100108 	ldrmi	r0, [r0], -r8, lsl #2
     fc8:	03003065 	movweq	r3, #101	; 0x65
     fcc:	0e9e010e 	fmleqe	f0, f6, #0.5
     fd0:	010c0000 	mrseq	r0, (UNDEF: 12)
     fd4:	00049c0f 	andeq	r9, r4, pc, lsl #24
     fd8:	010f0300 	mrseq	r0, SP_hyp
     fdc:	00000e9e 	muleq	r0, lr, lr
     fe0:	a80f0110 	stmdage	pc, {r4, r8}	; <UNPREDICTABLE>
     fe4:	03000004 	movweq	r0, #4
     fe8:	0e9e0110 	mrceq	1, 4, r0, cr14, cr0, {0}
     fec:	01140000 	tsteq	r4, r0
     ff0:	0005110f 	andeq	r1, r5, pc, lsl #2
     ff4:	01110300 	tsteq	r1, r0, lsl #6
     ff8:	00000e9e 	muleq	r0, lr, lr
     ffc:	b40f0118 	strlt	r0, [pc], #-280	; 1004 <__save_processor_state+0x254>
    1000:	03000004 	movweq	r0, #4
    1004:	0e9e0112 	mrceq	1, 4, r0, cr14, cr2, {0}
    1008:	011c0000 	tsteq	ip, r0
    100c:	000a060f 	andeq	r0, sl, pc, lsl #12
    1010:	01130300 	tsteq	r3, r0, lsl #6
    1014:	00000f30 	andeq	r0, r0, r0, lsr pc
    1018:	190f0120 	stmdbne	pc, {r5, r8}	; <UNPREDICTABLE>
    101c:	03000005 	movweq	r0, #5
    1020:	0e9e0114 	mrceq	1, 4, r0, cr14, cr4, {0}
    1024:	012c0000 			; <UNDEFINED> instruction: 0x012c0000
    1028:	0005510f 	andeq	r5, r5, pc, lsl #2
    102c:	01150300 	tsteq	r5, r0, lsl #6
    1030:	00000e9e 	muleq	r0, lr, lr
    1034:	b40f0130 	strlt	r0, [pc], #-304	; 103c <__save_processor_state+0x28c>
    1038:	0300000d 	movweq	r0, #13
    103c:	0e9e0116 	mrceq	1, 4, r0, cr14, cr6, {0}
    1040:	01340000 	teqeq	r4, r0
    1044:	00055d0f 	andeq	r5, r5, pc, lsl #26
    1048:	01170300 	tsteq	r7, r0, lsl #6
    104c:	00000e9e 	muleq	r0, lr, lr
    1050:	56100138 			; <UNDEFINED> instruction: 0x56100138
    1054:	18030065 	stmdane	r3, {r0, r2, r5, r6}
    1058:	000e9e01 	andeq	r9, lr, r1, lsl #28
    105c:	0f013c00 	svceq	0x00013c00
    1060:	0000097e 	andeq	r0, r0, lr, ror r9
    1064:	9e011903 	cdpls	9, 0, cr1, cr1, cr3, {0}
    1068:	4000000e 	andmi	r0, r0, lr
    106c:	76411001 	strbvc	r1, [r1], -r1
    1070:	1a030073 	bne	c1244 <__bss_end+0xbe0c8>
    1074:	000e9e01 	andeq	r9, lr, r1, lsl #28
    1078:	0f014400 	svceq	0x00014400
    107c:	00000569 	andeq	r0, r0, r9, ror #10
    1080:	9e011b03 	vmlals.f64	d1, d1, d3
    1084:	4800000e 	stmdami	r0, {r1, r2, r3}
    1088:	0a110f01 	beq	444c94 <__bss_end+0x441b18>
    108c:	1c030000 	stcne	0, cr0, [r3], {-0}
    1090:	000e9e01 	andeq	r9, lr, r1, lsl #28
    1094:	0f014c00 	svceq	0x00014c00
    1098:	0000064c 	andeq	r0, r0, ip, asr #12
    109c:	9e011d03 	cdpls	13, 0, cr1, cr1, cr3, {0}
    10a0:	5000000e 	andpl	r0, r0, lr
    10a4:	06580f01 	ldrbeq	r0, [r8], -r1, lsl #30
    10a8:	1e030000 	cdpne	0, 0, cr0, cr3, cr0, {0}
    10ac:	000e9e01 	andeq	r9, lr, r1, lsl #28
    10b0:	0f015400 	svceq	0x00015400
    10b4:	00000664 	andeq	r0, r0, r4, ror #12
    10b8:	9e011f03 	cdpls	15, 0, cr1, cr1, cr3, {0}
    10bc:	5800000e 	stmdapl	r0, {r1, r2, r3}
    10c0:	06cc0f01 	strbeq	r0, [ip], r1, lsl #30
    10c4:	20030000 	andcs	r0, r3, r0
    10c8:	000e9e01 	andeq	r9, lr, r1, lsl #28
    10cc:	0f015c00 	svceq	0x00015c00
    10d0:	00000670 	andeq	r0, r0, r0, ror r6
    10d4:	9e012103 	adflss	f2, f1, f3
    10d8:	6000000e 	andvs	r0, r0, lr
    10dc:	0a1c0f01 	beq	704ce8 <__bss_end+0x701b6c>
    10e0:	22030000 	andcs	r0, r3, #0
    10e4:	000e9e01 	andeq	r9, lr, r1, lsl #28
    10e8:	0f016400 	svceq	0x00016400
    10ec:	000005da 	ldrdeq	r0, [r0], -sl
    10f0:	9e012303 	cdpls	3, 0, cr2, cr1, cr3, {0}
    10f4:	6800000e 	stmdavs	r0, {r1, r2, r3}
    10f8:	0f8f0f01 	svceq	0x008f0f01
    10fc:	24030000 	strcs	r0, [r3], #-0
    1100:	000e9e01 	andeq	r9, lr, r1, lsl #28
    1104:	0f016c00 	svceq	0x00016c00
    1108:	00000a27 	andeq	r0, r0, r7, lsr #20
    110c:	35012503 	strcc	r2, [r1, #-1283]	; 0xfffffafd
    1110:	7000000f 	andvc	r0, r0, pc
    1114:	08a30f01 	stmiaeq	r3!, {r0, r8, r9, sl, fp}
    1118:	26030000 	strcs	r0, [r3], -r0
    111c:	000e9e01 	andeq	r9, lr, r1, lsl #28
    1120:	0f018000 	svceq	0x00018000
    1124:	00000852 	andeq	r0, r0, r2, asr r8
    1128:	9e012703 	cdpls	7, 0, cr2, cr1, cr3, {0}
    112c:	8400000e 	strhi	r0, [r0], #-14
    1130:	085e0f01 	ldmdaeq	lr, {r0, r8, r9, sl, fp}^
    1134:	28030000 	stmdacs	r3, {}	; <UNPREDICTABLE>
    1138:	000e9e01 	andeq	r9, lr, r1, lsl #28
    113c:	0f018800 	svceq	0x00018800
    1140:	0000086a 	andeq	r0, r0, sl, ror #16
    1144:	9e012903 	cdpls	9, 0, cr2, cr1, cr3, {0}
    1148:	8c00000e 	stchi	0, cr0, [r0], {14}
    114c:	0b300f01 	bleq	c04d58 <__bss_end+0xc01bdc>
    1150:	2a030000 	bcs	c1158 <__bss_end+0xbdfdc>
    1154:	000f3a01 	andeq	r3, pc, r1, lsl #20
    1158:	0f019000 	svceq	0x00019000
    115c:	0000089b 	muleq	r0, fp, r8
    1160:	9e012b03 	vmlals.f64	d2, d1, d3
    1164:	a000000e 	andge	r0, r0, lr
    1168:	07ca0f01 	strbeq	r0, [sl, r1, lsl #30]
    116c:	2c030000 	stccs	0, cr0, [r3], {-0}
    1170:	000e9e01 	andeq	r9, lr, r1, lsl #28
    1174:	0f01a400 	svceq	0x0001a400
    1178:	00000b8e 	andeq	r0, r0, lr, lsl #23
    117c:	9e012d03 	cdpls	13, 0, cr2, cr1, cr3, {0}
    1180:	a800000e 	stmdage	r0, {r1, r2, r3}
    1184:	08f30f01 	ldmeq	r3!, {r0, r8, r9, sl, fp}^
    1188:	2e030000 	cdpcs	0, 0, cr0, cr3, cr0, {0}
    118c:	000e9e01 	andeq	r9, lr, r1, lsl #28
    1190:	1001ac00 	andne	sl, r1, r0, lsl #24
    1194:	00737441 	rsbseq	r7, r3, r1, asr #8
    1198:	9e012f03 	cdpls	15, 0, cr2, cr1, cr3, {0}
    119c:	b000000e 	andlt	r0, r0, lr
    11a0:	0a3c0f01 	beq	f04dac <__bss_end+0xf01c30>
    11a4:	30030000 	andcc	r0, r3, r0
    11a8:	000f4f01 	andeq	r4, pc, r1, lsl #30
    11ac:	0f01b400 	svceq	0x0001b400
    11b0:	00000876 	andeq	r0, r0, r6, ror r8
    11b4:	54013103 	strpl	r3, [r1], #-259	; 0xfffffefd
    11b8:	0000000f 	andeq	r0, r0, pc
    11bc:	0bf70f02 	bleq	ffdc4dcc <__bss_end+0xffdc1c50>
    11c0:	32030000 	andcc	r0, r3, #0
    11c4:	000e9e01 	andeq	r9, lr, r1, lsl #28
    11c8:	0f020400 	svceq	0x00020400
    11cc:	00000fcc 	andeq	r0, r0, ip, asr #31
    11d0:	69013303 	stmdbvs	r1, {r0, r1, r8, r9, ip, sp}
    11d4:	0800000f 	stmdaeq	r0, {r0, r1, r2, r3}
    11d8:	0aa40f02 	beq	fe904de8 <__bss_end+0xfe901c6c>
    11dc:	34030000 	strcc	r0, [r3], #-0
    11e0:	000f7e01 	andeq	r7, pc, r1, lsl #28
    11e4:	0f022000 	svceq	0x00022000
    11e8:	00000627 	andeq	r0, r0, r7, lsr #12
    11ec:	9e013503 	cfsh32ls	mvfx3, mvfx1, #3
    11f0:	2400000e 	strcs	r0, [r0], #-14
    11f4:	09600f02 	stmdbeq	r0!, {r1, r8, r9, sl, fp}^
    11f8:	36030000 	strcc	r0, [r3], -r0
    11fc:	000e9e01 	andeq	r9, lr, r1, lsl #28
    1200:	0f022800 	svceq	0x00022800
    1204:	00000aeb 	andeq	r0, r0, fp, ror #21
    1208:	9e013703 	cdpls	7, 0, cr3, cr1, cr3, {0}
    120c:	2c00000e 	stccs	0, cr0, [r0], {14}
    1210:	0c000f02 	stceq	15, cr0, [r0], {2}
    1214:	38030000 	stmdacc	r3, {}	; <UNPREDICTABLE>
    1218:	000e9e01 	andeq	r9, lr, r1, lsl #28
    121c:	0f023000 	svceq	0x00023000
    1220:	00000e47 	andeq	r0, r0, r7, asr #28
    1224:	9e013903 	cdpls	9, 0, cr3, cr1, cr3, {0}
    1228:	3400000e 	strcc	r0, [r0], #-14
    122c:	07600f02 	strbeq	r0, [r0, -r2, lsl #30]!
    1230:	3a030000 	bcc	c1238 <__bss_end+0xbe0bc>
    1234:	000e9e01 	andeq	r9, lr, r1, lsl #28
    1238:	0f023800 	svceq	0x00023800
    123c:	0000079c 	muleq	r0, ip, r7
    1240:	9e013b03 	vmlals.f64	d3, d1, d3
    1244:	3c00000e 	stccc	0, cr0, [r0], {14}
    1248:	0aad0f02 	beq	feb44e58 <__bss_end+0xfeb41cdc>
    124c:	3c030000 	stccc	0, cr0, [r3], {-0}
    1250:	000e9e01 	andeq	r9, lr, r1, lsl #28
    1254:	0f024000 	svceq	0x00024000
    1258:	000006a2 	andeq	r0, r0, r2, lsr #13
    125c:	9e013d03 	cdpls	13, 0, cr3, cr1, cr3, {0}
    1260:	4400000e 	strmi	r0, [r0], #-14
    1264:	0c4d0f02 	mcrreq	15, 0, r0, sp, cr2
    1268:	3e030000 	cdpcc	0, 0, cr0, cr3, cr0, {0}
    126c:	000e9e01 	andeq	r9, lr, r1, lsl #28
    1270:	0f024800 	svceq	0x00024800
    1274:	00000eb1 			; <UNDEFINED> instruction: 0x00000eb1
    1278:	9e013f03 	cdpls	15, 0, cr3, cr1, cr3, {0}
    127c:	4c00000e 	stcmi	0, cr0, [r0], {14}
    1280:	06c40f02 	strbeq	r0, [r4], r2, lsl #30
    1284:	40030000 	andmi	r0, r3, r0
    1288:	000e9e01 	andeq	r9, lr, r1, lsl #28
    128c:	0f025000 	svceq	0x00025000
    1290:	0000076c 	andeq	r0, r0, ip, ror #14
    1294:	83014103 	movwhi	r4, #4355	; 0x1103
    1298:	5400000f 	strpl	r0, [r0], #-15
    129c:	0af50f02 	beq	ffd44eac <__bss_end+0xffd41d30>
    12a0:	42030000 	andmi	r0, r3, #0
    12a4:	000e9e01 	andeq	r9, lr, r1, lsl #28
    12a8:	0f026000 	svceq	0x00026000
    12ac:	00000778 	andeq	r0, r0, r8, ror r7
    12b0:	88014303 	stmdahi	r1, {r0, r1, r8, r9, lr}
    12b4:	6400000f 	strvs	r0, [r0], #-15
    12b8:	0ac50f02 	beq	ff144ec8 <__bss_end+0xff141d4c>
    12bc:	44030000 	strmi	r0, [r3], #-0
    12c0:	000e9e01 	andeq	r9, lr, r1, lsl #28
    12c4:	0f027000 	svceq	0x00027000
    12c8:	00000784 	andeq	r0, r0, r4, lsl #15
    12cc:	8d014503 	cfstr32hi	mvfx4, [r1, #-12]
    12d0:	7400000f 	strvc	r0, [r0], #-15
    12d4:	0ab90f02 	beq	fee44ee4 <__bss_end+0xfee41d68>
    12d8:	46030000 	strmi	r0, [r3], -r0
    12dc:	000e9e01 	andeq	r9, lr, r1, lsl #28
    12e0:	0f028000 	svceq	0x00028000
    12e4:	00000df0 	strdeq	r0, [r0], -r0	; <UNPREDICTABLE>
    12e8:	9e014703 	cdpls	7, 0, cr4, cr1, cr3, {0}
    12ec:	8400000e 	strhi	r0, [r0], #-14
    12f0:	0faf0f02 	svceq	0x00af0f02
    12f4:	48030000 	stmdami	r3, {}	; <UNPREDICTABLE>
    12f8:	000e9e01 	andeq	r9, lr, r1, lsl #28
    12fc:	0f028800 	svceq	0x00028800
    1300:	00000fbf 			; <UNDEFINED> instruction: 0x00000fbf
    1304:	9e014903 	cdpls	9, 0, cr4, cr1, cr3, {0}
    1308:	8c00000e 	stchi	0, cr0, [r0], {14}
    130c:	04420f02 	strbeq	r0, [r2], #-3842	; 0xfffff0fe
    1310:	4a030000 	bmi	c1318 <__bss_end+0xbe19c>
    1314:	000e9e01 	andeq	r9, lr, r1, lsl #28
    1318:	0f029000 	svceq	0x00029000
    131c:	00000e1a 	andeq	r0, r0, sl, lsl lr
    1320:	92014b03 	andls	r4, r1, #3072	; 0xc00
    1324:	9400000f 	strls	r0, [r0], #-15
    1328:	07d10f02 	ldrbeq	r0, [r1, r2, lsl #30]
    132c:	4c030000 	stcmi	0, cr0, [r3], {-0}
    1330:	000e9e01 	andeq	r9, lr, r1, lsl #28
    1334:	0f029c00 	svceq	0x00029c00
    1338:	00000a50 	andeq	r0, r0, r0, asr sl
    133c:	9e014d03 	cdpls	13, 0, cr4, cr1, cr3, {0}
    1340:	a000000e 	andge	r0, r0, lr
    1344:	067c0f02 	ldrbteq	r0, [ip], -r2, lsl #30
    1348:	4e030000 	cdpmi	0, 0, cr0, cr3, cr0, {0}
    134c:	000e9e01 	andeq	r9, lr, r1, lsl #28
    1350:	0f02a400 	svceq	0x0002a400
    1354:	00000d9a 	muleq	r0, sl, sp
    1358:	9e014f03 	cdpls	15, 0, cr4, cr1, cr3, {0}
    135c:	a800000e 	stmdage	r0, {r1, r2, r3}
    1360:	0f670f02 	svceq	0x00670f02
    1364:	50030000 	andpl	r0, r3, r0
    1368:	000e9e01 	andeq	r9, lr, r1, lsl #28
    136c:	0f02ac00 	svceq	0x0002ac00
    1370:	00000f7b 	andeq	r0, r0, fp, ror pc
    1374:	9e015103 	adflss	f5, f1, f3
    1378:	b000000e 	andlt	r0, r0, lr
    137c:	07900f02 	ldreq	r0, [r0, r2, lsl #30]
    1380:	52030000 	andpl	r0, r3, #0
    1384:	000f9701 	andeq	r9, pc, r1, lsl #14
    1388:	0f02b400 	svceq	0x0002b400
    138c:	00000b9c 	muleq	r0, ip, fp
    1390:	9e015303 	cdpls	3, 0, cr5, cr1, cr3, {0}
    1394:	c000000e 	andgt	r0, r0, lr
    1398:	0ba60f02 	bleq	fe984fa8 <__bss_end+0xfe981e2c>
    139c:	54030000 	strpl	r0, [r3], #-0
    13a0:	000e9e01 	andeq	r9, lr, r1, lsl #28
    13a4:	0f02c400 	svceq	0x0002c400
    13a8:	00000bb0 			; <UNDEFINED> instruction: 0x00000bb0
    13ac:	9e015503 	cfsh32ls	mvfx5, mvfx1, #3
    13b0:	c800000e 	stmdagt	r0, {r1, r2, r3}
    13b4:	0ad50f02 	beq	ff544fc4 <__bss_end+0xff541e48>
    13b8:	56030000 	strpl	r0, [r3], -r0
    13bc:	000e9e01 	andeq	r9, lr, r1, lsl #28
    13c0:	0f02cc00 	svceq	0x0002cc00
    13c4:	00000d10 	andeq	r0, r0, r0, lsl sp
    13c8:	9e015703 	cdpls	7, 0, cr5, cr1, cr3, {0}
    13cc:	d000000e 	andle	r0, r0, lr
    13d0:	0ae00f02 	beq	ff804fe0 <__bss_end+0xff801e64>
    13d4:	58030000 	stmdapl	r3, {}	; <UNPREDICTABLE>
    13d8:	000e9e01 	andeq	r9, lr, r1, lsl #28
    13dc:	0f02d400 	svceq	0x0002d400
    13e0:	00000821 	andeq	r0, r0, r1, lsr #16
    13e4:	9e015903 	cdpls	9, 0, cr5, cr1, cr3, {0}
    13e8:	d800000e 	stmdale	r0, {r1, r2, r3}
    13ec:	5e110002 	cdppl	0, 1, cr0, cr1, cr2, {0}
    13f0:	11000001 	tstne	r0, r1
    13f4:	00000053 	andeq	r0, r0, r3, asr r0
    13f8:	00021b11 	andeq	r1, r2, r1, lsl fp
    13fc:	02f61100 	rscseq	r1, r6, #0, 2
    1400:	ef110000 	svc	0x00110000
    1404:	11000003 	tstne	r0, r3
    1408:	000004bb 			; <UNDEFINED> instruction: 0x000004bb
    140c:	0005f011 	andeq	pc, r5, r1, lsl r0	; <UNPREDICTABLE>
    1410:	067d1100 	ldrbteq	r1, [sp], -r0, lsl #2
    1414:	fe110000 	cdp2	0, 1, cr0, cr1, cr0, {0}
    1418:	11000006 	tstne	r0, r6
    141c:	0000078b 	andeq	r0, r0, fp, lsl #15
    1420:	00005312 	andeq	r5, r0, r2, lsl r3
    1424:	000edb00 	andeq	sp, lr, r0, lsl #22
    1428:	0edb1300 	cdpeq	3, 13, cr1, cr11, cr0, {0}
    142c:	00030000 	andeq	r0, r3, r0
    1430:	2d070402 	cfstrscs	mvf0, [r7, #-8]
    1434:	11000002 	tstne	r0, r2
    1438:	00000ecb 	andeq	r0, r0, fp, asr #29
    143c:	00005312 	andeq	r5, r0, r2, lsl r3
    1440:	000ef700 	andeq	pc, lr, r0, lsl #14
    1444:	0edb1300 	cdpeq	3, 13, cr1, cr11, cr0, {0}
    1448:	00010000 	andeq	r0, r1, r0
    144c:	000ee711 	andeq	lr, lr, r1, lsl r7
    1450:	0ee71100 	cdpeq	1, 14, cr1, cr7, cr0, {0}
    1454:	e7110000 	ldr	r0, [r1, -r0]
    1458:	1100000e 	tstne	r0, lr
    145c:	00000ee7 	andeq	r0, r0, r7, ror #29
    1460:	00005312 	andeq	r5, r0, r2, lsl r3
    1464:	000f1b00 	andeq	r1, pc, r0, lsl #22
    1468:	0edb1300 	cdpeq	3, 13, cr1, cr11, cr0, {0}
    146c:	00060000 	andeq	r0, r6, r0
    1470:	000f0b11 	andeq	r0, pc, r1, lsl fp	; <UNPREDICTABLE>
    1474:	00531200 	subseq	r1, r3, r0, lsl #4
    1478:	0f300000 	svceq	0x00300000
    147c:	db130000 	blle	4c1484 <__bss_end+0x4be308>
    1480:	0200000e 	andeq	r0, r0, #14
    1484:	0f201100 	svceq	0x00201100
    1488:	cb110000 	blgt	441490 <__bss_end+0x43e314>
    148c:	1100000e 	tstne	r0, lr
    1490:	00000ecb 	andeq	r0, r0, fp, asr #29
    1494:	00005312 	andeq	r5, r0, r2, lsl r3
    1498:	000f4f00 	andeq	r4, pc, r0, lsl #30
    149c:	0edb1300 	cdpeq	3, 13, cr1, cr11, cr0, {0}
    14a0:	00120000 	andseq	r0, r2, r0
    14a4:	000f3f11 	andeq	r3, pc, r1, lsl pc	; <UNPREDICTABLE>
    14a8:	07c11100 	strbeq	r1, [r1, r0, lsl #2]
    14ac:	53120000 	tstpl	r2, #0
    14b0:	69000000 	stmdbvs	r0, {}	; <UNPREDICTABLE>
    14b4:	1300000f 	movwne	r0, #15
    14b8:	00000edb 	ldrdeq	r0, [r0], -fp
    14bc:	59110005 	ldmdbpl	r1, {r0, r2}
    14c0:	1200000f 	andne	r0, r0, #15
    14c4:	00000053 	andeq	r0, r0, r3, asr r0
    14c8:	00000f7e 	andeq	r0, r0, lr, ror pc
    14cc:	000edb13 	andeq	sp, lr, r3, lsl fp
    14d0:	11000000 	mrsne	r0, (UNDEF: 0)
    14d4:	00000f6e 	andeq	r0, r0, lr, ror #30
    14d8:	000f2011 	andeq	r2, pc, r1, lsl r0	; <UNPREDICTABLE>
    14dc:	0f201100 	svceq	0x00201100
    14e0:	20110000 	andscs	r0, r1, r0
    14e4:	1100000f 	tstne	r0, pc
    14e8:	00000ee7 	andeq	r0, r0, r7, ror #29
    14ec:	000f2011 	andeq	r2, pc, r1, lsl r0	; <UNPREDICTABLE>
    14f0:	0e941400 	cdpeq	4, 9, cr1, cr4, cr0, {0}
    14f4:	5a030000 	bpl	c14fc <__bss_end+0xbe380>
    14f8:	0007cc01 	andeq	ip, r7, r1, lsl #24
    14fc:	9c041500 	cfstr32ls	mvfx1, [r4], {-0}
    1500:	0900000f 	stmdbeq	r0, {r0, r1, r2, r3}
    1504:	00000c86 	andeq	r0, r0, r6, lsl #25
    1508:	d3180408 	tstle	r8, #8, 8	; 0x8000000
    150c:	0b00000f 	bleq	1550 <set_ttbr0+0x4>
    1510:	00000521 	andeq	r0, r0, r1, lsr #10
    1514:	00531904 	subseq	r1, r3, r4, lsl #18
    1518:	0b000000 	bleq	1520 <save_processor_state>
    151c:	0000082b 	andeq	r0, r0, fp, lsr #16
    1520:	00531a04 	subseq	r1, r3, r4, lsl #20
    1524:	00040000 	andeq	r0, r4, r0
    1528:	000ea609 	andeq	sl, lr, r9, lsl #12
    152c:	1d042400 	cfstrsne	mvf2, [r4, #-0]
    1530:	0000104c 	andeq	r1, r0, ip, asr #32
    1534:	000f040b 	andeq	r0, pc, fp, lsl #8
    1538:	531e0400 	tstpl	lr, #0, 8
    153c:	00000000 	andeq	r0, r0, r0
    1540:	000ecb0b 	andeq	ip, lr, fp, lsl #22
    1544:	531f0400 	tstpl	pc, #0, 8
    1548:	04000000 	streq	r0, [r0], #-0
    154c:	00087e0b 	andeq	r7, r8, fp, lsl #28
    1550:	53200400 	noppl	{0}	; <UNPREDICTABLE>
    1554:	08000000 	stmdaeq	r0, {}	; <UNPREDICTABLE>
    1558:	000b470b 	andeq	r4, fp, fp, lsl #14
    155c:	53220400 			; <UNDEFINED> instruction: 0x53220400
    1560:	0c000000 	stceq	0, cr0, [r0], {-0}
    1564:	0005a50b 	andeq	sl, r5, fp, lsl #10
    1568:	53230400 			; <UNDEFINED> instruction: 0x53230400
    156c:	10000000 	andne	r0, r0, r0
    1570:	0009600b 	andeq	r6, r9, fp
    1574:	53240400 			; <UNDEFINED> instruction: 0x53240400
    1578:	14000000 	strne	r0, [r0], #-0
    157c:	000aeb0b 	andeq	lr, sl, fp, lsl #22
    1580:	53250400 			; <UNDEFINED> instruction: 0x53250400
    1584:	18000000 	stmdane	r0, {}	; <UNPREDICTABLE>
    1588:	000faf0b 	andeq	sl, pc, fp, lsl #30
    158c:	53260400 			; <UNDEFINED> instruction: 0x53260400
    1590:	1c000000 	stcne	0, cr0, [r0], {-0}
    1594:	000fbf0b 	andeq	fp, pc, fp, lsl #30
    1598:	53270400 			; <UNDEFINED> instruction: 0x53270400
    159c:	20000000 	andcs	r0, r0, r0
    15a0:	063f0900 	ldrteq	r0, [pc], -r0, lsl #18
    15a4:	04080000 	streq	r0, [r8], #-0
    15a8:	0010954a 	andseq	r9, r0, sl, asr #10
    15ac:	07480b00 	strbeq	r0, [r8, -r0, lsl #22]
    15b0:	4b040000 	blmi	1015b8 <__bss_end+0xfe43c>
    15b4:	0000002c 	andeq	r0, r0, ip, lsr #32
    15b8:	07380b00 	ldreq	r0, [r8, -r0, lsl #22]!
    15bc:	4c040000 	stcmi	0, cr0, [r4], {-0}
    15c0:	0000002c 	andeq	r0, r0, ip, lsr #32
    15c4:	07400b01 	strbeq	r0, [r0, -r1, lsl #22]
    15c8:	4d040000 	stcmi	0, cr0, [r4, #-0]
    15cc:	0000002c 	andeq	r0, r0, ip, lsr #32
    15d0:	07580b02 	ldrbeq	r0, [r8, -r2, lsl #22]
    15d4:	4e040000 	cdpmi	0, 0, cr0, cr4, cr0, {0}
    15d8:	0000002c 	andeq	r0, r0, ip, lsr #32
    15dc:	6c500c03 	mrrcvs	12, 0, r0, r0, cr3	; <UNPREDICTABLE>
    15e0:	4f04006c 	svcmi	0x0004006c
    15e4:	00000053 	andeq	r0, r0, r3, asr r0
    15e8:	09160004 	ldmdbeq	r6, {r2}
    15ec:	04000002 	streq	r0, [r0], #-2
    15f0:	0000005e 	andeq	r0, r0, lr, asr r0
    15f4:	1124890c 			; <UNDEFINED> instruction: 0x1124890c
    15f8:	d4170000 	ldrle	r0, [r7], #-0
    15fc:	00000000 	andeq	r0, r0, r0
    1600:	00012917 	andeq	r2, r1, r7, lsl r9
    1604:	e1170100 	tst	r7, r0, lsl #2
    1608:	02000000 	andeq	r0, r0, #0
    160c:	00010617 	andeq	r0, r1, r7, lsl r6
    1610:	51170300 	tstpl	r7, r0, lsl #6
    1614:	04000002 	streq	r0, [r0], #-2
    1618:	0001d017 	andeq	sp, r1, r7, lsl r0
    161c:	89170500 	ldmdbhi	r7, {r8, sl}
    1620:	06000001 	streq	r0, [r0], -r1
    1624:	0001f317 	andeq	pc, r1, r7, lsl r3	; <UNPREDICTABLE>
    1628:	c8170700 	ldmdagt	r7, {r8, r9, sl}
    162c:	08000000 	stmdaeq	r0, {}	; <UNPREDICTABLE>
    1630:	0000fb17 	andeq	pc, r0, r7, lsl fp	; <UNPREDICTABLE>
    1634:	c5170900 	ldrgt	r0, [r7, #-2304]	; 0xfffff700
    1638:	0a000001 	beq	1644 <serial_init_nommu+0x8>
    163c:	00026b17 	andeq	r6, r2, r7, lsl fp
    1640:	03170b00 	tsteq	r7, #0, 22
    1644:	0c000002 	stceq	0, cr0, [r0], {2}
    1648:	00021f17 	andeq	r1, r2, r7, lsl pc
    164c:	18170d00 	ldmdane	r7, {r8, sl, fp}
    1650:	0e000003 	cdpeq	0, 0, cr0, cr0, cr3, {0}
    1654:	00025d17 	andeq	r5, r2, r7, lsl sp
    1658:	e8170f00 	ldmda	r7, {r8, r9, sl, fp}
    165c:	10000002 	andne	r0, r0, r2
    1660:	00024417 	andeq	r4, r2, r7, lsl r4
    1664:	02171100 	andseq	r1, r7, #0, 2
    1668:	12000003 	andne	r0, r0, #3
    166c:	0000ee17 	andeq	lr, r0, r7, lsl lr
    1670:	cd171300 	ldcgt	3, cr1, [r7, #-0]
    1674:	14000002 	strne	r0, [r0], #-2
    1678:	08010200 	stmdaeq	r1, {r9}
    167c:	0000011b 	andeq	r0, r0, fp, lsl r1
    1680:	e1070402 	tst	r7, r2, lsl #8
    1684:	15000001 	strne	r0, [r0, #-1]
    1688:	00005e04 	andeq	r5, r0, r4, lsl #28
    168c:	5e041800 	cdppl	8, 0, cr1, cr4, cr0, {0}
    1690:	05000000 	streq	r0, [r0, #-0]
    1694:	00119828 	andseq	r9, r1, r8, lsr #16
    1698:	08081700 	stmdaeq	r8, {r8, r9, sl, ip}
    169c:	17010000 	strne	r0, [r1, -r0]
    16a0:	0000105e 	andeq	r1, r0, lr, asr r0
    16a4:	05ad1702 	streq	r1, [sp, #1794]!	; 0x702
    16a8:	17040000 	strne	r0, [r4, -r0]
    16ac:	000006f5 	strdeq	r0, [r0], -r5
    16b0:	08371708 	ldmdaeq	r7!, {r3, r8, r9, sl, ip}
    16b4:	17100000 	ldrne	r0, [r0, -r0]
    16b8:	00000f32 	andeq	r0, r0, r2, lsr pc
    16bc:	06d91720 	ldrbeq	r1, [r9], r0, lsr #14
    16c0:	17400000 	strbne	r0, [r0, -r0]
    16c4:	0000107c 	andeq	r1, r0, ip, ror r0
    16c8:	101a1980 	andsne	r1, sl, r0, lsl #19
    16cc:	01000000 	mrseq	r0, (UNDEF: 0)
    16d0:	000dca19 	andeq	ip, sp, r9, lsl sl
    16d4:	19020000 	stmdbne	r2, {}	; <UNPREDICTABLE>
    16d8:	00000945 	andeq	r0, r0, r5, asr #18
    16dc:	55190400 	ldrpl	r0, [r9, #-1024]	; 0xfffffc00
    16e0:	0000000e 	andeq	r0, r0, lr
    16e4:	070b1908 	streq	r1, [fp, -r8, lsl #18]
    16e8:	10000000 	andne	r0, r0, r0
    16ec:	05880900 	streq	r0, [r8, #2304]	; 0x900
    16f0:	05240000 	streq	r0, [r4, #-0]!
    16f4:	0012104c 	andseq	r1, r2, ip, asr #32
    16f8:	10150b00 	andsne	r0, r5, r0, lsl #22
    16fc:	4e050000 	cdpmi	0, 0, cr0, cr5, cr0, {0}
    1700:	00000053 	andeq	r0, r0, r3, asr r0
    1704:	72630c00 	rsbvc	r0, r3, #0, 24
    1708:	53500500 	cmppl	r0, #0, 10
    170c:	04000000 	streq	r0, [r0], #-0
    1710:	000da70b 	andeq	sl, sp, fp, lsl #14
    1714:	53510500 	cmppl	r1, #0, 10
    1718:	08000000 	stmdaeq	r0, {}	; <UNPREDICTABLE>
    171c:	000e000b 	andeq	r0, lr, fp
    1720:	53530500 	cmppl	r3, #0, 10
    1724:	0c000000 	stceq	0, cr0, [r0], {-0}
    1728:	000f0e0b 	andeq	r0, pc, fp, lsl #28
    172c:	53540500 	cmppl	r4, #0, 10
    1730:	10000000 	andne	r0, r0, r0
    1734:	000a7a0b 	andeq	r7, sl, fp, lsl #20
    1738:	53550500 	cmppl	r5, #0, 10
    173c:	14000000 	strne	r0, [r0], #-0
    1740:	0008ee0b 	andeq	lr, r8, fp, lsl #28
    1744:	53580500 	cmppl	r8, #0, 10
    1748:	18000000 	stmdane	r0, {}	; <UNPREDICTABLE>
    174c:	000deb0b 	andeq	lr, sp, fp, lsl #22
    1750:	535b0500 	cmppl	fp, #0, 10
    1754:	1c000000 	stcne	0, cr0, [r0], {-0}
    1758:	000e7a0b 	andeq	r7, lr, fp, lsl #20
    175c:	535c0500 	cmppl	ip, #0, 10
    1760:	20000000 	andcs	r0, r0, r0
    1764:	10980900 	addsne	r0, r8, r0, lsl #18
    1768:	05d00000 	ldrbeq	r0, [r0]
    176c:	0012b962 	andseq	fp, r2, r2, ror #18
    1770:	0b190b00 	bleq	644378 <__bss_end+0x6411fc>
    1774:	63050000 	movwvs	r0, #20480	; 0x5000
    1778:	000012b9 			; <UNDEFINED> instruction: 0x000012b9
    177c:	096d0b00 	stmdbeq	sp!, {r8, r9, fp}^
    1780:	64050000 	strvs	r0, [r5], #-0
    1784:	00000e9e 	muleq	r0, lr, lr
    1788:	05e20b04 	strbeq	r0, [r2, #2820]!	; 0xb04
    178c:	65050000 	strvs	r0, [r5, #-0]
    1790:	00000053 	andeq	r0, r0, r3, asr r0
    1794:	0c0d0b08 	stceq	11, cr0, [sp], {8}
    1798:	66050000 	strvs	r0, [r5], -r0
    179c:	00000053 	andeq	r0, r0, r3, asr r0
    17a0:	0ec10b0c 	vdiveq.f64	d16, d1, d12
    17a4:	67050000 	strvs	r0, [r5, -r0]
    17a8:	00000053 	andeq	r0, r0, r3, asr r0
    17ac:	04770b10 	ldrbteq	r0, [r7], #-2832	; 0xfffff4f0
    17b0:	68050000 	stmdavs	r5, {}	; <UNPREDICTABLE>
    17b4:	00000053 	andeq	r0, r0, r3, asr r0
    17b8:	07a70b14 			; <UNDEFINED> instruction: 0x07a70b14
    17bc:	69050000 	stmdbvs	r5, {}	; <UNPREDICTABLE>
    17c0:	00000053 	andeq	r0, r0, r3, asr r0
    17c4:	04d80b18 	ldrbeq	r0, [r8], #2840	; 0xb18
    17c8:	6a050000 	bvs	1417d0 <__bss_end+0x13e654>
    17cc:	000012c1 	andeq	r1, r0, r1, asr #5
    17d0:	07df0b1c 	bfieq	r0, ip, #22, #10
    17d4:	6b050000 	blvs	1417dc <__bss_end+0x13e660>
    17d8:	00000fae 	andeq	r0, r0, lr, lsr #31
    17dc:	0a470b54 	beq	11c4534 <__bss_end+0x11c13b8>
    17e0:	6c050000 	stcvs	0, cr0, [r5], {-0}
    17e4:	00000fd3 	ldrdeq	r0, [r0], -r3
    17e8:	1ef10b5c 	vmovne.u8	r0, d1[6]
    17ec:	6d050000 	stcvs	0, cr0, [r5, #-0]
    17f0:	0000104c 	andeq	r1, r0, ip, asr #32
    17f4:	05820b80 	streq	r0, [r2, #2944]	; 0xb80
    17f8:	6e050000 	cdpvs	0, 0, cr0, cr5, cr0, {0}
    17fc:	00001198 	muleq	r0, r8, r1
    1800:	07f10b88 	ldrbeq	r0, [r1, r8, lsl #23]!
    1804:	6f050000 	svcvs	0x00050000
    1808:	00001198 	muleq	r0, r8, r1
    180c:	041500ac 	ldreq	r0, [r5], #-172	; 0xffffff54
    1810:	000012bf 			; <UNDEFINED> instruction: 0x000012bf
    1814:	5312041a 	tstpl	r2, #436207616	; 0x1a000000
    1818:	d1000000 	mrsle	r0, (UNDEF: 0)
    181c:	13000012 	movwne	r0, #18
    1820:	00000edb 	ldrdeq	r0, [r0], -fp
    1824:	0415000d 	ldreq	r0, [r5], #-13
    1828:	000012d7 	ldrdeq	r1, [r0], -r7
    182c:	00004c1b 	andeq	r4, r0, fp, lsl ip
    1830:	0a951c00 	beq	fe548838 <__bss_end+0xfe5456bc>
    1834:	3e010000 	cdpcc	0, 0, cr0, cr1, cr0, {0}
    1838:	0000004c 	andeq	r0, r0, ip, asr #32
    183c:	00000134 	andeq	r0, r0, r4, lsr r1
    1840:	0000014c 	andeq	r0, r0, ip, asr #2
    1844:	14a39c01 	strtne	r9, [r3], #3073	; 0xc01
    1848:	401d0000 	andsmi	r0, sp, r0
    184c:	cd000001 	stcgt	0, cr0, [r0, #-4]
    1850:	09000016 	stmdbeq	r0, {r1, r2, r4}
    1854:	1e000013 	mcrne	0, 0, r0, cr0, cr3, {0}
    1858:	08025001 	stmdaeq	r2, {r0, ip, lr}
    185c:	481f0047 	ldmdami	pc, {r0, r1, r2, r6}	; <UNPREDICTABLE>
    1860:	d8000001 	stmdale	r0, {r0}
    1864:	1d000016 	stcne	0, cr0, [r0, #-88]	; 0xffffffa8
    1868:	00000154 	andeq	r0, r0, r4, asr r1
    186c:	000016cd 	andeq	r1, r0, sp, asr #13
    1870:	00001326 	andeq	r1, r0, r6, lsr #6
    1874:	0250011e 	subseq	r0, r0, #-2147483641	; 0x80000007
    1878:	1d004808 	stcne	8, cr4, [r0, #-32]	; 0xffffffe0
    187c:	0000015c 	andeq	r0, r0, ip, asr r1
    1880:	000016e3 	andeq	r1, r0, r3, ror #13
    1884:	0000133b 	andeq	r1, r0, fp, lsr r3
    1888:	0350011e 	cmpeq	r0, #-2147483641	; 0x80000007
    188c:	0000d474 	andeq	sp, r0, r4, ror r4
    1890:	0001641d 	andeq	r6, r1, sp, lsl r4
    1894:	0016ee00 	andseq	lr, r6, r0, lsl #28
    1898:	00135000 	andseq	r5, r3, r0
    189c:	50011e00 	andpl	r1, r1, r0, lsl #28
    18a0:	01807403 	orreq	r7, r0, r3, lsl #8
    18a4:	01681f00 	cmneq	r8, r0, lsl #30
    18a8:	16f90000 	ldrbtne	r0, [r9], r0
    18ac:	701f0000 	andsvc	r0, pc, r0
    18b0:	04000001 	streq	r0, [r0], #-1
    18b4:	1d000017 	stcne	0, cr0, [r0, #-92]	; 0xffffffa4
    18b8:	00000188 	andeq	r0, r0, r8, lsl #3
    18bc:	000016cd 	andeq	r1, r0, sp, asr #13
    18c0:	00001376 	andeq	r1, r0, r6, ror r3
    18c4:	0250011e 	subseq	r0, r0, #-2147483641	; 0x80000007
    18c8:	1d004908 	stcne	9, cr4, [r0, #-32]	; 0xffffffe0
    18cc:	00000190 	muleq	r0, r0, r1
    18d0:	0000170f 	andeq	r1, r0, pc, lsl #14
    18d4:	0000138d 	andeq	r1, r0, sp, lsl #7
    18d8:	0550011e 	ldrbeq	r0, [r0, #-286]	; 0xfffffee2
    18dc:	00301803 	eorseq	r1, r0, r3, lsl #16
    18e0:	981d0000 	ldmdals	sp, {}	; <UNPREDICTABLE>
    18e4:	1a000001 	bne	18f0 <serial_puts+0x8>
    18e8:	a1000017 	tstge	r0, r7, lsl r0
    18ec:	1e000013 	mcrne	0, 0, r0, cr0, cr3, {0}
    18f0:	08025001 	stmdaeq	r2, {r0, ip, lr}
    18f4:	a01d004a 	andsge	r0, sp, sl, asr #32
    18f8:	1a000001 	bne	1904 <serial_puts+0x1c>
    18fc:	b5000017 	strlt	r0, [r0, #-23]	; 0xffffffe9
    1900:	1e000013 	mcrne	0, 0, r0, cr0, cr3, {0}
    1904:	08025001 	stmdaeq	r2, {r0, ip, lr}
    1908:	a81f004b 	ldmdage	pc, {r0, r1, r3, r6}	; <UNPREDICTABLE>
    190c:	25000001 	strcs	r0, [r0, #-1]
    1910:	1d000017 	stcne	0, cr0, [r0, #-92]	; 0xffffffa4
    1914:	000001b0 			; <UNDEFINED> instruction: 0x000001b0
    1918:	00001730 	andeq	r1, r0, r0, lsr r7
    191c:	000013d1 	ldrdeq	r1, [r0], -r1	; <UNPREDICTABLE>
    1920:	0150011e 	cmpeq	r0, lr, lsl r1
    1924:	c41d0031 	ldrgt	r0, [sp], #-49	; 0xffffffcf
    1928:	1a000001 	bne	1934 <serial_puts+0x4c>
    192c:	e5000017 	str	r0, [r0, #-23]	; 0xffffffe9
    1930:	1e000013 	mcrne	0, 0, r0, cr0, cr3, {0}
    1934:	08025001 	stmdaeq	r2, {r0, ip, lr}
    1938:	d01d004e 	andsle	r0, sp, lr, asr #32
    193c:	3b000001 	blcc	1948 <serial_puts+0x60>
    1940:	fc000017 	stc2	0, cr0, [r0], {23}
    1944:	1e000013 	mcrne	0, 0, r0, cr0, cr3, {0}
    1948:	03055101 	movweq	r5, #20737	; 0x5101
    194c:	00002fac 	andeq	r2, r0, ip, lsr #31
    1950:	01e41d00 	mvneq	r1, r0, lsl #26
    1954:	17460000 	strbne	r0, [r6, -r0]
    1958:	14130000 	ldrne	r0, [r3], #-0
    195c:	011e0000 	tsteq	lr, r0
    1960:	28030550 	stmdacs	r3, {r4, r6, r8, sl}
    1964:	0000002c 	andeq	r0, r0, ip, lsr #32
    1968:	0001f41d 	andeq	pc, r1, sp, lsl r4	; <UNPREDICTABLE>
    196c:	00175100 	andseq	r5, r7, r0, lsl #2
    1970:	00142a00 	andseq	r2, r4, r0, lsl #20
    1974:	50011e00 	andpl	r1, r1, r0, lsl #28
    1978:	2c4c0305 	mcrrcs	3, 0, r0, ip, cr5
    197c:	1f000000 	svcne	0x00000000
    1980:	000001f8 	strdeq	r0, [r0], -r8
    1984:	0000175c 	andeq	r1, r0, ip, asr r7
    1988:	0002081d 	andeq	r0, r2, sp, lsl r8
    198c:	00176700 	andseq	r6, r7, r0, lsl #14
    1990:	00144a00 	andseq	r4, r4, r0, lsl #20
    1994:	50011e00 	andpl	r1, r1, r0, lsl #28
    1998:	2c7c0305 	ldclcs	3, cr0, [ip], #-20	; 0xffffffec
    199c:	1d000000 	stcne	0, cr0, [r0, #-0]
    19a0:	00000218 	andeq	r0, r0, r8, lsl r2
    19a4:	00001767 	andeq	r1, r0, r7, ror #14
    19a8:	00001461 	andeq	r1, r0, r1, ror #8
    19ac:	0550011e 	ldrbeq	r0, [r0, #-286]	; 0xfffffee2
    19b0:	002c9803 	eoreq	r9, ip, r3, lsl #16
    19b4:	281d0000 	ldmdacs	sp, {}	; <UNPREDICTABLE>
    19b8:	67000002 	strvs	r0, [r0, -r2]
    19bc:	78000017 	stmdavc	r0, {r0, r1, r2, r4}
    19c0:	1e000014 	mcrne	0, 0, r0, cr0, cr4, {0}
    19c4:	03055001 	movweq	r5, #20481	; 0x5001
    19c8:	00002cbc 			; <UNDEFINED> instruction: 0x00002cbc
    19cc:	02541d00 	subseq	r1, r4, #0, 26
    19d0:	17670000 	strbne	r0, [r7, -r0]!
    19d4:	148f0000 	strne	r0, [pc], #0	; 19dc <serial_gets+0x4c>
    19d8:	011e0000 	tsteq	lr, r0
    19dc:	ec030550 	cfstr32	mvfx0, [r3], {80}	; 0x50
    19e0:	0000002c 	andeq	r0, r0, ip, lsr #32
    19e4:	00027420 	andeq	r7, r2, r0, lsr #8
    19e8:	00176700 	andseq	r6, r7, r0, lsl #14
    19ec:	50011e00 	andpl	r1, r1, r0, lsl #28
    19f0:	2d040305 	stccs	3, cr0, [r4, #-20]	; 0xffffffec
    19f4:	00000000 	andeq	r0, r0, r0
    19f8:	000cf221 	andeq	pc, ip, r1, lsr #4
    19fc:	80880100 	addhi	r0, r8, r0, lsl #2
    1a00:	6c000002 	stcvs	0, cr0, [r0], {2}
    1a04:	01000001 	tsteq	r0, r1
    1a08:	0016519c 	mulseq	r6, ip, r1
    1a0c:	0e272200 	cdpeq	2, 2, cr2, cr7, cr0, {0}
    1a10:	8a010000 	bhi	41a18 <__bss_end+0x3e89c>
    1a14:	00000fa8 	andeq	r0, r0, r8, lsr #31
    1a18:	000000d5 	ldrdeq	r0, [r0], -r5
    1a1c:	000b9522 	andeq	r9, fp, r2, lsr #10
    1a20:	5e8b0100 	rmfple	f0, f3, f0
    1a24:	fe000000 	cdp2	0, 0, cr0, cr0, cr0, {0}
    1a28:	23000000 	movwcs	r0, #0
    1a2c:	0000046c 	andeq	r0, r0, ip, ror #8
    1a30:	005e8c01 	subseq	r8, lr, r1, lsl #24
    1a34:	23000000 	movwcs	r0, #0
    1a38:	00000bba 			; <UNDEFINED> instruction: 0x00000bba
    1a3c:	005e8d01 	subseq	r8, lr, r1, lsl #26
    1a40:	23000000 	movwcs	r0, #0
    1a44:	00000634 	andeq	r0, r0, r4, lsr r6
    1a48:	005e8e01 	subseq	r8, lr, r1, lsl #28
    1a4c:	23000000 	movwcs	r0, #0
    1a50:	00000dac 	andeq	r0, r0, ip, lsr #27
    1a54:	005e8f01 	subseq	r8, lr, r1, lsl #30
    1a58:	23000000 	movwcs	r0, #0
    1a5c:	00000db9 			; <UNDEFINED> instruction: 0x00000db9
    1a60:	005e9001 	subseq	r9, lr, r1
    1a64:	23000000 	movwcs	r0, #0
    1a68:	00000575 	andeq	r0, r0, r5, ror r5
    1a6c:	005e9101 	subseq	r9, lr, r1, lsl #2
    1a70:	1d000000 	stcne	0, cr0, [r0, #-0]
    1a74:	000002bc 			; <UNDEFINED> instruction: 0x000002bc
    1a78:	00001730 	andeq	r1, r0, r0, lsr r7
    1a7c:	00001531 	andeq	r1, r0, r1, lsr r5
    1a80:	0150011e 	cmpeq	r0, lr, lsl r1
    1a84:	cc1f0030 	ldcgt	0, cr0, [pc], {48}	; 0x30
    1a88:	72000002 	andvc	r0, r0, #2
    1a8c:	1d000017 	stcne	0, cr0, [r0, #-92]	; 0xffffffa4
    1a90:	000002d4 	ldrdeq	r0, [r0], -r4
    1a94:	000016cd 	andeq	r1, r0, sp, asr #13
    1a98:	0000154e 	andeq	r1, r0, lr, asr #10
    1a9c:	0250011e 	subseq	r0, r0, #-2147483641	; 0x80000007
    1aa0:	1d002008 	stcne	0, cr2, [r0, #-32]	; 0xffffffe0
    1aa4:	000002f0 	strdeq	r0, [r0], -r0	; <UNPREDICTABLE>
    1aa8:	0000177d 	andeq	r1, r0, sp, ror r7
    1aac:	00001568 	andeq	r1, r0, r8, ror #10
    1ab0:	0250011e 	subseq	r0, r0, #-2147483641	; 0x80000007
    1ab4:	011e0075 	tsteq	lr, r5, ror r0
    1ab8:	d0080252 	andle	r0, r8, r2, asr r2
    1abc:	02f81d00 	rscseq	r1, r8, #0, 26
    1ac0:	16cd0000 	strbne	r0, [sp], r0
    1ac4:	157c0000 	ldrbne	r0, [ip, #-0]!
    1ac8:	011e0000 	tsteq	lr, r0
    1acc:	21080250 	tstcs	r8, r0, asr r2
    1ad0:	030c1d00 	movweq	r1, #52480	; 0xcd00
    1ad4:	17880000 	strne	r0, [r8, r0]
    1ad8:	15930000 	ldrne	r0, [r3]
    1adc:	011e0000 	tsteq	lr, r0
    1ae0:	ec030550 	cfstr32	mvfx0, [r3], {80}	; 0x50
    1ae4:	0000002f 	andeq	r0, r0, pc, lsr #32
    1ae8:	0003141d 	andeq	r1, r3, sp, lsl r4
    1aec:	0016cd00 	andseq	ip, r6, r0, lsl #26
    1af0:	0015a700 	andseq	sl, r5, r0, lsl #14
    1af4:	50011e00 	andpl	r1, r1, r0, lsl #28
    1af8:	00230802 	eoreq	r0, r3, r2, lsl #16
    1afc:	0003281d 	andeq	r2, r3, sp, lsl r8
    1b00:	0016cd00 	andseq	ip, r6, r0, lsl #26
    1b04:	0015bb00 	andseq	fp, r5, r0, lsl #22
    1b08:	50011e00 	andpl	r1, r1, r0, lsl #28
    1b0c:	00240802 	eoreq	r0, r4, r2, lsl #16
    1b10:	0003341d 	andeq	r3, r3, sp, lsl r4
    1b14:	00179300 	andseq	r9, r7, r0, lsl #6
    1b18:	0015d300 	andseq	sp, r5, r0, lsl #6
    1b1c:	50011e00 	andpl	r1, r1, r0, lsl #28
    1b20:	011e3101 	tsteq	lr, r1, lsl #2
    1b24:	00300151 	eorseq	r0, r0, r1, asr r1
    1b28:	0003381f 	andeq	r3, r3, pc, lsl r8
    1b2c:	0016f900 	andseq	pc, r6, r0, lsl #18
    1b30:	03401d00 	movteq	r1, #3328	; 0xd00
    1b34:	17040000 	strne	r0, [r4, -r0]
    1b38:	15ef0000 	strbne	r0, [pc, #0]!	; 1b40 <print_align+0x50>
    1b3c:	011e0000 	tsteq	lr, r0
    1b40:	003a0150 	eorseq	r0, sl, r0, asr r1
    1b44:	0003541d 	andeq	r5, r3, sp, lsl r4
    1b48:	0016cd00 	andseq	ip, r6, r0, lsl #26
    1b4c:	00160300 	andseq	r0, r6, r0, lsl #6
    1b50:	50011e00 	andpl	r1, r1, r0, lsl #28
    1b54:	00260802 	eoreq	r0, r6, r2, lsl #16
    1b58:	00036c1d 	andeq	r6, r3, sp, lsl ip
    1b5c:	0016cd00 	andseq	ip, r6, r0, lsl #26
    1b60:	00161700 	andseq	r1, r6, r0, lsl #14
    1b64:	50011e00 	andpl	r1, r1, r0, lsl #28
    1b68:	00270802 	eoreq	r0, r7, r2, lsl #16
    1b6c:	0003701f 	andeq	r7, r3, pc, lsl r0
    1b70:	0016f900 	andseq	pc, r6, r0, lsl #18
    1b74:	037c2400 	cmneq	ip, #0, 8
    1b78:	179e0000 	ldrne	r0, [lr, r0]
    1b7c:	16340000 	ldrtne	r0, [r4], -r0
    1b80:	011e0000 	tsteq	lr, r0
    1b84:	64080250 	strvs	r0, [r8], #-592	; 0xfffffdb0
    1b88:	03b01f00 	movseq	r1, #0, 30
    1b8c:	17a90000 	strne	r0, [r9, r0]!
    1b90:	bc200000 	stclt	0, cr0, [r0], #-0
    1b94:	46000003 	strmi	r0, [r0], -r3
    1b98:	1e000017 	mcrne	0, 0, r0, cr0, cr7, {0}
    1b9c:	03055001 	movweq	r5, #20481	; 0x5001
    1ba0:	00002d1c 	andeq	r2, r0, ip, lsl sp
    1ba4:	00250000 	eoreq	r0, r5, r0
    1ba8:	0100000a 	tsteq	r0, sl
    1bac:	00004c1a 	andeq	r4, r0, sl, lsl ip
    1bb0:	0a742500 	beq	1d0afb8 <__bss_end+0x1d07e3c>
    1bb4:	1a010000 	bne	41bbc <__bss_end+0x3ea40>
    1bb8:	0000004c 	andeq	r0, r0, ip, asr #32
    1bbc:	0010c025 	andseq	ip, r0, r5, lsr #32
    1bc0:	5e1b0100 	mufple	f0, f3, f0
    1bc4:	26000000 	strcs	r0, [r0], -r0
    1bc8:	00000e7f 	andeq	r0, r0, pc, ror lr
    1bcc:	11321c01 	teqne	r2, r1, lsl #24
    1bd0:	03050000 	movweq	r0, #20480	; 0x5000
    1bd4:	00002da8 	andeq	r2, r0, r8, lsr #27
    1bd8:	00050a23 	andeq	r0, r5, r3, lsr #20
    1bdc:	5e1d0100 	mufple	f0, f5, f0
    1be0:	00000000 	andeq	r0, r0, r0
    1be4:	000e8627 	andeq	r8, lr, r7, lsr #12
    1be8:	10110100 	andsne	r0, r1, r0, lsl #2
    1bec:	05000012 	streq	r0, [r0, #-18]	; 0xffffffee
    1bf0:	002f9003 	eoreq	r9, pc, r3
    1bf4:	08e22800 	stmiaeq	r2!, {fp, sp}^
    1bf8:	13010000 	movwne	r0, #4096	; 0x1000
    1bfc:	000016ab 	andeq	r1, r0, fp, lsr #13
    1c00:	11240415 			; <UNDEFINED> instruction: 0x11240415
    1c04:	8b280000 	blhi	a01c0c <__bss_end+0x9fea90>
    1c08:	01000006 	tsteq	r0, r6
    1c0c:	0016ab14 	andseq	sl, r6, r4, lsl fp
    1c10:	0bc52700 	bleq	ff14b818 <__bss_end+0xff14869c>
    1c14:	19010000 	stmdbne	r1, {}	; <UNPREDICTABLE>
    1c18:	000012d1 	ldrdeq	r1, [r0], -r1	; <UNPREDICTABLE>
    1c1c:	30600305 	rsbcc	r0, r0, r5, lsl #6
    1c20:	fa290000 	blx	a41c28 <__bss_end+0xa3eaac>
    1c24:	fa00000c 	blx	1c5c <itoa.constprop.0+0xd4>
    1c28:	0600000c 	streq	r0, [r0], -ip
    1c2c:	0f152954 	svceq	0x00152954
    1c30:	0f150000 	svceq	0x00150000
    1c34:	89070000 	stmdbhi	r7, {}	; <UNPREDICTABLE>
    1c38:	000a8629 	andeq	r8, sl, r9, lsr #12
    1c3c:	000a8600 	andeq	r8, sl, r0, lsl #12
    1c40:	29830400 	stmibcs	r3, {sl}
    1c44:	000008ab 	andeq	r0, r0, fp, lsr #17
    1c48:	000008ab 	andeq	r0, r0, fp, lsr #17
    1c4c:	1a298504 	bne	a63064 <__bss_end+0xa5fee8>
    1c50:	1a00000d 	bne	1c8c <printk+0x10>
    1c54:	0800000d 	stmdaeq	r0, {r0, r2, r3}
    1c58:	07af291a 			; <UNDEFINED> instruction: 0x07af291a
    1c5c:	07af0000 	streq	r0, [pc, r0]!
    1c60:	1c080000 	stcne	0, cr0, [r8], {-0}
    1c64:	0004c029 	andeq	ip, r4, r9, lsr #32
    1c68:	0004c000 	andeq	ip, r4, r0
    1c6c:	29960500 	ldmibcs	r6, {r8, sl}
    1c70:	00000501 	andeq	r0, r0, r1, lsl #10
    1c74:	00000501 	andeq	r0, r0, r1, lsl #10
    1c78:	83295306 			; <UNDEFINED> instruction: 0x83295306
    1c7c:	83000009 	movwhi	r0, #9
    1c80:	05000009 	streq	r0, [r0, #-9]
    1c84:	05442989 	strbeq	r2, [r4, #-2441]	; 0xfffff677
    1c88:	05440000 	strbeq	r0, [r4, #-0]
    1c8c:	81040000 	mrshi	r0, (UNDEF: 4)
    1c90:	0004f229 	andeq	pc, r4, r9, lsr #4
    1c94:	0004f200 	andeq	pc, r4, r0, lsl #4
    1c98:	298f0500 	stmibcs	pc, {r8, sl}	; <UNPREDICTABLE>
    1c9c:	000007b8 			; <UNDEFINED> instruction: 0x000007b8
    1ca0:	000007b8 			; <UNDEFINED> instruction: 0x000007b8
    1ca4:	8e293909 	cdphi	9, 2, cr3, cr9, cr9, {0}
    1ca8:	8e00000d 	cdphi	0, 0, cr0, cr0, cr13, {0}
    1cac:	0900000d 	stmdbeq	r0, {r0, r2, r3}
    1cb0:	05292936 	streq	r2, [r9, #-2358]!	; 0xfffff6ca
    1cb4:	05290000 	streq	r0, [r9, #-0]!
    1cb8:	8f070000 	svchi	0x00070000
    1cbc:	000afd29 	andeq	pc, sl, r9, lsr #26
    1cc0:	000afd00 	andeq	pc, sl, r0, lsl #26
    1cc4:	29180a00 	ldmdbcs	r8, {r9, fp}
    1cc8:	000008cc 	andeq	r0, r0, ip, asr #17
    1ccc:	000008cc 	andeq	r0, r0, ip, asr #17
    1cd0:	62294e06 	eorvs	r4, r9, #6, 28	; 0x60
    1cd4:	62000003 	andvs	r0, r0, #3
    1cd8:	0b000003 	bleq	1cec <printk+0x70>
    1cdc:	0616293b 			; <UNDEFINED> instruction: 0x0616293b
    1ce0:	06160000 	ldreq	r0, [r6], -r0
    1ce4:	89040000 	stmdbhi	r4, {}	; <UNPREDICTABLE>
    1ce8:	00099129 	andeq	r9, r9, r9, lsr #2
    1cec:	00099100 	andeq	r9, r9, r0, lsl #2
    1cf0:	29170800 	ldmdbcs	r7, {fp}
    1cf4:	00000f5e 	andeq	r0, r0, lr, asr pc
    1cf8:	00000f5e 	andeq	r0, r0, lr, asr pc
    1cfc:	b9291b08 	stmdblt	r9!, {r3, r8, r9, fp, ip}
    1d00:	b9000009 	stmdblt	r0, {r0, r3}
    1d04:	09000009 	stmdbeq	r0, {r0, r3}
    1d08:	02f40038 	rscseq	r0, r4, #56	; 0x38
    1d0c:	00040000 	andeq	r0, r4, r0
    1d10:	00000412 	andeq	r0, r0, r2, lsl r4
    1d14:	00000104 	andeq	r0, r0, r4, lsl #2
    1d18:	310c0000 	mrscc	r0, (UNDEF: 12)
    1d1c:	96000011 			; <UNDEFINED> instruction: 0x96000011
    1d20:	ec000001 	stc	0, cr0, [r0], {1}
    1d24:	78000003 	stmdavc	r0, {r0, r1}
    1d28:	ba000001 	blt	1d34 <printk+0xb8>
    1d2c:	02000004 	andeq	r0, r0, #4
    1d30:	01140601 	tsteq	r4, r1, lsl #12
    1d34:	01020000 	mrseq	r0, (UNDEF: 2)
    1d38:	00011208 	andeq	r1, r1, r8, lsl #4
    1d3c:	05020200 	streq	r0, [r2, #-512]	; 0xfffffe00
    1d40:	00000276 	andeq	r0, r0, r6, ror r2
    1d44:	36070202 	strcc	r0, [r7], -r2, lsl #4
    1d48:	03000001 	movweq	r0, #1
    1d4c:	6e690504 	cdpvs	5, 6, cr0, cr9, cr4, {0}
    1d50:	80040074 	andhi	r0, r4, r4, ror r0
    1d54:	0400000a 	streq	r0, [r0], #-10
    1d58:	00005313 	andeq	r5, r0, r3, lsl r3
    1d5c:	07040200 	streq	r0, [r4, -r0, lsl #4]
    1d60:	000001e6 	andeq	r0, r0, r6, ror #3
    1d64:	36050802 	strcc	r0, [r5], -r2, lsl #16
    1d68:	02000002 	andeq	r0, r0, #2
    1d6c:	01dc0708 	bicseq	r0, ip, r8, lsl #14
    1d70:	48050000 	stmdami	r5, {}	; <UNPREDICTABLE>
    1d74:	02000000 	andeq	r0, r0, #0
    1d78:	022d0704 	eoreq	r0, sp, #4, 14	; 0x100000
    1d7c:	09060000 	stmdbeq	r6, {}	; <UNPREDICTABLE>
    1d80:	04000002 	streq	r0, [r0], #-2
    1d84:	00000053 	andeq	r0, r0, r3, asr r0
    1d88:	01038905 	tsteq	r3, r5, lsl #18
    1d8c:	d4070000 	strle	r0, [r7], #-0
    1d90:	00000000 	andeq	r0, r0, r0
    1d94:	00012907 	andeq	r2, r1, r7, lsl #18
    1d98:	e1070100 	mrs	r0, (UNDEF: 23)
    1d9c:	02000000 	andeq	r0, r0, #0
    1da0:	00010607 	andeq	r0, r1, r7, lsl #12
    1da4:	51070300 	mrspl	r0, SP_und
    1da8:	04000002 	streq	r0, [r0], #-2
    1dac:	0001d007 	andeq	sp, r1, r7
    1db0:	89070500 	stmdbhi	r7, {r8, sl}
    1db4:	06000001 	streq	r0, [r0], -r1
    1db8:	0001f307 	andeq	pc, r1, r7, lsl #6
    1dbc:	c8070700 	stmdagt	r7, {r8, r9, sl}
    1dc0:	08000000 	stmdaeq	r0, {}	; <UNPREDICTABLE>
    1dc4:	0000fb07 	andeq	pc, r0, r7, lsl #22
    1dc8:	c5070900 	strgt	r0, [r7, #-2304]	; 0xfffff700
    1dcc:	0a000001 	beq	1dd8 <printk+0x15c>
    1dd0:	00026b07 	andeq	r6, r2, r7, lsl #22
    1dd4:	03070b00 	movweq	r0, #31488	; 0x7b00
    1dd8:	0c000002 	stceq	0, cr0, [r0], {2}
    1ddc:	00021f07 	andeq	r1, r2, r7, lsl #30
    1de0:	18070d00 	stmdane	r7, {r8, sl, fp}
    1de4:	0e000003 	cdpeq	0, 0, cr0, cr0, cr3, {0}
    1de8:	00025d07 	andeq	r5, r2, r7, lsl #26
    1dec:	e8070f00 	stmda	r7, {r8, r9, sl, fp}
    1df0:	10000002 	andne	r0, r0, r2
    1df4:	00024407 	andeq	r4, r2, r7, lsl #8
    1df8:	02071100 	andeq	r1, r7, #0, 2
    1dfc:	12000003 	andne	r0, r0, #3
    1e00:	0000ee07 	andeq	lr, r0, r7, lsl #28
    1e04:	cd071300 	stcgt	3, cr1, [r7, #-0]
    1e08:	14000002 	strne	r0, [r0], #-2
    1e0c:	08010200 	stmdaeq	r1, {r9}
    1e10:	0000011b 	andeq	r0, r0, fp, lsl r1
    1e14:	e1070402 	tst	r7, r2, lsl #8
    1e18:	08000001 	stmdaeq	r0, {r0}
    1e1c:	000010e4 	andeq	r1, r0, r4, ror #1
    1e20:	03ec1601 	mvneq	r1, #1048576	; 0x100000
    1e24:	00200000 	eoreq	r0, r0, r0
    1e28:	9c010000 	stcls	0, cr0, [r1], {-0}
    1e2c:	00000135 	andeq	r0, r0, r5, lsr r1
    1e30:	0010ca09 	andseq	ip, r0, r9, lsl #20
    1e34:	68190100 	ldmdavs	r9, {r8}
    1e38:	02000000 	andeq	r0, r0, #0
    1e3c:	08007c91 	stmdaeq	r0, {r0, r4, r7, sl, fp, ip, sp, lr}
    1e40:	0000116d 	andeq	r1, r0, sp, ror #2
    1e44:	041cc701 	ldreq	ip, [ip], #-1793	; 0xfffff8ff
    1e48:	00200000 	eoreq	r0, r0, r0
    1e4c:	9c010000 	stcls	0, cr0, [r1], {-0}
    1e50:	00000158 	andeq	r0, r0, r8, asr r1
    1e54:	0100690a 	tsteq	r0, sl, lsl #18
    1e58:	000041c9 	andeq	r4, r0, r9, asr #3
    1e5c:	00015700 	andeq	r5, r1, r0, lsl #14
    1e60:	190b0000 	stmdbne	fp, {}	; <UNPREDICTABLE>
    1e64:	01000011 	tsteq	r0, r1, lsl r0
    1e68:	580c01d3 	stmdapl	ip, {r0, r1, r4, r6, r7, r8}
    1e6c:	3c000001 	stccc	0, cr0, [r0], {1}
    1e70:	04000004 	streq	r0, [r0], #-4
    1e74:	01000000 	mrseq	r0, (UNDEF: 0)
    1e78:	0501089c 	streq	r0, [r1, #-2204]	; 0xfffff764
    1e7c:	d8010000 	stmdale	r1, {}	; <UNPREDICTABLE>
    1e80:	00000440 	andeq	r0, r0, r0, asr #8
    1e84:	00000028 	andeq	r0, r0, r8, lsr #32
    1e88:	01929c01 	orrseq	r9, r2, r1, lsl #24
    1e8c:	760d0000 	strvc	r0, [sp], -r0
    1e90:	01006c61 	tsteq	r0, r1, ror #24
    1e94:	000068d8 	ldrdeq	r6, [r0], -r8
    1e98:	00500100 	subseq	r0, r0, r0, lsl #2
    1e9c:	00115e0e 	andseq	r5, r1, lr, lsl #28
    1ea0:	48e00100 	stmiami	r0!, {r8}^
    1ea4:	68000000 	stmdavs	r0, {}	; <UNPREDICTABLE>
    1ea8:	10000004 	andne	r0, r0, r4
    1eac:	01000000 	mrseq	r0, (UNDEF: 0)
    1eb0:	10d4089c 	smullsne	r0, r4, ip, r8
    1eb4:	e5010000 	str	r0, [r1, #-0]
    1eb8:	00000478 	andeq	r0, r0, r8, ror r4
    1ebc:	00000038 	andeq	r0, r0, r8, lsr r0
    1ec0:	01e39c01 	mvneq	r9, r1, lsl #24
    1ec4:	690a0000 	stmdbvs	sl, {}	; <UNPREDICTABLE>
    1ec8:	41e70100 	mvnmi	r0, r0, lsl #2
    1ecc:	9b000000 	blls	1ed4 <printk+0x258>
    1ed0:	0f000001 	svceq	0x00000001
    1ed4:	000004a4 	andeq	r0, r0, r4, lsr #9
    1ed8:	000002e1 	andeq	r0, r0, r1, ror #5
    1edc:	05500110 	ldrbeq	r0, [r0, #-272]	; 0xfffffef0
    1ee0:	002d3003 	eoreq	r3, sp, r3
    1ee4:	51011000 	mrspl	r1, (UNDEF: 1)
    1ee8:	007c7402 	rsbseq	r7, ip, r2, lsl #8
    1eec:	0cfa0800 	ldcleq	8, cr0, [sl]
    1ef0:	f0010000 			; <UNDEFINED> instruction: 0xf0010000
    1ef4:	000004b0 			; <UNDEFINED> instruction: 0x000004b0
    1ef8:	0000001c 	andeq	r0, r0, ip, lsl r0
    1efc:	02069c01 	andeq	r9, r6, #256	; 0x100
    1f00:	760d0000 	strvc	r0, [sp], -r0
    1f04:	01006c61 	tsteq	r0, r1, ror #24
    1f08:	000068f0 	strdeq	r6, [r0], -r0
    1f0c:	00500100 	subseq	r0, r0, r0, lsl #2
    1f10:	0010fe08 	andseq	pc, r0, r8, lsl #28
    1f14:	ccf60100 	ldfgte	f0, [r6]
    1f18:	1c000004 	stcne	0, cr0, [r0], {4}
    1f1c:	01000000 	mrseq	r0, (UNDEF: 0)
    1f20:	0002299c 	muleq	r2, ip, r9
    1f24:	61760d00 	cmnvs	r6, r0, lsl #26
    1f28:	f601006c 			; <UNDEFINED> instruction: 0xf601006c
    1f2c:	00000068 	andeq	r0, r0, r8, rrx
    1f30:	11005001 	tstne	r0, r1
    1f34:	00001129 	andeq	r1, r0, r9, lsr #2
    1f38:	e8010201 	stmda	r1, {r0, r9}
    1f3c:	18000004 	stmdane	r0, {r2}
    1f40:	01000000 	mrseq	r0, (UNDEF: 0)
    1f44:	1195129c 			; <UNDEFINED> instruction: 0x1195129c
    1f48:	0a010000 	beq	41f50 <__bss_end+0x3edd4>
    1f4c:	00050001 	andeq	r0, r5, r1
    1f50:	00001800 	andeq	r1, r0, r0, lsl #16
    1f54:	609c0100 	addsvs	r0, ip, r0, lsl #2
    1f58:	13000002 	movwne	r0, #2
    1f5c:	000010f1 	strdeq	r1, [r0], -r1	; <UNPREDICTABLE>
    1f60:	48010c01 	stmdami	r1, {r0, sl, fp}
    1f64:	01000000 	mrseq	r0, (UNDEF: 0)
    1f68:	89120052 	ldmdbhi	r2, {r1, r4, r6}
    1f6c:	01000011 	tsteq	r0, r1, lsl r0
    1f70:	05180116 	ldreq	r0, [r8, #-278]	; 0xfffffeea
    1f74:	00180000 	andseq	r0, r8, r0
    1f78:	9c010000 	stcls	0, cr0, [r1], {-0}
    1f7c:	00000285 	andeq	r0, r0, r5, lsl #5
    1f80:	0010f113 	andseq	pc, r0, r3, lsl r1	; <UNPREDICTABLE>
    1f84:	01180100 	tsteq	r8, r0, lsl #2
    1f88:	00000048 	andeq	r0, r0, r8, asr #32
    1f8c:	12005201 	andne	r5, r0, #268435456	; 0x10000000
    1f90:	000010f6 	strdeq	r1, [r0], -r6
    1f94:	30012501 	andcc	r2, r1, r1, lsl #10
    1f98:	34000005 	strcc	r0, [r0], #-5
    1f9c:	01000000 	mrseq	r0, (UNDEF: 0)
    1fa0:	0002cb9c 	muleq	r2, ip, fp
    1fa4:	756e1400 	strbvc	r1, [lr, #-1024]!	; 0xfffffc00
    1fa8:	2501006d 	strcs	r0, [r1, #-109]	; 0xffffff93
    1fac:	00004101 	andeq	r4, r0, r1, lsl #2
    1fb0:	0001af00 	andeq	sl, r1, r0, lsl #30
    1fb4:	10f11300 	rscsne	r1, r1, r0, lsl #6
    1fb8:	27010000 	strcs	r0, [r1, -r0]
    1fbc:	00004801 	andeq	r4, r0, r1, lsl #16
    1fc0:	0f540100 	svceq	0x00540100
    1fc4:	00000558 	andeq	r0, r0, r8, asr r5
    1fc8:	000002ec 	andeq	r0, r0, ip, ror #5
    1fcc:	03500110 	cmpeq	r0, #16, 2
    1fd0:	0027100a 	eoreq	r1, r7, sl
    1fd4:	117e1500 	cmnne	lr, r0, lsl #10
    1fd8:	14010000 	strne	r0, [r1], #-0
    1fdc:	000002dc 	ldrdeq	r0, [r0], -ip
    1fe0:	2dac0305 	stccs	3, cr0, [ip, #20]!
    1fe4:	41050000 	mrsmi	r0, (UNDEF: 5)
    1fe8:	16000000 	strne	r0, [r0], -r0
    1fec:	00000afd 	strdeq	r0, [r0], -sp
    1ff0:	00000afd 	strdeq	r0, [r0], -sp
    1ff4:	5e161802 	cdppl	8, 1, cr1, cr6, cr2, {0}
    1ff8:	5e00000f 	cdppl	0, 0, cr0, cr0, cr15, {0}
    1ffc:	0300000f 	movweq	r0, #15
    2000:	051d001b 	ldreq	r0, [sp, #-27]	; 0xffffffe5
    2004:	00040000 	andeq	r0, r4, r0
    2008:	00000575 	andeq	r0, r0, r5, ror r5
    200c:	00000104 	andeq	r0, r0, r4, lsl #2
    2010:	910c0000 	mrsls	r0, (UNDEF: 12)
    2014:	96000012 			; <UNDEFINED> instruction: 0x96000012
    2018:	64000001 	strvs	r0, [r0], #-1
    201c:	00000005 	andeq	r0, r0, r5
    2020:	aa000002 	bge	2030 <printk_nommu+0xb8>
    2024:	02000005 	andeq	r0, r0, #5
    2028:	01140601 	tsteq	r4, r1, lsl #12
    202c:	01020000 	mrseq	r0, (UNDEF: 2)
    2030:	00011208 	andeq	r1, r1, r8, lsl #4
    2034:	05020200 	streq	r0, [r2, #-512]	; 0xfffffe00
    2038:	00000276 	andeq	r0, r0, r6, ror r2
    203c:	36070202 	strcc	r0, [r7], -r2, lsl #4
    2040:	03000001 	movweq	r0, #1
    2044:	00001264 	andeq	r1, r0, r4, ror #4
    2048:	004c1202 	subeq	r1, ip, r2, lsl #4
    204c:	04040000 	streq	r0, [r4], #-0
    2050:	746e6905 	strbtvc	r6, [lr], #-2309	; 0xfffff6fb
    2054:	0a800300 	beq	fe002c5c <__bss_end+0xfdfffae0>
    2058:	13020000 	movwne	r0, #8192	; 0x2000
    205c:	0000005e 	andeq	r0, r0, lr, asr r0
    2060:	e6070402 	str	r0, [r7], -r2, lsl #8
    2064:	02000001 	andeq	r0, r0, #1
    2068:	02360508 	eorseq	r0, r6, #8, 10	; 0x2000000
    206c:	08020000 	stmdaeq	r2, {}	; <UNPREDICTABLE>
    2070:	0001dc07 	andeq	sp, r1, r7, lsl #24
    2074:	13010500 	movwne	r0, #5376	; 0x1500
    2078:	5e040000 	cdppl	0, 0, cr0, cr4, cr0, {0}
    207c:	03000000 	movweq	r0, #0
    2080:	00009c14 	andeq	r9, r0, r4, lsl ip
    2084:	12230600 	eorne	r0, r3, #0, 12
    2088:	06010000 	streq	r0, [r1], -r0
    208c:	00001324 	andeq	r1, r0, r4, lsr #6
    2090:	12c00602 	sbcne	r0, r0, #2097152	; 0x200000
    2094:	06030000 	streq	r0, [r3], -r0
    2098:	00001246 	andeq	r1, r0, r6, asr #4
    209c:	04020005 	streq	r0, [r2], #-5
    20a0:	00022d07 	andeq	r2, r2, r7, lsl #26
    20a4:	02090500 	andeq	r0, r9, #0, 10
    20a8:	5e040000 	cdppl	0, 0, cr0, cr4, cr0, {0}
    20ac:	04000000 	streq	r0, [r0], #-0
    20b0:	00013289 	andeq	r3, r1, r9, lsl #5
    20b4:	00d40600 	sbcseq	r0, r4, r0, lsl #12
    20b8:	06000000 	streq	r0, [r0], -r0
    20bc:	00000129 	andeq	r0, r0, r9, lsr #2
    20c0:	00e10601 	rsceq	r0, r1, r1, lsl #12
    20c4:	06020000 	streq	r0, [r2], -r0
    20c8:	00000106 	andeq	r0, r0, r6, lsl #2
    20cc:	02510603 	subseq	r0, r1, #3145728	; 0x300000
    20d0:	06040000 	streq	r0, [r4], -r0
    20d4:	000001d0 	ldrdeq	r0, [r0], -r0	; <UNPREDICTABLE>
    20d8:	01890605 	orreq	r0, r9, r5, lsl #12
    20dc:	06060000 	streq	r0, [r6], -r0
    20e0:	000001f3 	strdeq	r0, [r0], -r3
    20e4:	00c80607 	sbceq	r0, r8, r7, lsl #12
    20e8:	06080000 	streq	r0, [r8], -r0
    20ec:	000000fb 	strdeq	r0, [r0], -fp
    20f0:	01c50609 	biceq	r0, r5, r9, lsl #12
    20f4:	060a0000 	streq	r0, [sl], -r0
    20f8:	0000026b 	andeq	r0, r0, fp, ror #4
    20fc:	0203060b 	andeq	r0, r3, #11534336	; 0xb00000
    2100:	060c0000 	streq	r0, [ip], -r0
    2104:	0000021f 	andeq	r0, r0, pc, lsl r2
    2108:	0318060d 	tsteq	r8, #13631488	; 0xd00000
    210c:	060e0000 	streq	r0, [lr], -r0
    2110:	0000025d 	andeq	r0, r0, sp, asr r2
    2114:	02e8060f 	rsceq	r0, r8, #15728640	; 0xf00000
    2118:	06100000 	ldreq	r0, [r0], -r0
    211c:	00000244 	andeq	r0, r0, r4, asr #4
    2120:	03020611 	movweq	r0, #9745	; 0x2611
    2124:	06120000 	ldreq	r0, [r2], -r0
    2128:	000000ee 	andeq	r0, r0, lr, ror #1
    212c:	02cd0613 	sbceq	r0, sp, #19922944	; 0x1300000
    2130:	00140000 	andseq	r0, r4, r0
    2134:	1b080102 	blne	202544 <__bss_end+0x1ff3c8>
    2138:	02000001 	andeq	r0, r0, #1
    213c:	01e10704 	mvneq	r0, r4, lsl #14
    2140:	cd070000 	stcgt	0, cr0, [r7, #-0]
    2144:	01000012 	tsteq	r0, r2, lsl r0
    2148:	0000534c 	andeq	r5, r0, ip, asr #6
    214c:	015c0100 	cmpeq	ip, r0, lsl #2
    2150:	99080000 	stmdbls	r8, {}	; <UNPREDICTABLE>
    2154:	01000015 	tsteq	r0, r5, lsl r0
    2158:	0000534e 	andeq	r5, r0, lr, asr #6
    215c:	91090000 	mrsls	r0, (UNDEF: 9)
    2160:	01000009 	tsteq	r0, r9
    2164:	018a0117 	orreq	r0, sl, r7, lsl r1
    2168:	3d0a0000 	stccc	0, cr0, [sl, #-0]
    216c:	01000012 	tsteq	r0, r2, lsl r0
    2170:	00005317 	andeq	r5, r0, r7, lsl r3
    2174:	11e70a00 	mvnne	r0, r0, lsl #20
    2178:	17010000 	strne	r0, [r1, -r0]
    217c:	00000053 	andeq	r0, r0, r3, asr r0
    2180:	00159908 	andseq	r9, r5, r8, lsl #18
    2184:	531a0100 	tstpl	sl, #0, 2
    2188:	00000000 	andeq	r0, r0, r0
    218c:	0013100b 	andseq	r1, r3, fp
    2190:	53c00100 	bicpl	r0, r0, #0, 2
    2194:	01000000 	mrseq	r0, (UNDEF: 0)
    2198:	000001b1 			; <UNDEFINED> instruction: 0x000001b1
    219c:	0002310a 	andeq	r3, r2, sl, lsl #2
    21a0:	73c00100 	bicvc	r0, r0, #0, 2
    21a4:	08000000 	stmdaeq	r0, {}	; <UNPREDICTABLE>
    21a8:	00001237 	andeq	r1, r0, r7, lsr r2
    21ac:	004cc201 	subeq	ip, ip, r1, lsl #4
    21b0:	0c000000 	stceq	0, cr0, [r0], {-0}
    21b4:	0000015c 	andeq	r0, r0, ip, asr r1
    21b8:	00000564 	andeq	r0, r0, r4, ror #10
    21bc:	00000034 	andeq	r0, r0, r4, lsr r0
    21c0:	01dc9c01 	bicseq	r9, ip, r1, lsl #24
    21c4:	680d0000 	stmdavs	sp, {}	; <UNPREDICTABLE>
    21c8:	01000001 	tsteq	r0, r1
    21cc:	01730d50 	cmneq	r3, r0, asr sp
    21d0:	51010000 	mrspl	r0, (UNDEF: 1)
    21d4:	00017e0e 	andeq	r7, r1, lr, lsl #28
    21d8:	0001d000 	andeq	sp, r1, r0
    21dc:	510f0000 	mrspl	r0, CPSR
    21e0:	01000012 	tsteq	r0, r2, lsl r0
    21e4:	00059837 	andeq	r9, r5, r7, lsr r8
    21e8:	00001c00 	andeq	r1, r0, r0, lsl #24
    21ec:	0f9c0100 	svceq	0x009c0100
    21f0:	000011b8 			; <UNDEFINED> instruction: 0x000011b8
    21f4:	05b44101 	ldreq	r4, [r4, #257]!	; 0x101
    21f8:	001c0000 	andseq	r0, ip, r0
    21fc:	9c010000 	stcls	0, cr0, [r1], {-0}
    2200:	0001400c 	andeq	r4, r1, ip
    2204:	0005d000 	andeq	sp, r5, r0
    2208:	00000800 	andeq	r0, r0, r0, lsl #16
    220c:	199c0100 	ldmibne	ip, {r8}
    2210:	10000002 	andne	r0, r0, r2
    2214:	00000150 	andeq	r0, r0, r0, asr r1
    2218:	11005001 	tstne	r0, r1
    221c:	000011f6 	strdeq	r1, [r0], -r6
    2220:	05d85401 	ldrbeq	r5, [r8, #1025]	; 0x401
    2224:	00100000 	andseq	r0, r0, r0
    2228:	9c010000 	stcls	0, cr0, [r1], {-0}
    222c:	0000023e 	andeq	r0, r0, lr, lsr r2
    2230:	00159912 	andseq	r9, r5, r2, lsl r9
    2234:	53560100 	cmppl	r6, #0, 2
    2238:	19000000 	stmdbne	r0, {}	; <UNPREDICTABLE>
    223c:	00000002 	andeq	r0, r0, r2
    2240:	000d1a11 	andeq	r1, sp, r1, lsl sl
    2244:	e85f0100 	ldmda	pc, {r8}^	; <UNPREDICTABLE>
    2248:	30000005 	andcc	r0, r0, r5
    224c:	01000000 	mrseq	r0, (UNDEF: 0)
    2250:	0002c99c 	muleq	r2, ip, r9
    2254:	08e81200 	stmiaeq	r8!, {r9, ip}^
    2258:	61010000 	mrsvs	r0, (UNDEF: 1)
    225c:	00000053 	andeq	r0, r0, r3, asr r0
    2260:	00000247 	andeq	r0, r0, r7, asr #4
    2264:	646e6513 	strbtvs	r6, [lr], #-1299	; 0xfffffaed
    2268:	53620100 	cmnpl	r2, #0, 2
    226c:	5b000000 	blpl	2274 <standby_delay>
    2270:	14000002 	strne	r0, [r0], #-2
    2274:	00000140 	andeq	r0, r0, r0, asr #2
    2278:	000005ec 	andeq	r0, r0, ip, ror #11
    227c:	00000004 	andeq	r0, r0, r4
    2280:	02986701 	addseq	r6, r8, #262144	; 0x40000
    2284:	ec150000 	ldc	0, cr0, [r5], {-0}
    2288:	04000005 	streq	r0, [r0], #-5
    228c:	0e000000 	cdpeq	0, 0, cr0, cr0, cr0, {0}
    2290:	00000150 	andeq	r0, r0, r0, asr r1
    2294:	0000026f 	andeq	r0, r0, pc, ror #4
    2298:	40140000 	andsmi	r0, r4, r0
    229c:	f0000001 			; <UNDEFINED> instruction: 0xf0000001
    22a0:	04000005 	streq	r0, [r0], #-5
    22a4:	01000000 	mrseq	r0, (UNDEF: 0)
    22a8:	0002bf68 	andeq	fp, r2, r8, ror #30
    22ac:	05f01500 	ldrbeq	r1, [r0, #1280]!	; 0x500
    22b0:	00040000 	andeq	r0, r4, r0
    22b4:	500e0000 	andpl	r0, lr, r0
    22b8:	82000001 	andhi	r0, r0, #1
    22bc:	00000002 	andeq	r0, r0, r2
    22c0:	06101600 	ldreq	r1, [r0], -r0, lsl #12
    22c4:	050a0000 	streq	r0, [sl, #-0]
    22c8:	11000000 	mrsne	r0, (UNDEF: 0)
    22cc:	00000f5e 	andeq	r0, r0, lr, asr pc
    22d0:	06187101 	ldreq	r7, [r8], -r1, lsl #2
    22d4:	00940000 	addseq	r0, r4, r0
    22d8:	9c010000 	stcls	0, cr0, [r1], {-0}
    22dc:	000003c8 	andeq	r0, r0, r8, asr #7
    22e0:	00737517 	rsbseq	r7, r3, r7, lsl r5
    22e4:	00537101 	subseq	r7, r3, r1, lsl #2
    22e8:	02950000 	addseq	r0, r5, #0
    22ec:	30120000 	andscc	r0, r2, r0
    22f0:	01000012 	tsteq	r0, r2, lsl r0
    22f4:	00005373 	andeq	r5, r0, r3, ror r3
    22f8:	0002cc00 	andeq	ip, r2, r0, lsl #24
    22fc:	75631300 	strbvc	r1, [r3, #-768]!	; 0xfffffd00
    2300:	74010072 	strvc	r0, [r1], #-114	; 0xffffff8e
    2304:	00000053 	andeq	r0, r0, r3, asr r0
    2308:	000002fc 	strdeq	r0, [r0], -ip
    230c:	0011b112 	andseq	fp, r1, r2, lsl r1
    2310:	53750100 	cmnpl	r5, #0, 2
    2314:	27000000 	strcs	r0, [r0, -r0]
    2318:	12000003 	andne	r0, r0, #3
    231c:	000011a2 	andeq	r1, r0, r2, lsr #3
    2320:	00537601 	subseq	r7, r3, r1, lsl #12
    2324:	03520000 	cmpeq	r2, #0
    2328:	6f180000 	svcvs	0x00180000
    232c:	01007475 	tsteq	r0, r5, ror r4
    2330:	000630aa 	andeq	r3, r6, sl, lsr #1
    2334:	01401400 	cmpeq	r0, r0, lsl #8
    2338:	064c0000 	strbeq	r0, [ip], -r0
    233c:	00040000 	andeq	r0, r4, r0
    2340:	81010000 	mrshi	r0, (UNDEF: 1)
    2344:	00000356 	andeq	r0, r0, r6, asr r3
    2348:	00064c15 	andeq	r4, r6, r5, lsl ip
    234c:	00000400 	andeq	r0, r0, r0, lsl #8
    2350:	01501900 	cmpeq	r0, r0, lsl #18
    2354:	00000000 	andeq	r0, r0, r0
    2358:	00015c14 	andeq	r5, r1, r4, lsl ip
    235c:	00067000 	andeq	r7, r6, r0
    2360:	00001c00 	andeq	r1, r0, r0, lsl #24
    2364:	8f870100 	svchi	0x00870100
    2368:	1a000003 	bne	237c <__aeabi_idiv+0x28>
    236c:	00000173 	andeq	r0, r0, r3, ror r1
    2370:	0000037d 	andeq	r0, r0, sp, ror r3
    2374:	0001681a 	andeq	r6, r1, sl, lsl r8
    2378:	00039100 	andeq	r9, r3, r0, lsl #2
    237c:	06701500 	ldrbteq	r1, [r0], -r0, lsl #10
    2380:	001c0000 	andseq	r0, ip, r0
    2384:	7e0e0000 	cdpvc	0, 0, cr0, cr14, cr0, {0}
    2388:	a5000001 	strge	r0, [r0, #-1]
    238c:	00000003 	andeq	r0, r0, r3
    2390:	01401400 	cmpeq	r0, r0, lsl #8
    2394:	06980000 	ldreq	r0, [r8], r0
    2398:	00040000 	andeq	r0, r4, r0
    239c:	8b010000 	blhi	423a4 <__bss_end+0x3f228>
    23a0:	000003b6 			; <UNDEFINED> instruction: 0x000003b6
    23a4:	00069815 	andeq	r9, r6, r5, lsl r8
    23a8:	00000400 	andeq	r0, r0, r0, lsl #8
    23ac:	01500e00 	cmpeq	r0, r0, lsl #28
    23b0:	03c90000 	biceq	r0, r9, #0
    23b4:	00000000 	andeq	r0, r0, r0
    23b8:	00064c1b 	andeq	r4, r6, fp, lsl ip
    23bc:	00051500 	andeq	r1, r5, r0, lsl #10
    23c0:	51011c00 	tstpl	r1, r0, lsl #24
    23c4:	03e80a03 	mvneq	r0, #12288	; 0x3000
    23c8:	af110000 	svcge	0x00110000
    23cc:	01000007 	tsteq	r0, r7
    23d0:	0006acb4 			; <UNDEFINED> instruction: 0x0006acb4
    23d4:	00003400 	andeq	r3, r0, r0, lsl #8
    23d8:	0a9c0100 	beq	fe7027e0 <__bss_end+0xfe6ff664>
    23dc:	17000004 	strne	r0, [r0, -r4]
    23e0:	0100736d 	tsteq	r0, sp, ror #6
    23e4:	000053b4 			; <UNDEFINED> instruction: 0x000053b4
    23e8:	0003dc00 	andeq	sp, r3, r0, lsl #24
    23ec:	06c81d00 	strbeq	r1, [r8], r0, lsl #26
    23f0:	02c90000 	sbceq	r0, r9, #0
    23f4:	04000000 	streq	r0, [r0], #-0
    23f8:	011c0000 	tsteq	ip, r0
    23fc:	100a0350 	andne	r0, sl, r0, asr r3
    2400:	e01e0027 	ands	r0, lr, r7, lsr #32
    2404:	c9000006 	stmdbgt	r0, {r1, r2}
    2408:	00000002 	andeq	r0, r0, r2
    240c:	0012ee11 	andseq	lr, r2, r1, lsl lr
    2410:	e0da0100 	sbcs	r0, sl, r0, lsl #2
    2414:	2c000006 	stccs	0, cr0, [r0], {6}
    2418:	01000000 	mrseq	r0, (UNDEF: 0)
    241c:	0004499c 	muleq	r4, ip, r9
    2420:	123d1f00 	eorsne	r1, sp, #0, 30
    2424:	da010000 	ble	4242c <__bss_end+0x3f2b0>
    2428:	00000053 	andeq	r0, r0, r3, asr r0
    242c:	e71f5001 	ldr	r5, [pc, -r1]
    2430:	01000011 	tsteq	r0, r1, lsl r0
    2434:	000053da 	ldrdeq	r5, [r0], -sl
    2438:	12510100 	subsne	r0, r1, #0, 2
    243c:	00001599 	muleq	r0, r9, r5
    2440:	0053dd01 	subseq	sp, r3, r1, lsl #26
    2444:	04120000 	ldreq	r0, [r2], #-0
    2448:	11000000 	mrsne	r0, (UNDEF: 0)
    244c:	000012dc 	ldrdeq	r1, [r0], -ip
    2450:	070cf801 	streq	pc, [ip, -r1, lsl #16]
    2454:	002c0000 	eoreq	r0, ip, r0
    2458:	9c010000 	stcls	0, cr0, [r1], {-0}
    245c:	0000047b 	andeq	r0, r0, fp, ror r4
    2460:	0002311f 	andeq	r3, r2, pc, lsl r1
    2464:	73f80100 	mvnsvc	r0, #0, 2
    2468:	01000000 	mrseq	r0, (UNDEF: 0)
    246c:	12371250 	eorsne	r1, r7, #80, 4
    2470:	fb010000 	blx	4247a <__bss_end+0x3f2fe>
    2474:	00000053 	andeq	r0, r0, r3, asr r0
    2478:	0000045b 	andeq	r0, r0, fp, asr r4
    247c:	11d52000 	bicsne	r2, r5, r0
    2480:	0b010000 	bleq	42488 <__bss_end+0x3f30c>
    2484:	00004c01 	andeq	r4, r0, r1, lsl #24
    2488:	00073800 	andeq	r3, r7, r0, lsl #16
    248c:	00002c00 	andeq	r2, r0, r0, lsl #24
    2490:	c69c0100 	ldrgt	r0, [ip], r0, lsl #2
    2494:	21000004 	tstcs	r0, r4
    2498:	00000231 	andeq	r0, r0, r1, lsr r2
    249c:	73010b01 	movwvc	r0, #6913	; 0x1b01
    24a0:	6f000000 	svcvs	0x00000000
    24a4:	22000004 	andcs	r0, r0, #4
    24a8:	00001237 	andeq	r1, r0, r7, lsr r2
    24ac:	4c010d01 	stcmi	13, cr0, [r1], {1}
    24b0:	9d000000 	stcls	0, cr0, [r0, #-0]
    24b4:	22000004 	andcs	r0, r0, #4
    24b8:	0000126a 	andeq	r1, r0, sl, ror #4
    24bc:	4c010e01 	stcmi	14, cr0, [r1], {1}
    24c0:	bc000000 	stclt	0, cr0, [r0], {-0}
    24c4:	00000004 	andeq	r0, r0, r4
    24c8:	00133b23 	andseq	r3, r3, r3, lsr #22
    24cc:	53100100 	tstpl	r0, #0, 2
    24d0:	05000000 	streq	r0, [r0, #-0]
    24d4:	002dbc03 	eoreq	fp, sp, r3, lsl #24
    24d8:	11cc2300 	bicne	r2, ip, r0, lsl #6
    24dc:	11010000 	mrsne	r0, (UNDEF: 1)
    24e0:	00000053 	andeq	r0, r0, r3, asr r0
    24e4:	2db80305 	ldccs	3, cr0, [r8, #20]!
    24e8:	74230000 	strtvc	r0, [r3], #-0
    24ec:	01000012 	tsteq	r0, r2, lsl r0
    24f0:	00005312 	andeq	r5, r0, r2, lsl r3
    24f4:	b0030500 	andlt	r0, r3, r0, lsl #10
    24f8:	2300002d 	movwcs	r0, #45	; 0x2d
    24fc:	00001204 	andeq	r1, r0, r4, lsl #4
    2500:	00531301 	subseq	r1, r3, r1, lsl #6
    2504:	03050000 	movweq	r0, #20480	; 0x5000
    2508:	00002db4 			; <UNDEFINED> instruction: 0x00002db4
    250c:	00132f24 	andseq	r2, r3, r4, lsr #30
    2510:	00132f00 	andseq	r2, r3, r0, lsl #30
    2514:	24930500 	ldrcs	r0, [r3], #1280	; 0x500
    2518:	00001344 	andeq	r1, r0, r4, asr #6
    251c:	00001344 	andeq	r1, r0, r4, asr #6
    2520:	5d001006 	stcpl	0, cr1, [r0, #-24]	; 0xffffffe8
    2524:	04000001 	streq	r0, [r0], #-1
    2528:	00078400 	andeq	r8, r7, r0, lsl #8
    252c:	00010400 	andeq	r0, r1, r0, lsl #8
    2530:	0c000000 	stceq	0, cr0, [r0], {-0}
    2534:	00001351 	andeq	r1, r0, r1, asr r3
    2538:	00000196 	muleq	r0, r6, r1
    253c:	00000780 	andeq	r0, r0, r0, lsl #15
    2540:	000000e0 	andeq	r0, r0, r0, ror #1
    2544:	000006ed 	andeq	r0, r0, sp, ror #13
    2548:	e6070402 	str	r0, [r7], -r2, lsl #8
    254c:	02000001 	andeq	r0, r0, #1
    2550:	022d0704 	eoreq	r0, sp, #4, 14	; 0x100000
    2554:	01020000 	mrseq	r0, (UNDEF: 2)
    2558:	00011b08 	andeq	r1, r1, r8, lsl #22
    255c:	07040200 	streq	r0, [r4, -r0, lsl #4]
    2560:	000001e1 	andeq	r0, r0, r1, ror #3
    2564:	69050403 	stmdbvs	r5, {r0, r1, sl}
    2568:	0200746e 	andeq	r7, r0, #1845493760	; 0x6e000000
    256c:	01120801 	tsteq	r2, r1, lsl #16
    2570:	01020000 	mrseq	r0, (UNDEF: 2)
    2574:	00011406 	andeq	r1, r1, r6, lsl #8
    2578:	05020200 	streq	r0, [r2, #-512]	; 0xfffffe00
    257c:	00000276 	andeq	r0, r0, r6, ror r2
    2580:	36070202 	strcc	r0, [r7], -r2, lsl #4
    2584:	04000001 	streq	r0, [r0], #-1
    2588:	00000a80 	andeq	r0, r0, r0, lsl #21
    258c:	00251303 	eoreq	r1, r5, r3, lsl #6
    2590:	08020000 	stmdaeq	r2, {}	; <UNPREDICTABLE>
    2594:	00023605 	andeq	r3, r2, r5, lsl #12
    2598:	07080200 	streq	r0, [r8, -r0, lsl #4]
    259c:	000001dc 	ldrdeq	r0, [r0], -ip
    25a0:	00058805 	andeq	r8, r5, r5, lsl #16
    25a4:	4c022400 	cfstrsmi	mvf2, [r2], {-0}
    25a8:	000000f5 	strdeq	r0, [r0], -r5
    25ac:	00101506 	andseq	r1, r0, r6, lsl #10
    25b0:	644e0200 	strbvs	r0, [lr], #-512	; 0xfffffe00
    25b4:	00000000 	andeq	r0, r0, r0
    25b8:	00726307 	rsbseq	r6, r2, r7, lsl #6
    25bc:	00645002 	rsbeq	r5, r4, r2
    25c0:	06040000 	streq	r0, [r4], -r0
    25c4:	00000da7 	andeq	r0, r0, r7, lsr #27
    25c8:	00645102 	rsbeq	r5, r4, r2, lsl #2
    25cc:	06080000 	streq	r0, [r8], -r0
    25d0:	00000e00 	andeq	r0, r0, r0, lsl #28
    25d4:	00645302 	rsbeq	r5, r4, r2, lsl #6
    25d8:	060c0000 	streq	r0, [ip], -r0
    25dc:	00000f0e 	andeq	r0, r0, lr, lsl #30
    25e0:	00645402 	rsbeq	r5, r4, r2, lsl #8
    25e4:	06100000 	ldreq	r0, [r0], -r0
    25e8:	00000a7a 	andeq	r0, r0, sl, ror sl
    25ec:	00645502 	rsbeq	r5, r4, r2, lsl #10
    25f0:	06140000 	ldreq	r0, [r4], -r0
    25f4:	000008ee 	andeq	r0, r0, lr, ror #17
    25f8:	00645802 	rsbeq	r5, r4, r2, lsl #16
    25fc:	06180000 	ldreq	r0, [r8], -r0
    2600:	00000deb 	andeq	r0, r0, fp, ror #27
    2604:	00645b02 	rsbeq	r5, r4, r2, lsl #22
    2608:	061c0000 	ldreq	r0, [ip], -r0
    260c:	00000e7a 	andeq	r0, r0, sl, ror lr
    2610:	00645c02 	rsbeq	r5, r4, r2, lsl #24
    2614:	00200000 	eoreq	r0, r0, r0
    2618:	00138008 	andseq	r8, r3, r8
    261c:	80120100 	andshi	r0, r2, r0, lsl #2
    2620:	3c000007 	stccc	0, cr0, [r0], {7}
    2624:	01000000 	mrseq	r0, (UNDEF: 0)
    2628:	0001189c 	muleq	r1, ip, r8
    262c:	05820900 	streq	r0, [r2, #2304]	; 0x900
    2630:	12010000 	andne	r0, r1, #0
    2634:	00000118 	andeq	r0, r0, r8, lsl r1
    2638:	0a005001 	beq	16644 <__bss_end+0x134c8>
    263c:	00007d04 	andeq	r7, r0, r4, lsl #26
    2640:	138f0800 	orrne	r0, pc, #0, 16
    2644:	28010000 	stmdacs	r1, {}	; <UNPREDICTABLE>
    2648:	000007bc 			; <UNDEFINED> instruction: 0x000007bc
    264c:	0000004c 	andeq	r0, r0, ip, asr #32
    2650:	01419c01 	cmpeq	r1, r1, lsl #24
    2654:	82090000 	andhi	r0, r9, #0
    2658:	01000005 	tsteq	r0, r5
    265c:	00011828 	andeq	r1, r1, r8, lsr #16
    2660:	00500100 	subseq	r0, r0, r0, lsl #2
    2664:	0004c00b 	andeq	ip, r4, fp
    2668:	08430100 	stmdaeq	r3, {r8}^
    266c:	58000008 	stmdapl	r0, {r3}
    2670:	01000000 	mrseq	r0, (UNDEF: 0)
    2674:	0582099c 	streq	r0, [r2, #2460]	; 0x99c
    2678:	43010000 	movwmi	r0, #4096	; 0x1000
    267c:	00000118 	andeq	r0, r0, r8, lsl r1
    2680:	00005001 	andeq	r5, r0, r1
    2684:	00000084 	andeq	r0, r0, r4, lsl #1
    2688:	08320002 	ldmdaeq	r2!, {r1}
    268c:	01040000 	mrseq	r0, (UNDEF: 4)
    2690:	000007a9 	andeq	r0, r0, r9, lsr #15
    2694:	00000860 	andeq	r0, r0, r0, ror #16
    2698:	00000db0 			; <UNDEFINED> instruction: 0x00000db0
    269c:	68637261 	stmdavs	r3!, {r0, r5, r6, r9, ip, sp, lr}^
    26a0:	6d72612f 	ldfvse	f6, [r2, #-188]!	; 0xffffff44
    26a4:	63616d2f 	cmnvs	r1, #3008	; 0xbc0
    26a8:	75732d68 	ldrbvc	r2, [r3, #-3432]!	; 0xfffff298
    26ac:	2f69786e 	svccs	0x0069786e
    26b0:	732f6d70 			; <UNDEFINED> instruction: 0x732f6d70
    26b4:	646e6174 	strbtvs	r6, [lr], #-372	; 0xfffffe8c
    26b8:	2e2f7962 	cdpcs	9, 2, cr7, cr15, cr2, {3}
    26bc:	656d2f2e 	strbvs	r2, [sp, #-3886]!	; 0xfffff0d2
    26c0:	6d6d5f6d 	stclvs	15, cr5, [sp, #-436]!	; 0xfffffe4c
    26c4:	63705f75 	cmnvs	r0, #468	; 0x1d4
    26c8:	6d73615f 	ldfvse	f6, [r3, #-380]!	; 0xfffffe84
    26cc:	2f00532e 	svccs	0x0000532e
    26d0:	656d6f68 	strbvs	r6, [sp, #-3944]!	; 0xfffff098
    26d4:	72616b2f 	rsbvc	r6, r1, #48128	; 0xbc00
    26d8:	65656c6c 	strbvs	r6, [r5, #-3180]!	; 0xfffff394
    26dc:	776c612f 	strbvc	r6, [ip, -pc, lsr #2]!
    26e0:	656e6e69 	strbvs	r6, [lr, #-3689]!	; 0xfffff197
    26e4:	50422f72 	subpl	r2, r2, r2, ror pc
    26e8:	324d2d49 	subcc	r2, sp, #4672	; 0x1240
    26ec:	73622d4d 	cmnvc	r2, #4928	; 0x1340
    26f0:	696c2f70 	stmdbvs	ip!, {r4, r5, r6, r8, r9, sl, fp, sp}^
    26f4:	2d78756e 	cfldr64cs	mvdx7, [r8, #-440]!	; 0xfffffe48
    26f8:	786e7573 	stmdavc	lr!, {r0, r1, r4, r5, r6, r8, sl, ip, sp, lr}^
    26fc:	4e470069 	cdpmi	0, 4, cr0, cr7, cr9, {3}
    2700:	53412055 	movtpl	r2, #4181	; 0x1055
    2704:	322e3220 	eorcc	r3, lr, #32, 4
    2708:	80010036 	andhi	r0, r1, r6, lsr r0
    270c:	00000612 	andeq	r0, r0, r2, lsl r6
    2710:	08460004 	stmdaeq	r6, {r2}^
    2714:	01040000 	mrseq	r0, (UNDEF: 4)
    2718:	00000000 	andeq	r0, r0, r0
    271c:	0014e40c 	andseq	lr, r4, ip, lsl #8
    2720:	00019600 	andeq	r9, r1, r0, lsl #12
    2724:	000db000 	andeq	fp, sp, r0
    2728:	0007ac00 	andeq	sl, r7, r0, lsl #24
    272c:	00095d00 	andeq	r5, r9, r0, lsl #26
    2730:	06010200 	streq	r0, [r1], -r0, lsl #4
    2734:	00000114 	andeq	r0, r0, r4, lsl r1
    2738:	12080102 	andne	r0, r8, #-2147483648	; 0x80000000
    273c:	02000001 	andeq	r0, r0, #1
    2740:	02760502 	rsbseq	r0, r6, #8388608	; 0x800000
    2744:	02020000 	andeq	r0, r2, #0
    2748:	00013607 	andeq	r3, r1, r7, lsl #12
    274c:	05040300 	streq	r0, [r4, #-768]	; 0xfffffd00
    2750:	00746e69 	rsbseq	r6, r4, r9, ror #28
    2754:	000a8004 	andeq	r8, sl, r4
    2758:	53130300 	tstpl	r3, #0, 6
    275c:	02000000 	andeq	r0, r0, #0
    2760:	01e60704 	mvneq	r0, r4, lsl #14
    2764:	08020000 	stmdaeq	r2, {}	; <UNPREDICTABLE>
    2768:	00023605 	andeq	r3, r2, r5, lsl #12
    276c:	07080200 	streq	r0, [r8, -r0, lsl #4]
    2770:	000001dc 	ldrdeq	r0, [r0], -ip
    2774:	0014b205 	andseq	fp, r4, r5, lsl #4
    2778:	1202a000 	andne	sl, r2, #0
    277c:	00000254 	andeq	r0, r0, r4, asr r2
    2780:	00101506 	andseq	r1, r0, r6, lsl #10
    2784:	48170200 	ldmdami	r7, {r9}
    2788:	00000000 	andeq	r0, r0, r0
    278c:	00726307 	rsbseq	r6, r2, r7, lsl #6
    2790:	00482702 	subeq	r2, r8, r2, lsl #14
    2794:	07040000 	streq	r0, [r4, -r0]
    2798:	00726361 	rsbseq	r6, r2, r1, ror #6
    279c:	00482802 	subeq	r2, r8, r2, lsl #16
    27a0:	06080000 	streq	r0, [r8], -r0
    27a4:	00000da7 	andeq	r0, r0, r7, lsr #27
    27a8:	00482902 	subeq	r2, r8, r2, lsl #18
    27ac:	060c0000 	streq	r0, [ip], -r0
    27b0:	000013b5 			; <UNDEFINED> instruction: 0x000013b5
    27b4:	00482a02 	subeq	r2, r8, r2, lsl #20
    27b8:	06100000 	ldreq	r0, [r0], -r0
    27bc:	000013ed 	andeq	r1, r0, sp, ror #7
    27c0:	00482b02 	subeq	r2, r8, r2, lsl #22
    27c4:	06140000 	ldreq	r0, [r4], -r0
    27c8:	000014c0 	andeq	r1, r0, r0, asr #9
    27cc:	00482c02 	subeq	r2, r8, r2, lsl #24
    27d0:	06180000 	ldreq	r0, [r8], -r0
    27d4:	00000e00 	andeq	r0, r0, r0, lsl #28
    27d8:	00483002 	subeq	r3, r8, r2
    27dc:	061c0000 	ldreq	r0, [ip], -r0
    27e0:	00000f0e 	andeq	r0, r0, lr, lsl #30
    27e4:	00483102 	subeq	r3, r8, r2, lsl #2
    27e8:	06200000 	strteq	r0, [r0], -r0
    27ec:	00000a7a 	andeq	r0, r0, sl, ror sl
    27f0:	00483202 	subeq	r3, r8, r2, lsl #4
    27f4:	06240000 	strteq	r0, [r4], -r0
    27f8:	000008ee 	andeq	r0, r0, lr, ror #17
    27fc:	00483402 	subeq	r3, r8, r2, lsl #8
    2800:	06280000 	strteq	r0, [r8], -r0
    2804:	000013c1 	andeq	r1, r0, r1, asr #7
    2808:	00483602 	subeq	r3, r8, r2, lsl #12
    280c:	062c0000 	strteq	r0, [ip], -r0
    2810:	0000159f 	muleq	r0, pc, r5	; <UNPREDICTABLE>
    2814:	00483702 	subeq	r3, r8, r2, lsl #14
    2818:	06300000 	ldrteq	r0, [r0], -r0
    281c:	000014ab 	andeq	r1, r0, fp, lsr #9
    2820:	00483802 	subeq	r3, r8, r2, lsl #16
    2824:	06340000 	ldrteq	r0, [r4], -r0
    2828:	000015ba 			; <UNDEFINED> instruction: 0x000015ba
    282c:	00483902 	subeq	r3, r8, r2, lsl #18
    2830:	06380000 	ldrteq	r0, [r8], -r0
    2834:	000015a5 	andeq	r1, r0, r5, lsr #11
    2838:	00483b02 	subeq	r3, r8, r2, lsl #22
    283c:	063c0000 	ldrteq	r0, [ip], -r0
    2840:	000013af 	andeq	r1, r0, pc, lsr #7
    2844:	00483c02 	subeq	r3, r8, r2, lsl #24
    2848:	07400000 	strbeq	r0, [r0, -r0]
    284c:	00726170 	rsbseq	r6, r2, r0, ror r1
    2850:	00483e02 	subeq	r3, r8, r2, lsl #28
    2854:	06440000 	strbeq	r0, [r4], -r0
    2858:	0000157b 	andeq	r1, r0, fp, ror r5
    285c:	00484002 	subeq	r4, r8, r2
    2860:	06480000 	strbeq	r0, [r8], -r0
    2864:	00001586 	andeq	r1, r0, r6, lsl #11
    2868:	00484102 	subeq	r4, r8, r2, lsl #2
    286c:	064c0000 	strbeq	r0, [ip], -r0
    2870:	000014cd 	andeq	r1, r0, sp, asr #9
    2874:	00484202 	subeq	r4, r8, r2, lsl #4
    2878:	06500000 	ldrbeq	r0, [r0], -r0
    287c:	00001576 	andeq	r1, r0, r6, ror r5
    2880:	00484302 	subeq	r4, r8, r2, lsl #6
    2884:	07540000 	ldrbeq	r0, [r4, -r0]
    2888:	00726973 	rsbseq	r6, r2, r3, ror r9
    288c:	00484702 	subeq	r4, r8, r2, lsl #14
    2890:	06580000 	ldrbeq	r0, [r8], -r0
    2894:	00001492 	muleq	r0, r2, r4
    2898:	00484902 	subeq	r4, r8, r2, lsl #18
    289c:	075c0000 	ldrbeq	r0, [ip, -r0]
    28a0:	00726363 	rsbseq	r6, r2, r3, ror #6
    28a4:	00484a02 	subeq	r4, r8, r2, lsl #20
    28a8:	07600000 	strbeq	r0, [r0, -r0]!
    28ac:	00727365 	rsbseq	r7, r2, r5, ror #6
    28b0:	00484b02 	subeq	r4, r8, r2, lsl #22
    28b4:	06640000 	strbteq	r0, [r4], -r0
    28b8:	000015b1 			; <UNDEFINED> instruction: 0x000015b1
    28bc:	00484c02 	subeq	r4, r8, r2, lsl #24
    28c0:	07680000 	strbeq	r0, [r8, -r0]!
    28c4:	00726575 	rsbseq	r6, r2, r5, ror r5
    28c8:	00484d02 	subeq	r4, r8, r2, lsl #26
    28cc:	066c0000 	strbteq	r0, [ip], -r0
    28d0:	0000147e 	andeq	r1, r0, lr, ror r4
    28d4:	00484e02 	subeq	r4, r8, r2, lsl #28
    28d8:	06700000 	ldrbteq	r0, [r0], -r0
    28dc:	000013bc 			; <UNDEFINED> instruction: 0x000013bc
    28e0:	00484f02 	subeq	r4, r8, r2, lsl #30
    28e4:	06740000 	ldrbteq	r0, [r4], -r0
    28e8:	00000deb 	andeq	r0, r0, fp, ror #27
    28ec:	00485d02 	subeq	r5, r8, r2, lsl #26
    28f0:	06780000 	ldrbteq	r0, [r8], -r0
    28f4:	00000e7a 	andeq	r0, r0, sl, ror lr
    28f8:	00485e02 	subeq	r5, r8, r2, lsl #28
    28fc:	067c0000 	ldrbteq	r0, [ip], -r0
    2900:	000015ac 	andeq	r1, r0, ip, lsr #11
    2904:	00487402 	subeq	r7, r8, r2, lsl #8
    2908:	06800000 	streq	r0, [r0], r0
    290c:	000015ab 	andeq	r1, r0, fp, lsr #11
    2910:	00487502 	subeq	r7, r8, r2, lsl #10
    2914:	07840000 	streq	r0, [r4, r0]
    2918:	00727369 	rsbseq	r7, r2, r9, ror #6
    291c:	00487602 	subeq	r7, r8, r2, lsl #12
    2920:	06880000 	streq	r0, [r8], r0
    2924:	00001536 	andeq	r1, r0, r6, lsr r5
    2928:	00487a02 	subeq	r7, r8, r2, lsl #20
    292c:	078c0000 	streq	r0, [ip, r0]
    2930:	00646963 	rsbeq	r6, r4, r3, ror #18
    2934:	00487b02 	subeq	r7, r8, r2, lsl #22
    2938:	06900000 	ldreq	r0, [r0], r0
    293c:	000013d6 	ldrdeq	r1, [r0], -r6
    2940:	00487c02 	subeq	r7, r8, r2, lsl #24
    2944:	06940000 	ldreq	r0, [r4], r0
    2948:	000014dc 	ldrdeq	r1, [r0], -ip
    294c:	00487d02 	subeq	r7, r8, r2, lsl #26
    2950:	06980000 	ldreq	r0, [r8], r0
    2954:	000013a8 	andeq	r1, r0, r8, lsr #7
    2958:	00487e02 	subeq	r7, r8, r2, lsl #28
    295c:	009c0000 	addseq	r0, ip, r0
    2960:	2d070402 	cfstrscs	mvf0, [r7, #-8]
    2964:	08000002 	stmdaeq	r0, {r1}
    2968:	00000209 	andeq	r0, r0, r9, lsl #4
    296c:	00005304 	andeq	r5, r0, r4, lsl #6
    2970:	ea890400 	b	fe243978 <__bss_end+0xfe2407fc>
    2974:	09000002 	stmdbeq	r0, {r1}
    2978:	000000d4 	ldrdeq	r0, [r0], -r4
    297c:	01290900 			; <UNDEFINED> instruction: 0x01290900
    2980:	09010000 	stmdbeq	r1, {}	; <UNPREDICTABLE>
    2984:	000000e1 	andeq	r0, r0, r1, ror #1
    2988:	01060902 	tsteq	r6, r2, lsl #18
    298c:	09030000 	stmdbeq	r3, {}	; <UNPREDICTABLE>
    2990:	00000251 	andeq	r0, r0, r1, asr r2
    2994:	01d00904 	bicseq	r0, r0, r4, lsl #18
    2998:	09050000 	stmdbeq	r5, {}	; <UNPREDICTABLE>
    299c:	00000189 	andeq	r0, r0, r9, lsl #3
    29a0:	01f30906 	mvnseq	r0, r6, lsl #18
    29a4:	09070000 	stmdbeq	r7, {}	; <UNPREDICTABLE>
    29a8:	000000c8 	andeq	r0, r0, r8, asr #1
    29ac:	00fb0908 	rscseq	r0, fp, r8, lsl #18
    29b0:	09090000 	stmdbeq	r9, {}	; <UNPREDICTABLE>
    29b4:	000001c5 	andeq	r0, r0, r5, asr #3
    29b8:	026b090a 	rsbeq	r0, fp, #163840	; 0x28000
    29bc:	090b0000 	stmdbeq	fp, {}	; <UNPREDICTABLE>
    29c0:	00000203 	andeq	r0, r0, r3, lsl #4
    29c4:	021f090c 	andseq	r0, pc, #12, 18	; 0x30000
    29c8:	090d0000 	stmdbeq	sp, {}	; <UNPREDICTABLE>
    29cc:	00000318 	andeq	r0, r0, r8, lsl r3
    29d0:	025d090e 	subseq	r0, sp, #229376	; 0x38000
    29d4:	090f0000 	stmdbeq	pc, {}	; <UNPREDICTABLE>
    29d8:	000002e8 	andeq	r0, r0, r8, ror #5
    29dc:	02440910 	subeq	r0, r4, #16, 18	; 0x40000
    29e0:	09110000 	ldmdbeq	r1, {}	; <UNPREDICTABLE>
    29e4:	00000302 	andeq	r0, r0, r2, lsl #6
    29e8:	00ee0912 	rsceq	r0, lr, r2, lsl r9
    29ec:	09130000 	ldmdbeq	r3, {}	; <UNPREDICTABLE>
    29f0:	000002cd 	andeq	r0, r0, sp, asr #5
    29f4:	01020014 	tsteq	r2, r4, lsl r0
    29f8:	00011b08 	andeq	r1, r1, r8, lsl #22
    29fc:	07040200 	streq	r0, [r4, -r0, lsl #4]
    2a00:	000001e1 	andeq	r0, r0, r1, ror #3
    2a04:	0015100a 	andseq	r1, r5, sl
    2a08:	b08a0100 	addlt	r0, sl, r0, lsl #2
    2a0c:	0400000d 	streq	r0, [r0], #-13
    2a10:	01000004 	tsteq	r0, r4
    2a14:	00031b9c 	muleq	r3, ip, fp
    2a18:	14970b00 	ldrne	r0, [r7], #2816	; 0xb00
    2a1c:	8a010000 	bhi	42a24 <__bss_end+0x3f8a8>
    2a20:	0000031b 	andeq	r0, r0, fp, lsl r3
    2a24:	0c005001 	stceq	0, cr5, [r0], {1}
    2a28:	00006804 	andeq	r6, r0, r4, lsl #16
    2a2c:	14640d00 	strbtne	r0, [r4], #-3328	; 0xfffff300
    2a30:	18010000 	stmdane	r1, {}	; <UNPREDICTABLE>
    2a34:	0011b401 	andseq	fp, r1, r1, lsl #8
    2a38:	0002c400 	andeq	ip, r2, r0, lsl #8
    2a3c:	469c0100 	ldrmi	r0, [ip], r0, lsl #2
    2a40:	0e000003 	cdpeq	0, 0, cr0, cr0, cr3, {0}
    2a44:	00001497 	muleq	r0, r7, r4
    2a48:	1b011801 	blne	48a54 <__bss_end+0x458d8>
    2a4c:	01000003 	tsteq	r0, r3
    2a50:	4b0d0050 	blmi	342b98 <__bss_end+0x33fa1c>
    2a54:	01000014 	tsteq	r0, r4, lsl r0
    2a58:	1478017b 	ldrbtne	r0, [r8], #-379	; 0xfffffe85
    2a5c:	00180000 	andseq	r0, r8, r0
    2a60:	9c010000 	stcls	0, cr0, [r1], {-0}
    2a64:	0000036d 	andeq	r0, r0, sp, ror #6
    2a68:	6c61760f 	stclvs	6, cr7, [r1], #-60	; 0xffffffc4
    2a6c:	017e0100 	cmneq	lr, r0, lsl #2
    2a70:	00000048 	andeq	r0, r0, r8, asr #32
    2a74:	000004d0 	ldrdeq	r0, [r0], -r0	; <UNPREDICTABLE>
    2a78:	0f150d00 	svceq	0x00150d00
    2a7c:	89010000 	stmdbhi	r1, {}	; <UNPREDICTABLE>
    2a80:	00149001 	andseq	r9, r4, r1
    2a84:	00009000 	andeq	r9, r0, r0
    2a88:	979c0100 	ldrls	r0, [ip, r0, lsl #2]
    2a8c:	10000003 	andne	r0, r0, r3
    2a90:	00001497 	muleq	r0, r7, r4
    2a94:	1b018b01 	blne	656a0 <__bss_end+0x62524>
    2a98:	06000003 	streq	r0, [r0], -r3
    2a9c:	002b41f2 	strdeq	r4, [fp], -r2	; <UNPREDICTABLE>
    2aa0:	0d000000 	stceq	0, cr0, [r0, #-0]
    2aa4:	00001512 	andeq	r1, r0, r2, lsl r5
    2aa8:	2001e301 	andcs	lr, r1, r1, lsl #6
    2aac:	0c000015 	stceq	0, cr0, [r0], {21}
    2ab0:	01000000 	mrseq	r0, (UNDEF: 0)
    2ab4:	0003c19c 	muleq	r3, ip, r1
    2ab8:	152c1100 	strne	r1, [ip, #-256]!	; 0xffffff00
    2abc:	02f80000 	rscseq	r0, r8, #0
    2ac0:	01120000 	tsteq	r2, r0
    2ac4:	c0030550 	andgt	r0, r3, r0, asr r5
    2ac8:	0000002d 	andeq	r0, r0, sp, lsr #32
    2acc:	14660d00 	strbtne	r0, [r6], #-3328	; 0xfffff300
    2ad0:	e9010000 	stmdb	r1, {}	; <UNPREDICTABLE>
    2ad4:	00152c01 	andseq	r2, r5, r1, lsl #24
    2ad8:	00000c00 	andeq	r0, r0, r0, lsl #24
    2adc:	eb9c0100 	bl	fe702ee4 <__bss_end+0xfe6ffd68>
    2ae0:	11000003 	tstne	r0, r3
    2ae4:	00001538 	andeq	r1, r0, r8, lsr r5
    2ae8:	00000321 	andeq	r0, r0, r1, lsr #6
    2aec:	05500112 	ldrbeq	r0, [r0, #-274]	; 0xfffffeee
    2af0:	002dc003 	eoreq	ip, sp, r3
    2af4:	13000000 	movwne	r0, #0
    2af8:	00001424 	andeq	r1, r0, r4, lsr #8
    2afc:	3801ee01 	stmdacc	r1, {r0, r9, sl, fp, sp, lr, pc}
    2b00:	14000015 	strne	r0, [r0], #-21	; 0xffffffeb
    2b04:	01000000 	mrseq	r0, (UNDEF: 0)
    2b08:	14d20d9c 	ldrbne	r0, [r2], #3484	; 0xd9c
    2b0c:	f4010000 	vst4.8	{d0-d3}, [r1], r0
    2b10:	00154c01 	andseq	r4, r5, r1, lsl #24
    2b14:	00001000 	andeq	r1, r0, r0
    2b18:	249c0100 	ldrcs	r0, [ip], #256	; 0x100
    2b1c:	0f000004 	svceq	0x00000004
    2b20:	00627474 	rsbeq	r7, r2, r4, ror r4
    2b24:	4801f601 	stmdami	r1, {r0, r9, sl, ip, sp, lr, pc}
    2b28:	f3000000 	vhadd.u8	d0, d0, d0
    2b2c:	00000004 	andeq	r0, r0, r4
    2b30:	0014b214 	andseq	fp, r4, r4, lsl r2
    2b34:	681f0100 	ldmdavs	pc, {r8}	; <UNPREDICTABLE>
    2b38:	05000000 	streq	r0, [r0, #-0]
    2b3c:	002dc003 	eoreq	ip, sp, r3
    2b40:	158b1500 	strne	r1, [fp, #1280]	; 0x500
    2b44:	21010000 	mrscs	r0, (UNDEF: 1)
    2b48:	000004e1 	andeq	r0, r0, r1, ror #9
    2b4c:	000002a0 	andeq	r0, r0, r0, lsr #5
    2b50:	c5087800 	strgt	r7, [r8, #-2048]	; 0xfffff800
    2b54:	00604000 	rsbeq	r4, r0, r0
	...
    2bc4:	0a81a400 	beq	fe06bbcc <__bss_end+0xfe068a50>
    2bc8:	e048e000 	sub	lr, r8, r0
    2bcc:	00000044 	andeq	r0, r0, r4, asr #32
	...
    2bec:	00681600 	rsbeq	r1, r8, r0, lsl #12
    2bf0:	f1170000 			; <UNDEFINED> instruction: 0xf1170000
    2bf4:	f6000002 			; <UNDEFINED> instruction: 0xf6000002
    2bf8:	18000004 	stmdane	r0, {r2}
    2bfc:	00000254 	andeq	r0, r0, r4, asr r2
    2c00:	ef190001 	svc	0x00190001
    2c04:	01000015 	tsteq	r0, r5, lsl r0
    2c08:	0004e60f 	andeq	lr, r4, pc, lsl #12
    2c0c:	5c030500 	cfstr32pl	mvfx0, [r3], {-0}
    2c10:	19000031 	stmdbne	r0, {r0, r4, r5}
    2c14:	00001567 	andeq	r1, r0, r7, ror #10
    2c18:	02f11001 	rscseq	r1, r1, #1
    2c1c:	03050000 	movweq	r0, #20480	; 0x5000
    2c20:	00003158 	andeq	r3, r0, r8, asr r1
    2c24:	00155119 	andseq	r5, r5, r9, lsl r1
    2c28:	e6110100 	ldr	r0, [r1], -r0, lsl #2
    2c2c:	05000004 	streq	r0, [r0, #-4]
    2c30:	00306c03 	eorseq	r6, r0, r3, lsl #24
    2c34:	143c1900 	ldrtne	r1, [ip], #-2304	; 0xfffff700
    2c38:	12010000 	andne	r0, r1, #0
    2c3c:	000002f1 	strdeq	r0, [r0], -r1
    2c40:	31700305 	cmncc	r0, r5, lsl #6
    2c44:	f1170000 			; <UNDEFINED> instruction: 0xf1170000
    2c48:	4a000002 	bmi	2c58 <CSWTCH.20+0x3c>
    2c4c:	18000005 	stmdane	r0, {r0, r2}
    2c50:	00000254 	andeq	r0, r0, r4, asr r2
    2c54:	f8190006 			; <UNDEFINED> instruction: 0xf8190006
    2c58:	01000013 	tsteq	r0, r3, lsl r0
    2c5c:	00053a13 	andeq	r3, r5, r3, lsl sl
    2c60:	3c030500 	cfstr32cc	mvfx0, [r3], {-0}
    2c64:	19000031 	stmdbne	r0, {r0, r4, r5}
    2c68:	00001483 	andeq	r1, r0, r3, lsl #9
    2c6c:	02f11401 	rscseq	r1, r1, #16777216	; 0x1000000
    2c70:	03050000 	movweq	r0, #20480	; 0x5000
    2c74:	00003074 	andeq	r3, r0, r4, ror r0
    2c78:	0015c119 	andseq	ip, r5, r9, lsl r1
    2c7c:	e6150100 	ldr	r0, [r5], -r0, lsl #2
    2c80:	05000004 	streq	r0, [r0, #-4]
    2c84:	00308003 	eorseq	r8, r0, r3
    2c88:	13c71900 	bicne	r1, r7, #0, 18
    2c8c:	16010000 	strne	r0, [r1], -r0
    2c90:	000002f1 	strdeq	r0, [r0], -r1
    2c94:	31640305 	cmncc	r4, r5, lsl #6
    2c98:	0e190000 	cdpeq	0, 1, cr0, cr9, cr0, {0}
    2c9c:	01000014 	tsteq	r0, r4, lsl r0
    2ca0:	0004e617 	andeq	lr, r4, r7, lsl r6
    2ca4:	64030500 	strvs	r0, [r3], #-1280	; 0xfffffb00
    2ca8:	19000030 	stmdbne	r0, {r4, r5}
    2cac:	0000149c 	muleq	r0, ip, r4
    2cb0:	02f11801 	rscseq	r1, r1, #65536	; 0x10000
    2cb4:	03050000 	movweq	r0, #20480	; 0x5000
    2cb8:	0000307c 	andeq	r3, r0, ip, ror r0
    2cbc:	00153b19 	andseq	r3, r5, r9, lsl fp
    2cc0:	e6190100 	ldr	r0, [r9], -r0, lsl #2
    2cc4:	05000004 	streq	r0, [r0, #-4]
    2cc8:	00317403 	eorseq	r7, r1, r3, lsl #8
    2ccc:	15271900 	strne	r1, [r7, #-2304]!	; 0xfffff700
    2cd0:	1a010000 	bne	42cd8 <__bss_end+0x3fb5c>
    2cd4:	000002f1 	strdeq	r0, [r0], -r1
    2cd8:	30780305 	rsbscc	r0, r8, r5, lsl #6
    2cdc:	05190000 	ldreq	r0, [r9, #-0]
    2ce0:	01000016 	tsteq	r0, r6, lsl r0
    2ce4:	0004e61b 	andeq	lr, r4, fp, lsl r6
    2ce8:	68030500 	stmdavs	r3, {r8, sl}
    2cec:	19000031 	stmdbne	r0, {r0, r4, r5}
    2cf0:	000013de 	ldrdeq	r1, [r0], -lr
    2cf4:	02f11c01 	rscseq	r1, r1, #256	; 0x100
    2cf8:	03050000 	movweq	r0, #20480	; 0x5000
    2cfc:	00003088 	andeq	r3, r0, r8, lsl #1
    2d00:	0002f117 	andeq	pc, r2, r7, lsl r1	; <UNPREDICTABLE>
    2d04:	00060400 	andeq	r0, r6, r0, lsl #8
    2d08:	02541800 	subseq	r1, r4, #0, 16
    2d0c:	002b0000 	eoreq	r0, fp, r0
    2d10:	0015d719 	andseq	sp, r5, r9, lsl r7
    2d14:	f41d0100 			; <UNDEFINED> instruction: 0xf41d0100
    2d18:	05000005 	streq	r0, [r0, #-5]
    2d1c:	00308c03 	eorseq	r8, r0, r3, lsl #24
    2d20:	160c0000 	strne	r0, [ip], -r0
    2d24:	00040000 	andeq	r0, r4, r0
    2d28:	000009b7 			; <UNDEFINED> instruction: 0x000009b7
    2d2c:	00000104 	andeq	r0, r0, r4, lsl #2
    2d30:	250c0000 	strcs	r0, [ip, #-0]
    2d34:	96000017 			; <UNDEFINED> instruction: 0x96000017
    2d38:	5c000001 	stcpl	0, cr0, [r0], {1}
    2d3c:	c8000015 	stmdagt	r0, {r0, r2, r4}
    2d40:	9c000004 	stcls	0, cr0, [r0], {4}
    2d44:	0200000a 	andeq	r0, r0, #10
    2d48:	01140601 	tsteq	r4, r1, lsl #12
    2d4c:	01020000 	mrseq	r0, (UNDEF: 2)
    2d50:	00011208 	andeq	r1, r1, r8, lsl #4
    2d54:	05020200 	streq	r0, [r2, #-512]	; 0xfffffe00
    2d58:	00000276 	andeq	r0, r0, r6, ror r2
    2d5c:	36070202 	strcc	r0, [r7], -r2, lsl #4
    2d60:	03000001 	movweq	r0, #1
    2d64:	00001264 	andeq	r1, r0, r4, ror #4
    2d68:	004c1202 	subeq	r1, ip, r2, lsl #4
    2d6c:	04040000 	streq	r0, [r4], #-0
    2d70:	746e6905 	strbtvc	r6, [lr], #-2309	; 0xfffff6fb
    2d74:	0a800300 	beq	fe00397c <__bss_end+0xfe000800>
    2d78:	13020000 	movwne	r0, #8192	; 0x2000
    2d7c:	0000005e 	andeq	r0, r0, lr, asr r0
    2d80:	e6070402 	str	r0, [r7], -r2, lsl #8
    2d84:	02000001 	andeq	r0, r0, #1
    2d88:	02360508 	eorseq	r0, r6, #8, 10	; 0x2000000
    2d8c:	08020000 	stmdaeq	r2, {}	; <UNPREDICTABLE>
    2d90:	0001dc07 	andeq	sp, r1, r7, lsl #24
    2d94:	03040500 	movweq	r0, #17664	; 0x4500
    2d98:	00013f1a 	andeq	r3, r1, sl, lsl pc
    2d9c:	07400600 	strbeq	r0, [r0, -r0, lsl #12]
    2da0:	1c030000 	stcne	0, cr0, [r3], {-0}
    2da4:	00000053 	andeq	r0, r0, r3, asr r0
    2da8:	001e0204 	andseq	r0, lr, r4, lsl #4
    2dac:	000d3406 	andeq	r3, sp, r6, lsl #8
    2db0:	531d0300 	tstpl	sp, #0, 6
    2db4:	04000000 	streq	r0, [r0], #-0
    2db8:	06001c02 	streq	r1, [r0], -r2, lsl #24
    2dbc:	00000738 	andeq	r0, r0, r8, lsr r7
    2dc0:	00531e03 	subseq	r1, r3, r3, lsl #28
    2dc4:	02040000 	andeq	r0, r4, #0
    2dc8:	3e06001a 	mcrcc	0, 0, r0, cr6, cr10, {0}
    2dcc:	0300000d 	movweq	r0, #13
    2dd0:	0000531f 	andeq	r5, r0, pc, lsl r3
    2dd4:	18020400 	stmdane	r2, {sl}
    2dd8:	07480600 	strbeq	r0, [r8, -r0, lsl #12]
    2ddc:	20030000 	andcs	r0, r3, r0
    2de0:	00000053 	andeq	r0, r0, r3, asr r0
    2de4:	00130504 	andseq	r0, r3, r4, lsl #10
    2de8:	000d4806 	andeq	r4, sp, r6, lsl #16
    2dec:	53210300 			; <UNDEFINED> instruction: 0x53210300
    2df0:	04000000 	streq	r0, [r0], #-0
    2df4:	06001003 	streq	r1, [r0], -r3
    2df8:	00000758 	andeq	r0, r0, r8, asr r7
    2dfc:	00532203 	subseq	r2, r3, r3, lsl #4
    2e00:	02040000 	andeq	r0, r4, #0
    2e04:	5206000e 	andpl	r0, r6, #14
    2e08:	0300000d 	movweq	r0, #13
    2e0c:	00005323 	andeq	r5, r0, r3, lsr #6
    2e10:	08060400 	stmdaeq	r6, {sl}
    2e14:	0a5f0600 	beq	17c461c <__bss_end+0x17c14a0>
    2e18:	24030000 	strcs	r0, [r3], #-0
    2e1c:	00000053 	andeq	r0, r0, r3, asr r0
    2e20:	00070104 	andeq	r0, r7, r4, lsl #2
    2e24:	000d5c06 	andeq	r5, sp, r6, lsl #24
    2e28:	53250300 			; <UNDEFINED> instruction: 0x53250300
    2e2c:	04000000 	streq	r0, [r0], #-0
    2e30:	06000403 	streq	r0, [r0], -r3, lsl #8
    2e34:	00000bfb 	strdeq	r0, [r0], -fp
    2e38:	00532603 	subseq	r2, r3, r3, lsl #12
    2e3c:	01040000 	mrseq	r0, (UNDEF: 4)
    2e40:	66060003 	strvs	r0, [r6], -r3
    2e44:	0300000d 	movweq	r0, #13
    2e48:	00005327 	andeq	r5, r0, r7, lsr #6
    2e4c:	01020400 	tsteq	r2, r0, lsl #8
    2e50:	0caa0600 	stceq	6, cr0, [sl]
    2e54:	28030000 	stmdacs	r3, {}	; <UNPREDICTABLE>
    2e58:	00000053 	andeq	r0, r0, r3, asr r0
    2e5c:	00000104 	andeq	r0, r0, r4, lsl #2
    2e60:	03040700 	movweq	r0, #18176	; 0x4700
    2e64:	00015e18 	andeq	r5, r1, r8, lsl lr
    2e68:	04d20800 	ldrbeq	r0, [r2], #2048	; 0x800
    2e6c:	19030000 	stmdbne	r3, {}	; <UNPREDICTABLE>
    2e70:	00000053 	andeq	r0, r0, r3, asr r0
    2e74:	000ad008 	andeq	sp, sl, r8
    2e78:	732a0300 			; <UNDEFINED> instruction: 0x732a0300
    2e7c:	00000000 	andeq	r0, r0, r0
    2e80:	000cb003 	andeq	fp, ip, r3
    2e84:	3f2b0300 	svccc	0x002b0300
    2e88:	09000001 	stmdbeq	r0, {r0}
    2e8c:	00000cd1 	ldrdeq	r0, [r0], -r1
    2e90:	1b2e0304 	blne	b83aa8 <__bss_end+0xb8092c>
    2e94:	06000002 	streq	r0, [r0], -r2
    2e98:	00000740 	andeq	r0, r0, r0, asr #14
    2e9c:	00533003 	subseq	r3, r3, r3
    2ea0:	05040000 	streq	r0, [r4, #-0]
    2ea4:	3406001b 	strcc	r0, [r6], #-27	; 0xffffffe5
    2ea8:	0300000d 	movweq	r0, #13
    2eac:	00005331 	andeq	r5, r0, r1, lsr r3
    2eb0:	18030400 	stmdane	r3, {sl}
    2eb4:	07480600 	strbeq	r0, [r8, -r0, lsl #12]
    2eb8:	32030000 	andcc	r0, r3, #0
    2ebc:	00000053 	andeq	r0, r0, r3, asr r0
    2ec0:	00110704 	andseq	r0, r1, r4, lsl #14
    2ec4:	000d3e06 	andeq	r3, sp, r6, lsl #28
    2ec8:	53330300 	teqpl	r3, #0, 6
    2ecc:	04000000 	streq	r0, [r0], #-0
    2ed0:	06001001 	streq	r1, [r0], -r1
    2ed4:	00000758 	andeq	r0, r0, r8, asr r7
    2ed8:	00533403 	subseq	r3, r3, r3, lsl #8
    2edc:	04040000 	streq	r0, [r4], #-0
    2ee0:	4806000c 	stmdami	r6, {r2, r3}
    2ee4:	0300000d 	movweq	r0, #13
    2ee8:	00005335 	andeq	r5, r0, r5, lsr r3
    2eec:	08040400 	stmdaeq	r4, {sl}
    2ef0:	0bd00600 	bleq	ff4046f8 <__bss_end+0xff40157c>
    2ef4:	36030000 	strcc	r0, [r3], -r0
    2ef8:	00000053 	andeq	r0, r0, r3, asr r0
    2efc:	00070104 	andeq	r0, r7, r4, lsl #2
    2f00:	000d5206 	andeq	r5, sp, r6, lsl #4
    2f04:	53370300 	teqpl	r7, #0, 6
    2f08:	04000000 	streq	r0, [r0], #-0
    2f0c:	06000403 	streq	r0, [r0], -r3, lsl #8
    2f10:	00000bfb 	strdeq	r0, [r0], -fp
    2f14:	00533803 	subseq	r3, r3, r3, lsl #16
    2f18:	01040000 	mrseq	r0, (UNDEF: 4)
    2f1c:	5c060003 	stcpl	0, cr0, [r6], {3}
    2f20:	0300000d 	movweq	r0, #13
    2f24:	00005339 	andeq	r5, r0, r9, lsr r3
    2f28:	01020400 	tsteq	r2, r0, lsl #8
    2f2c:	0caa0600 	stceq	6, cr0, [sl]
    2f30:	3a030000 	bcc	c2f38 <__bss_end+0xbfdbc>
    2f34:	00000053 	andeq	r0, r0, r3, asr r0
    2f38:	00000104 	andeq	r0, r0, r4, lsl #2
    2f3c:	0c230300 	stceq	3, cr0, [r3], #-0
    2f40:	3b030000 	blcc	c2f48 <__bss_end+0xbfdcc>
    2f44:	00000169 	andeq	r0, r0, r9, ror #2
    2f48:	000c9009 	andeq	r9, ip, r9
    2f4c:	50030400 	andpl	r0, r3, r0, lsl #8
    2f50:	000002f6 	strdeq	r0, [r0], -r6
    2f54:	00074006 	andeq	r4, r7, r6
    2f58:	53520300 	cmppl	r2, #0, 6
    2f5c:	04000000 	streq	r0, [r0], #-0
    2f60:	06001e02 	streq	r1, [r0], -r2, lsl #28
    2f64:	00000d34 	andeq	r0, r0, r4, lsr sp
    2f68:	00535303 	subseq	r5, r3, r3, lsl #6
    2f6c:	02040000 	andeq	r0, r4, #0
    2f70:	3806001c 	stmdacc	r6, {r2, r3, r4}
    2f74:	03000007 	movweq	r0, #7
    2f78:	00005354 	andeq	r5, r0, r4, asr r3
    2f7c:	1a020400 	bne	83f84 <__bss_end+0x80e08>
    2f80:	0d3e0600 	ldceq	6, cr0, [lr, #-0]
    2f84:	55030000 	strpl	r0, [r3, #-0]
    2f88:	00000053 	andeq	r0, r0, r3, asr r0
    2f8c:	00180204 	andseq	r0, r8, r4, lsl #4
    2f90:	00074806 	andeq	r4, r7, r6, lsl #16
    2f94:	53560300 	cmppl	r6, #0, 6
    2f98:	04000000 	streq	r0, [r0], #-0
    2f9c:	06001305 	streq	r1, [r0], -r5, lsl #6
    2fa0:	00000d48 	andeq	r0, r0, r8, asr #26
    2fa4:	00535703 	subseq	r5, r3, r3, lsl #14
    2fa8:	07040000 	streq	r0, [r4, -r0]
    2fac:	9506000c 	strls	r0, [r6, #-12]
    2fb0:	03000006 	movweq	r0, #6
    2fb4:	00005358 	andeq	r5, r0, r8, asr r3
    2fb8:	0b010400 	bleq	43fc0 <__bss_end+0x40e44>
    2fbc:	0d520600 	ldcleq	6, cr0, [r2, #-0]
    2fc0:	59030000 	stmdbpl	r3, {}	; <UNPREDICTABLE>
    2fc4:	00000053 	andeq	r0, r0, r3, asr r0
    2fc8:	00080304 	andeq	r0, r8, r4, lsl #6
    2fcc:	000a6706 	andeq	r6, sl, r6, lsl #14
    2fd0:	535a0300 	cmppl	sl, #0, 6
    2fd4:	04000000 	streq	r0, [r0], #-0
    2fd8:	06000701 	streq	r0, [r0], -r1, lsl #14
    2fdc:	00000d5c 	andeq	r0, r0, ip, asr sp
    2fe0:	00535b03 	subseq	r5, r3, r3, lsl #22
    2fe4:	03040000 	movweq	r0, #16384	; 0x4000
    2fe8:	fb060004 	blx	183002 <__bss_end+0x17fe86>
    2fec:	0300000b 	movweq	r0, #11
    2ff0:	0000535c 	andeq	r5, r0, ip, asr r3
    2ff4:	03010400 	movweq	r0, #5120	; 0x1400
    2ff8:	0d660600 	stcleq	6, cr0, [r6, #-0]
    2ffc:	5d030000 	stcpl	0, cr0, [r3, #-0]
    3000:	00000053 	andeq	r0, r0, r3, asr r0
    3004:	00010204 	andeq	r0, r1, r4, lsl #4
    3008:	000caa06 	andeq	sl, ip, r6, lsl #20
    300c:	535e0300 	cmppl	lr, #0, 6
    3010:	04000000 	streq	r0, [r0], #-0
    3014:	00000001 	andeq	r0, r0, r1
    3018:	0006ae03 	andeq	sl, r6, r3, lsl #28
    301c:	265f0300 	ldrbcs	r0, [pc], -r0, lsl #6
    3020:	09000002 	stmdbeq	r0, {r1}
    3024:	000010a4 	andeq	r1, r0, r4, lsr #1
    3028:	ef620304 	svc	0x00620304
    302c:	06000003 	streq	r0, [r0], -r3
    3030:	00000740 	andeq	r0, r0, r0, asr #14
    3034:	00536403 	subseq	r6, r3, r3, lsl #8
    3038:	02040000 	andeq	r0, r4, #0
    303c:	3406001e 	strcc	r0, [r6], #-30	; 0xffffffe2
    3040:	0300000d 	movweq	r0, #13
    3044:	00005365 	andeq	r5, r0, r5, ror #6
    3048:	1c020400 	cfstrsne	mvf0, [r2], {-0}
    304c:	07380600 	ldreq	r0, [r8, -r0, lsl #12]!
    3050:	66030000 	strvs	r0, [r3], -r0
    3054:	00000053 	andeq	r0, r0, r3, asr r0
    3058:	001a0204 	andseq	r0, sl, r4, lsl #4
    305c:	000d3e06 	andeq	r3, sp, r6, lsl #28
    3060:	53670300 	cmnpl	r7, #0, 6
    3064:	04000000 	streq	r0, [r0], #-0
    3068:	06001802 	streq	r1, [r0], -r2, lsl #16
    306c:	00000748 	andeq	r0, r0, r8, asr #14
    3070:	00536803 	subseq	r6, r3, r3, lsl #16
    3074:	05040000 	streq	r0, [r4, #-0]
    3078:	48060013 	stmdami	r6, {r0, r1, r4}
    307c:	0300000d 	movweq	r0, #13
    3080:	00005369 	andeq	r5, r0, r9, ror #6
    3084:	10030400 	andne	r0, r3, r0, lsl #8
    3088:	0ed50600 	cdpeq	6, 13, cr0, cr5, cr0, {0}
    308c:	6a030000 	bvs	c3094 <__bss_end+0xbff18>
    3090:	00000053 	andeq	r0, r0, r3, asr r0
    3094:	000e0204 	andeq	r0, lr, r4, lsl #4
    3098:	00043606 	andeq	r3, r4, r6, lsl #12
    309c:	536b0300 	cmnpl	fp, #0, 6
    30a0:	04000000 	streq	r0, [r0], #-0
    30a4:	06000d01 	streq	r0, [r0], -r1, lsl #26
    30a8:	00000d52 	andeq	r0, r0, r2, asr sp
    30ac:	00536c03 	subseq	r6, r3, r3, lsl #24
    30b0:	05040000 	streq	r0, [r4, #-0]
    30b4:	59060008 	stmdbpl	r6, {r3}
    30b8:	0300000b 	movweq	r0, #11
    30bc:	0000536d 	andeq	r5, r0, sp, ror #6
    30c0:	07010400 	streq	r0, [r1, -r0, lsl #8]
    30c4:	0b0f0600 	bleq	3c48cc <__bss_end+0x3c1750>
    30c8:	6e030000 	cdpvs	0, 0, cr0, cr3, cr0, {0}
    30cc:	00000053 	andeq	r0, r0, r3, asr r0
    30d0:	00060104 	andeq	r0, r6, r4, lsl #2
    30d4:	000d5c06 	andeq	r5, sp, r6, lsl #24
    30d8:	536f0300 	cmnpl	pc, #0, 6
    30dc:	04000000 	streq	r0, [r0], #-0
    30e0:	06000402 	streq	r0, [r0], -r2, lsl #8
    30e4:	00000bfb 	strdeq	r0, [r0], -fp
    30e8:	00537003 	subseq	r7, r3, r3
    30ec:	01040000 	mrseq	r0, (UNDEF: 4)
    30f0:	66060003 	strvs	r0, [r6], -r3
    30f4:	0300000d 	movweq	r0, #13
    30f8:	00005371 	andeq	r5, r0, r1, ror r3
    30fc:	01020400 	tsteq	r2, r0, lsl #8
    3100:	0caa0600 	stceq	6, cr0, [sl]
    3104:	72030000 	andvc	r0, r3, #0
    3108:	00000053 	andeq	r0, r0, r3, asr r0
    310c:	00000104 	andeq	r0, r0, r4, lsl #2
    3110:	05c40300 	strbeq	r0, [r4, #768]	; 0x300
    3114:	73030000 	movwvc	r0, #12288	; 0x3000
    3118:	00000301 	andeq	r0, r0, r1, lsl #6
    311c:	00088709 	andeq	r8, r8, r9, lsl #14
    3120:	75030400 	strvc	r0, [r3, #-1024]	; 0xfffffc00
    3124:	000004bb 			; <UNDEFINED> instruction: 0x000004bb
    3128:	00074006 	andeq	r4, r7, r6
    312c:	53770300 	cmnpl	r7, #0, 6
    3130:	04000000 	streq	r0, [r0], #-0
    3134:	06001c04 	streq	r1, [r0], -r4, lsl #24
    3138:	00000d34 	andeq	r0, r0, r4, lsr sp
    313c:	00537803 	subseq	r7, r3, r3, lsl #16
    3140:	04040000 	streq	r0, [r4], #-0
    3144:	48060018 	stmdami	r6, {r3, r4}
    3148:	03000007 	movweq	r0, #7
    314c:	00005379 	andeq	r5, r0, r9, ror r3
    3150:	11070400 	tstne	r7, r0, lsl #8
    3154:	0d3e0600 	ldceq	6, cr0, [lr, #-0]
    3158:	7a030000 	bvc	c3160 <__bss_end+0xbffe4>
    315c:	00000053 	andeq	r0, r0, r3, asr r0
    3160:	000c0504 	andeq	r0, ip, r4, lsl #10
    3164:	000bd006 	andeq	sp, fp, r6
    3168:	537b0300 	cmnpl	fp, #0, 6
    316c:	04000000 	streq	r0, [r0], #-0
    3170:	06000b01 	streq	r0, [r0], -r1, lsl #22
    3174:	00000d48 	andeq	r0, r0, r8, asr #26
    3178:	00537c03 	subseq	r7, r3, r3, lsl #24
    317c:	03040000 	movweq	r0, #16384	; 0x4000
    3180:	5f060008 	svcpl	0x00060008
    3184:	0300000c 	movweq	r0, #12
    3188:	0000537d 	andeq	r5, r0, sp, ror r3
    318c:	07010400 	streq	r0, [r1, -r0, lsl #8]
    3190:	0dc20600 	stcleq	6, cr0, [r2]
    3194:	7e030000 	cdpvc	0, 0, cr0, cr3, cr0, {0}
    3198:	00000053 	andeq	r0, r0, r3, asr r0
    319c:	00060104 	andeq	r0, r6, r4, lsl #2
    31a0:	000d5206 	andeq	r5, sp, r6, lsl #4
    31a4:	537f0300 	cmnpl	pc, #0, 6
    31a8:	04000000 	streq	r0, [r0], #-0
    31ac:	06000402 	streq	r0, [r0], -r2, lsl #8
    31b0:	00000bfb 	strdeq	r0, [r0], -fp
    31b4:	00538003 	subseq	r8, r3, r3
    31b8:	01040000 	mrseq	r0, (UNDEF: 4)
    31bc:	5c060003 	stcpl	0, cr0, [r6], {3}
    31c0:	0300000d 	movweq	r0, #13
    31c4:	00005381 	andeq	r5, r0, r1, lsl #7
    31c8:	01020400 	tsteq	r2, r0, lsl #8
    31cc:	0caa0600 	stceq	6, cr0, [sl]
    31d0:	82030000 	andhi	r0, r3, #0
    31d4:	00000053 	andeq	r0, r0, r3, asr r0
    31d8:	00000104 	andeq	r0, r0, r4, lsl #2
    31dc:	09a30300 	stmibeq	r3!, {r8, r9}
    31e0:	83030000 	movwhi	r0, #12288	; 0x3000
    31e4:	000003fa 	strdeq	r0, [r0], -sl
    31e8:	000bdf09 	andeq	sp, fp, r9, lsl #30
    31ec:	86030400 	strhi	r0, [r3], -r0, lsl #8
    31f0:	000005f0 	strdeq	r0, [r0], -r0	; <UNPREDICTABLE>
    31f4:	00074006 	andeq	r4, r7, r6
    31f8:	53880300 	orrpl	r0, r8, #0, 6
    31fc:	04000000 	streq	r0, [r0], #-0
    3200:	06001c04 	streq	r1, [r0], -r4, lsl #24
    3204:	00000738 	andeq	r0, r0, r8, lsr r7
    3208:	00538903 	subseq	r8, r3, r3, lsl #18
    320c:	02040000 	andeq	r0, r4, #0
    3210:	3406001a 	strcc	r0, [r6], #-26	; 0xffffffe6
    3214:	0300000d 	movweq	r0, #13
    3218:	0000538a 	andeq	r5, r0, sl, lsl #7
    321c:	18020400 	stmdane	r2, {sl}
    3220:	07480600 	strbeq	r0, [r8, -r0, lsl #12]
    3224:	8b030000 	blhi	c322c <__bss_end+0xc00b0>
    3228:	00000053 	andeq	r0, r0, r3, asr r0
    322c:	00140404 	andseq	r0, r4, r4, lsl #8
    3230:	000d3e06 	andeq	r3, sp, r6, lsl #28
    3234:	538c0300 	orrpl	r0, ip, #0, 6
    3238:	04000000 	streq	r0, [r0], #-0
    323c:	06001004 	streq	r1, [r0], -r4
    3240:	000006d2 	ldrdeq	r0, [r0], -r2
    3244:	00538d03 	subseq	r8, r3, r3, lsl #26
    3248:	01040000 	mrseq	r0, (UNDEF: 4)
    324c:	6706000f 	strvs	r0, [r6, -pc]
    3250:	0300000c 	movweq	r0, #12
    3254:	0000538f 	andeq	r5, r0, pc, lsl #7
    3258:	0e010400 	cfcpyseq	mvf0, mvf1
    325c:	0d480600 	stcleq	6, cr0, [r8, #-0]
    3260:	90030000 	andls	r0, r3, r0
    3264:	00000053 	andeq	r0, r0, r3, asr r0
    3268:	000c0204 	andeq	r0, ip, r4, lsl #4
    326c:	000bd006 	andeq	sp, fp, r6
    3270:	53910300 	orrspl	r0, r1, #0, 6
    3274:	04000000 	streq	r0, [r0], #-0
    3278:	06000b01 	streq	r0, [r0], -r1, lsl #22
    327c:	0000057b 	andeq	r0, r0, fp, ror r5
    3280:	00539203 	subseq	r9, r3, r3, lsl #4
    3284:	01040000 	mrseq	r0, (UNDEF: 4)
    3288:	0f06000a 	svceq	0x0006000a
    328c:	03000006 	movweq	r0, #6
    3290:	00005393 	muleq	r0, r3, r3
    3294:	09010400 	stmdbeq	r1, {sl}
    3298:	0d2d0600 	stceq	6, cr0, [sp, #-0]
    329c:	94030000 	strls	r0, [r3], #-0
    32a0:	00000053 	andeq	r0, r0, r3, asr r0
    32a4:	00080104 	andeq	r0, r8, r4, lsl #2
    32a8:	000d5206 	andeq	r5, sp, r6, lsl #4
    32ac:	53950300 	orrspl	r0, r5, #0, 6
    32b0:	04000000 	streq	r0, [r0], #-0
    32b4:	06000701 	streq	r0, [r0], -r1, lsl #14
    32b8:	00000c17 	andeq	r0, r0, r7, lsl ip
    32bc:	00539603 	subseq	r9, r3, r3, lsl #12
    32c0:	01040000 	mrseq	r0, (UNDEF: 4)
    32c4:	a4060006 	strge	r0, [r6], #-6
    32c8:	0300000c 	movweq	r0, #12
    32cc:	00005397 	muleq	r0, r7, r3
    32d0:	05010400 	streq	r0, [r1, #-1024]	; 0xfffffc00
    32d4:	0e710600 	cdpeq	6, 7, cr0, cr1, cr0, {0}
    32d8:	98030000 	stmdals	r3, {}	; <UNPREDICTABLE>
    32dc:	00000053 	andeq	r0, r0, r3, asr r0
    32e0:	00040104 	andeq	r0, r4, r4, lsl #2
    32e4:	000bfb06 	andeq	pc, fp, r6, lsl #22
    32e8:	53990300 	orrspl	r0, r9, #0, 6
    32ec:	04000000 	streq	r0, [r0], #-0
    32f0:	06000301 	streq	r0, [r0], -r1, lsl #6
    32f4:	00000d5c 	andeq	r0, r0, ip, asr sp
    32f8:	00539a03 	subseq	r9, r3, r3, lsl #20
    32fc:	02040000 	andeq	r0, r4, #0
    3300:	aa060001 	bge	18330c <__bss_end+0x180190>
    3304:	0300000c 	movweq	r0, #12
    3308:	0000539b 	muleq	r0, fp, r3
    330c:	00010400 	andeq	r0, r1, r0, lsl #8
    3310:	82030000 	andhi	r0, r3, #0
    3314:	03000004 	movweq	r0, #4
    3318:	0004c69c 	muleq	r4, ip, r6
    331c:	03040500 	movweq	r0, #17664	; 0x4500
    3320:	00065ea4 	andeq	r5, r6, r4, lsr #29
    3324:	0fe10600 	svceq	0x00e10600
    3328:	a6030000 	strge	r0, [r3], -r0
    332c:	00000053 	andeq	r0, r0, r3, asr r0
    3330:	001e0204 	andseq	r0, lr, r4, lsl #4
    3334:	000d3406 	andeq	r3, sp, r6, lsl #8
    3338:	53a70300 			; <UNDEFINED> instruction: 0x53a70300
    333c:	04000000 	streq	r0, [r0], #-0
    3340:	06001806 	streq	r1, [r0], -r6, lsl #16
    3344:	00000ce5 	andeq	r0, r0, r5, ror #25
    3348:	0053a803 	subseq	sl, r3, r3, lsl #16
    334c:	02040000 	andeq	r0, r4, #0
    3350:	3e060016 	mcrcc	0, 0, r0, cr6, cr6, {0}
    3354:	0300000d 	movweq	r0, #13
    3358:	000053a9 	andeq	r5, r0, r9, lsr #7
    335c:	10060400 	andne	r0, r6, r0, lsl #8
    3360:	08c20600 	stmiaeq	r2, {r9, sl}^
    3364:	aa030000 	bge	c336c <__bss_end+0xc01f0>
    3368:	00000053 	andeq	r0, r0, r3, asr r0
    336c:	000e0204 	andeq	r0, lr, r4, lsl #4
    3370:	000d4806 	andeq	r4, sp, r6, lsl #16
    3374:	53ab0300 			; <UNDEFINED> instruction: 0x53ab0300
    3378:	04000000 	streq	r0, [r0], #-0
    337c:	0000000e 	andeq	r0, r0, lr
    3380:	a2030407 	andge	r0, r3, #117440512	; 0x7000000
    3384:	0000067d 	andeq	r0, r0, sp, ror r6
    3388:	0004d208 	andeq	sp, r4, r8, lsl #4
    338c:	53a30300 			; <UNDEFINED> instruction: 0x53a30300
    3390:	08000000 	stmdaeq	r0, {}	; <UNPREDICTABLE>
    3394:	00000ad0 	ldrdeq	r0, [r0], -r0	; <UNPREDICTABLE>
    3398:	05fbac03 	ldrbeq	sl, [fp, #3075]!	; 0xc03
    339c:	03000000 	movweq	r0, #0
    33a0:	000005f1 	strdeq	r0, [r0], -r1
    33a4:	065ead03 	ldrbeq	sl, [lr], -r3, lsl #26
    33a8:	52090000 	andpl	r0, r9, #0
    33ac:	04000004 	streq	r0, [r0], #-4
    33b0:	06feb403 	ldrbteq	fp, [lr], r3, lsl #8
    33b4:	34060000 	strcc	r0, [r6], #-0
    33b8:	0300000d 	movweq	r0, #13
    33bc:	000053b6 			; <UNDEFINED> instruction: 0x000053b6
    33c0:	1c040400 	cfstrsne	mvf0, [r4], {-0}
    33c4:	0b280600 	bleq	a04bcc <__bss_end+0xa01a50>
    33c8:	b7030000 	strlt	r0, [r3, -r0]
    33cc:	00000053 	andeq	r0, r0, r3, asr r0
    33d0:	001a0204 	andseq	r0, sl, r4, lsl #4
    33d4:	000fa406 	andeq	sl, pc, r6, lsl #8
    33d8:	53b80300 			; <UNDEFINED> instruction: 0x53b80300
    33dc:	04000000 	streq	r0, [r0], #-0
    33e0:	06001802 	streq	r1, [r0], -r2, lsl #16
    33e4:	00000c57 	andeq	r0, r0, r7, asr ip
    33e8:	0053b903 	subseq	fp, r3, r3, lsl #18
    33ec:	02040000 	andeq	r0, r4, #0
    33f0:	3e060016 	mcrcc	0, 0, r0, cr6, cr6, {0}
    33f4:	0300000d 	movweq	r0, #13
    33f8:	000053ba 			; <UNDEFINED> instruction: 0x000053ba
    33fc:	14020400 	strne	r0, [r2], #-1024	; 0xfffffc00
    3400:	0c420600 	mcrreq	6, 0, r0, r2, cr0
    3404:	bb030000 	bllt	c340c <__bss_end+0xc0290>
    3408:	00000053 	andeq	r0, r0, r3, asr r0
    340c:	00120204 	andseq	r0, r2, r4, lsl #4
    3410:	000d4806 	andeq	r4, sp, r6, lsl #16
    3414:	53bc0300 			; <UNDEFINED> instruction: 0x53bc0300
    3418:	04000000 	streq	r0, [r0], #-0
    341c:	00000012 	andeq	r0, r0, r2, lsl r0
    3420:	000ee803 	andeq	lr, lr, r3, lsl #16
    3424:	88bd0300 	pophi	{r8, r9}
    3428:	05000006 	streq	r0, [r0, #-6]
    342c:	6cc50304 	stclvs	3, cr0, [r5], {4}
    3430:	06000007 	streq	r0, [r0], -r7
    3434:	000007e7 	andeq	r0, r0, r7, ror #15
    3438:	0053c703 	subseq	ip, r3, r3, lsl #14
    343c:	05040000 	streq	r0, [r4, #-0]
    3440:	d806001b 	stmdale	r6, {r0, r1, r3, r4}
    3444:	0300000f 	movweq	r0, #15
    3448:	000053c8 	andeq	r5, r0, r8, asr #7
    344c:	100b0400 	andne	r0, fp, r0, lsl #8
    3450:	07ec0600 	strbeq	r0, [ip, r0, lsl #12]!
    3454:	c9030000 	stmdbgt	r3, {}	; <UNPREDICTABLE>
    3458:	00000053 	andeq	r0, r0, r3, asr r0
    345c:	000e0204 	andeq	r0, lr, r4, lsl #4
    3460:	000d3e06 	andeq	r3, sp, r6, lsl #28
    3464:	53ca0300 	bicpl	r0, sl, #0, 6
    3468:	04000000 	streq	r0, [r0], #-0
    346c:	06000806 	streq	r0, [r0], -r6, lsl #16
    3470:	00000c46 	andeq	r0, r0, r6, asr #24
    3474:	0053cb03 	subseq	ip, r3, r3, lsl #22
    3478:	02040000 	andeq	r0, r4, #0
    347c:	48060006 	stmdami	r6, {r1, r2}
    3480:	0300000d 	movweq	r0, #13
    3484:	000053cc 	andeq	r5, r0, ip, asr #7
    3488:	00060400 	andeq	r0, r6, r0, lsl #8
    348c:	04070000 	streq	r0, [r7], #-0
    3490:	078bc303 	streq	ip, [fp, r3, lsl #6]
    3494:	d2080000 	andle	r0, r8, #0
    3498:	03000004 	movweq	r0, #4
    349c:	000053c4 	andeq	r5, r0, r4, asr #7
    34a0:	0ad00800 	beq	ff4054a8 <__bss_end+0xff40232c>
    34a4:	cd030000 	stcgt	0, cr0, [r3, #-0]
    34a8:	00000709 	andeq	r0, r0, r9, lsl #14
    34ac:	0b650300 	bleq	19440b4 <__bss_end+0x1940f38>
    34b0:	ce030000 	cdpgt	0, 0, cr0, cr3, cr0, {0}
    34b4:	0000076c 	andeq	r0, r0, ip, ror #14
    34b8:	0009de09 	andeq	sp, r9, r9, lsl #28
    34bc:	d0030400 	andle	r0, r3, r0, lsl #8
    34c0:	000007c1 	andeq	r0, r0, r1, asr #15
    34c4:	000f9b06 	andeq	r9, pc, r6, lsl #22
    34c8:	53d20300 	bicspl	r0, r2, #0, 6
    34cc:	04000000 	streq	r0, [r0], #-0
    34d0:	06001010 			; <UNDEFINED> instruction: 0x06001010
    34d4:	00000fd8 	ldrdeq	r0, [r0], -r8
    34d8:	0053d303 	subseq	sp, r3, r3, lsl #6
    34dc:	10040000 	andne	r0, r4, r0
    34e0:	03000000 	movweq	r0, #0
    34e4:	00000e2e 	andeq	r0, r0, lr, lsr #28
    34e8:	0796d403 	ldreq	sp, [r6, r3, lsl #8]
    34ec:	4e0a0000 	cdpmi	0, 0, cr0, cr10, cr0, {0}
    34f0:	dc000010 	stcle	0, cr0, [r0], {16}
    34f4:	99d60302 	ldmibls	r6, {r1, r8, r9}^
    34f8:	0b00000e 	bleq	3538 <__bss_end+0x3bc>
    34fc:	00000976 	andeq	r0, r0, r6, ror r9
    3500:	0e99d803 	cdpeq	8, 9, cr13, cr9, cr3, {0}
    3504:	0b000000 	bleq	350c <__bss_end+0x390>
    3508:	00000d34 	andeq	r0, r0, r4, lsr sp
    350c:	0e9ed903 	cdpeq	9, 9, cr13, cr14, cr3, {0}
    3510:	0b040000 	bleq	103518 <__bss_end+0x10039c>
    3514:	00001046 	andeq	r1, r0, r6, asr #32
    3518:	0ea3da03 	vfmaeq.f32	s26, s6, s6
    351c:	0b080000 	bleq	203524 <__bss_end+0x2003a8>
    3520:	00000d3e 	andeq	r0, r0, lr, lsr sp
    3524:	0e9edb03 	vfnmseq.f64	d13, d14, d3
    3528:	0b0c0000 	bleq	303530 <__bss_end+0x3003b4>
    352c:	00000b47 	andeq	r0, r0, r7, asr #22
    3530:	0e9edc03 	cdpeq	12, 9, cr13, cr14, cr3, {0}
    3534:	0b100000 	bleq	40353c <__bss_end+0x4003c0>
    3538:	00000d48 	andeq	r0, r0, r8, asr #26
    353c:	0e9edd03 	cdpeq	13, 9, cr13, cr14, cr3, {0}
    3540:	0b140000 	bleq	503548 <__bss_end+0x5003cc>
    3544:	000005a5 	andeq	r0, r0, r5, lsr #11
    3548:	0e9ede03 	cdpeq	14, 9, cr13, cr14, cr3, {0}
    354c:	0b180000 	bleq	603554 <__bss_end+0x6003d8>
    3550:	00000d52 	andeq	r0, r0, r2, asr sp
    3554:	0e9edf03 	cdpeq	15, 9, cr13, cr14, cr3, {0}
    3558:	0b1c0000 	bleq	703560 <__bss_end+0x7003e4>
    355c:	00000c7e 	andeq	r0, r0, lr, ror ip
    3560:	0ea8e003 	cdpeq	0, 10, cr14, cr8, cr3, {0}
    3564:	0b200000 	bleq	80356c <__bss_end+0x8003f0>
    3568:	00000d5c 	andeq	r0, r0, ip, asr sp
    356c:	0e9ee103 	coseqe	f6, f3
    3570:	0b240000 	bleq	903578 <__bss_end+0x9003fc>
    3574:	0000053c 	andeq	r0, r0, ip, lsr r5
    3578:	0eade203 	cdpeq	2, 10, cr14, cr13, cr3, {0}
    357c:	0b280000 	bleq	a03584 <__bss_end+0xa00408>
    3580:	00000d66 	andeq	r0, r0, r6, ror #26
    3584:	0e9ee303 	cdpeq	3, 9, cr14, cr14, cr3, {0}
    3588:	0b2c0000 	bleq	b03590 <__bss_end+0xb00414>
    358c:	00000c73 	andeq	r0, r0, r3, ror ip
    3590:	0e9ee403 	cdpeq	4, 9, cr14, cr14, cr3, {0}
    3594:	0b300000 	bleq	c0359c <__bss_end+0xc00420>
    3598:	00000d70 	andeq	r0, r0, r0, ror sp
    359c:	0e9ee503 	cdpeq	5, 9, cr14, cr14, cr3, {0}
    35a0:	0b340000 	bleq	d035a8 <__bss_end+0xd0042c>
    35a4:	000009cb 	andeq	r0, r0, fp, asr #19
    35a8:	0eb2e603 	cdpeq	6, 11, cr14, cr2, cr3, {0}
    35ac:	0b380000 	bleq	e035b4 <__bss_end+0xe00438>
    35b0:	00000d7a 	andeq	r0, r0, sl, ror sp
    35b4:	0e9ee703 	cdpeq	7, 9, cr14, cr14, cr3, {0}
    35b8:	0b3c0000 	bleq	f035c0 <__bss_end+0xf00444>
    35bc:	0000072d 	andeq	r0, r0, sp, lsr #14
    35c0:	0eb7e803 	cdpeq	8, 11, cr14, cr7, cr3, {0}
    35c4:	0b400000 	bleq	10035cc <__bss_end+0x1000450>
    35c8:	000010b8 	strheq	r1, [r0], -r8
    35cc:	0e9ee903 	cdpeq	9, 9, cr14, cr14, cr3, {0}
    35d0:	0b440000 	bleq	11035d8 <__bss_end+0x110045c>
    35d4:	0000059c 	muleq	r0, ip, r5
    35d8:	0e9eea03 	vfnmseq.f32	s28, s28, s6
    35dc:	0b480000 	bleq	12035e4 <__bss_end+0x1200468>
    35e0:	00000cc6 	andeq	r0, r0, r6, asr #25
    35e4:	0e9eeb03 	vfnmseq.f64	d14, d14, d3
    35e8:	0b4c0000 	bleq	13035f0 <__bss_end+0x1300474>
    35ec:	00000b4f 	andeq	r0, r0, pc, asr #22
    35f0:	0ebcec03 	cdpeq	12, 11, cr14, cr12, cr3, {0}
    35f4:	0b500000 	bleq	14035fc <__bss_end+0x1400480>
    35f8:	00000b28 	andeq	r0, r0, r8, lsr #22
    35fc:	0ec1ed03 	cdpeq	13, 12, cr14, cr1, cr3, {0}
    3600:	0b540000 	bleq	1503608 <__bss_end+0x150048c>
    3604:	00000750 	andeq	r0, r0, r0, asr r7
    3608:	0ec6ee03 	cdpeq	14, 12, cr14, cr6, cr3, {0}
    360c:	0b580000 	bleq	1603614 <__bss_end+0x1600498>
    3610:	00000f27 	andeq	r0, r0, r7, lsr #30
    3614:	0e9eef03 	cdpeq	15, 9, cr14, cr14, cr3, {0}
    3618:	0b5c0000 	bleq	1703620 <__bss_end+0x17004a4>
    361c:	00000e11 	andeq	r0, r0, r1, lsl lr
    3620:	0e9ef003 	cdpeq	0, 9, cr15, cr14, cr3, {0}
    3624:	0b600000 	bleq	180362c <__bss_end+0x18004b0>
    3628:	0000093c 	andeq	r0, r0, ip, lsr r9
    362c:	0e9ef103 	coseqe	f7, f3
    3630:	0b640000 	bleq	1903638 <__bss_end+0x19004bc>
    3634:	00000feb 	andeq	r0, r0, fp, ror #31
    3638:	0e9ef203 	cdpeq	2, 9, cr15, cr14, cr3, {0}
    363c:	0b680000 	bleq	1a03644 <__bss_end+0x1a004c8>
    3640:	00000bd6 	ldrdeq	r0, [r0], -r6
    3644:	0e9ef303 	cdpeq	3, 9, cr15, cr14, cr3, {0}
    3648:	0b6c0000 	bleq	1b03650 <__bss_end+0x1b004d4>
    364c:	00000d84 	andeq	r0, r0, r4, lsl #27
    3650:	0ee2f403 	cdpeq	4, 14, cr15, cr2, cr3, {0}
    3654:	0b700000 	bleq	1c0365c <__bss_end+0x1c004e0>
    3658:	00001076 	andeq	r1, r0, r6, ror r0
    365c:	0e9ef503 	cdpeq	5, 9, cr15, cr14, cr3, {0}
    3660:	0b800000 	bleq	fe003668 <__bss_end+0xfe0004ec>
    3664:	00000ff4 	strdeq	r0, [r0], -r4
    3668:	0e9ef603 	cdpeq	6, 9, cr15, cr14, cr3, {0}
    366c:	0c840000 	stceq	0, cr0, [r4], {0}
    3670:	00306453 	eorseq	r6, r0, r3, asr r4
    3674:	0e9ef703 	cdpeq	7, 9, cr15, cr14, cr3, {0}
    3678:	0c880000 	stceq	0, cr0, [r8], {0}
    367c:	00316453 	eorseq	r6, r1, r3, asr r4
    3680:	0e9ef803 	cdpeq	8, 9, cr15, cr14, cr3, {0}
    3684:	0c8c0000 	stceq	0, cr0, [ip], {0}
    3688:	00326453 	eorseq	r6, r2, r3, asr r4
    368c:	0e9ef903 	cdpeq	9, 9, cr15, cr14, cr3, {0}
    3690:	0b900000 	bleq	fe403698 <__bss_end+0xfe40051c>
    3694:	00000fff 	strdeq	r0, [r0], -pc	; <UNPREDICTABLE>
    3698:	0ef7fa03 	vmoveq.f32	s31, #115	; 0x3f980000  1.1875000
    369c:	0c940000 	ldceq	0, cr0, [r4], {0}
    36a0:	03007353 	movweq	r7, #851	; 0x353
    36a4:	000e9efb 	strdeq	r9, [lr], -fp
    36a8:	070b9c00 	streq	r9, [fp, -r0, lsl #24]
    36ac:	0300000e 	movweq	r0, #14
    36b0:	000e9efc 	strdeq	r9, [lr], -ip
    36b4:	0c0ba000 	stceq	0, cr10, [fp], {-0}
    36b8:	0300000e 	movweq	r0, #14
    36bc:	000e9efd 	strdeq	r9, [lr], -sp
    36c0:	0a0ba400 	beq	2ec6c8 <__bss_end+0x2e954c>
    36c4:	03000010 	movweq	r0, #16
    36c8:	000efcfe 	strdeq	pc, [lr], -lr
    36cc:	920ba800 	andls	sl, fp, #0, 16
    36d0:	03000005 	movweq	r0, #5
    36d4:	000e9eff 	strdeq	r9, [lr], -pc	; <UNPREDICTABLE>
    36d8:	970db000 	strls	fp, [sp, -r0]
    36dc:	03000005 	movweq	r0, #5
    36e0:	0e9e0100 	fmleqe	f0, f6, f0
    36e4:	0db40000 	ldceq	0, cr0, [r4]
    36e8:	000009d3 	ldrdeq	r0, [r0], -r3
    36ec:	01010103 	tsteq	r1, r3, lsl #2
    36f0:	b800000f 	stmdalt	r0, {r0, r1, r2, r3}
    36f4:	000e650d 	andeq	r6, lr, sp, lsl #10
    36f8:	01020300 	mrseq	r0, LR_svc
    36fc:	00000e9e 	muleq	r0, lr, lr
    3700:	0b040dc0 	bleq	106e08 <__bss_end+0x103c8c>
    3704:	03030000 	movweq	r0, #12288	; 0x3000
    3708:	000f0601 	andeq	r0, pc, r1, lsl #12
    370c:	550ec400 	strpl	ip, [lr, #-1024]	; 0xfffffc00
    3710:	03006273 	movweq	r6, #627	; 0x273
    3714:	0e9e0104 	fmleqe	f0, f6, f4
    3718:	0dcc0000 	stcleq	0, cr0, [ip]
    371c:	00000f52 	andeq	r0, r0, r2, asr pc
    3720:	9e010503 	cfsh32ls	mvfx0, mvfx1, #3
    3724:	d000000e 	andle	r0, r0, lr
    3728:	0009f50d 	andeq	pc, r9, sp, lsl #10
    372c:	01060300 	mrseq	r0, LR_und
    3730:	00000f1b 	andeq	r0, r0, fp, lsl pc
    3734:	103a0dd4 	ldrsbtne	r0, [sl], -r4
    3738:	07030000 	streq	r0, [r3, -r0]
    373c:	000e9e01 	andeq	r9, lr, r1, lsl #28
    3740:	e00df000 	and	pc, sp, r0
    3744:	0300000e 	movweq	r0, #14
    3748:	0e9e0108 	fmleqe	f0, f6, #0.0
    374c:	0df40000 	ldcleq	0, cr0, [r4]
    3750:	00000a32 	andeq	r0, r0, r2, lsr sl
    3754:	9e010903 	cdpls	9, 0, cr0, cr1, cr3, {0}
    3758:	f800000e 			; <UNDEFINED> instruction: 0xf800000e
    375c:	000b810d 	andeq	r8, fp, sp, lsl #2
    3760:	010a0300 	mrseq	r0, (UNDEF: 58)
    3764:	00000e9e 	muleq	r0, lr, lr
    3768:	0c390ffc 	ldceq	15, cr0, [r9], #-1008	; 0xfffffc10
    376c:	0b030000 	bleq	c3774 <__bss_end+0xc05f8>
    3770:	000e9e01 	andeq	r9, lr, r1, lsl #28
    3774:	10010000 	andne	r0, r1, r0
    3778:	00306542 	eorseq	r6, r0, r2, asr #10
    377c:	9e010c03 	cdpls	12, 0, cr0, cr1, cr3, {0}
    3780:	0400000e 	streq	r0, [r0], #-14
    3784:	0b3b0f01 	bleq	ec7390 <__bss_end+0xec4214>
    3788:	0d030000 	stceq	0, cr0, [r3, #-0]
    378c:	000e9e01 	andeq	r9, lr, r1, lsl #28
    3790:	10010800 	andne	r0, r1, r0, lsl #16
    3794:	00306546 	eorseq	r6, r0, r6, asr #10
    3798:	9e010e03 	cdpls	14, 0, cr0, cr1, cr3, {0}
    379c:	0c00000e 	stceq	0, cr0, [r0], {14}
    37a0:	049c0f01 	ldreq	r0, [ip], #3841	; 0xf01
    37a4:	0f030000 	svceq	0x00030000
    37a8:	000e9e01 	andeq	r9, lr, r1, lsl #28
    37ac:	0f011000 	svceq	0x00011000
    37b0:	000004a8 	andeq	r0, r0, r8, lsr #9
    37b4:	9e011003 	cdpls	0, 0, cr1, cr1, cr3, {0}
    37b8:	1400000e 	strne	r0, [r0], #-14
    37bc:	05110f01 	ldreq	r0, [r1, #-3841]	; 0xfffff0ff
    37c0:	11030000 	mrsne	r0, (UNDEF: 3)
    37c4:	000e9e01 	andeq	r9, lr, r1, lsl #28
    37c8:	0f011800 	svceq	0x00011800
    37cc:	000004b4 			; <UNDEFINED> instruction: 0x000004b4
    37d0:	9e011203 	cdpls	2, 0, cr1, cr1, cr3, {0}
    37d4:	1c00000e 	stcne	0, cr0, [r0], {14}
    37d8:	0a060f01 	beq	1873e4 <__bss_end+0x184268>
    37dc:	13030000 	movwne	r0, #12288	; 0x3000
    37e0:	000f3001 	andeq	r3, pc, r1
    37e4:	0f012000 	svceq	0x00012000
    37e8:	00000519 	andeq	r0, r0, r9, lsl r5
    37ec:	9e011403 	cdpls	4, 0, cr1, cr1, cr3, {0}
    37f0:	2c00000e 	stccs	0, cr0, [r0], {14}
    37f4:	05510f01 	ldrbeq	r0, [r1, #-3841]	; 0xfffff0ff
    37f8:	15030000 	strne	r0, [r3, #-0]
    37fc:	000e9e01 	andeq	r9, lr, r1, lsl #28
    3800:	0f013000 	svceq	0x00013000
    3804:	00000db4 			; <UNDEFINED> instruction: 0x00000db4
    3808:	9e011603 	cfmadd32ls	mvax0, mvfx1, mvfx1, mvfx3
    380c:	3400000e 	strcc	r0, [r0], #-14
    3810:	055d0f01 	ldrbeq	r0, [sp, #-3841]	; 0xfffff0ff
    3814:	17030000 	strne	r0, [r3, -r0]
    3818:	000e9e01 	andeq	r9, lr, r1, lsl #28
    381c:	10013800 	andne	r3, r1, r0, lsl #16
    3820:	03006556 	movweq	r6, #1366	; 0x556
    3824:	0e9e0118 	mrceq	1, 4, r0, cr14, cr8, {0}
    3828:	013c0000 	teqeq	ip, r0
    382c:	00097e0f 	andeq	r7, r9, pc, lsl #28
    3830:	01190300 	tsteq	r9, r0, lsl #6
    3834:	00000e9e 	muleq	r0, lr, lr
    3838:	41100140 	tstmi	r0, r0, asr #2
    383c:	03007376 	movweq	r7, #886	; 0x376
    3840:	0e9e011a 	mrceq	1, 4, r0, cr14, cr10, {0}
    3844:	01440000 	mrseq	r0, (UNDEF: 68)
    3848:	0005690f 	andeq	r6, r5, pc, lsl #18
    384c:	011b0300 	tsteq	fp, r0, lsl #6
    3850:	00000e9e 	muleq	r0, lr, lr
    3854:	110f0148 	tstne	pc, r8, asr #2
    3858:	0300000a 	movweq	r0, #10
    385c:	0e9e011c 	mrceq	1, 4, r0, cr14, cr12, {0}
    3860:	014c0000 	mrseq	r0, (UNDEF: 76)
    3864:	00064c0f 	andeq	r4, r6, pc, lsl #24
    3868:	011d0300 	tsteq	sp, r0, lsl #6
    386c:	00000e9e 	muleq	r0, lr, lr
    3870:	580f0150 	stmdapl	pc, {r4, r6, r8}	; <UNPREDICTABLE>
    3874:	03000006 	movweq	r0, #6
    3878:	0e9e011e 	mrceq	1, 4, r0, cr14, cr14, {0}
    387c:	01540000 	cmpeq	r4, r0
    3880:	0006640f 	andeq	r6, r6, pc, lsl #8
    3884:	011f0300 	tsteq	pc, r0, lsl #6
    3888:	00000e9e 	muleq	r0, lr, lr
    388c:	cc0f0158 	stfgts	f0, [pc], {88}	; 0x58
    3890:	03000006 	movweq	r0, #6
    3894:	0e9e0120 	fmleqep	f0, f6, f0
    3898:	015c0000 	cmpeq	ip, r0
    389c:	0006700f 	andeq	r7, r6, pc
    38a0:	01210300 			; <UNDEFINED> instruction: 0x01210300
    38a4:	00000e9e 	muleq	r0, lr, lr
    38a8:	1c0f0160 	stfnes	f0, [pc], {96}	; 0x60
    38ac:	0300000a 	movweq	r0, #10
    38b0:	0e9e0122 	fmleqep	f0, f6, f2
    38b4:	01640000 	cmneq	r4, r0
    38b8:	0005da0f 	andeq	sp, r5, pc, lsl #20
    38bc:	01230300 			; <UNDEFINED> instruction: 0x01230300
    38c0:	00000e9e 	muleq	r0, lr, lr
    38c4:	8f0f0168 	svchi	0x000f0168
    38c8:	0300000f 	movweq	r0, #15
    38cc:	0e9e0124 	fmleqep	f0, f6, f4
    38d0:	016c0000 	cmneq	ip, r0
    38d4:	000a270f 	andeq	r2, sl, pc, lsl #14
    38d8:	01250300 			; <UNDEFINED> instruction: 0x01250300
    38dc:	00000f35 	andeq	r0, r0, r5, lsr pc
    38e0:	a30f0170 	movwge	r0, #61808	; 0xf170
    38e4:	03000008 	movweq	r0, #8
    38e8:	0e9e0126 	fmleqep	f0, f6, f6
    38ec:	01800000 	orreq	r0, r0, r0
    38f0:	0008520f 	andeq	r5, r8, pc, lsl #4
    38f4:	01270300 			; <UNDEFINED> instruction: 0x01270300
    38f8:	00000e9e 	muleq	r0, lr, lr
    38fc:	5e0f0184 	adfpl<illegal precision>	f0, f7, f4
    3900:	03000008 	movweq	r0, #8
    3904:	0e9e0128 	fmleqep	f0, f6, #0.0
    3908:	01880000 	orreq	r0, r8, r0
    390c:	00086a0f 	andeq	r6, r8, pc, lsl #20
    3910:	01290300 			; <UNDEFINED> instruction: 0x01290300
    3914:	00000e9e 	muleq	r0, lr, lr
    3918:	300f018c 	andcc	r0, pc, ip, lsl #3
    391c:	0300000b 	movweq	r0, #11
    3920:	0f3a012a 	svceq	0x003a012a
    3924:	01900000 	orrseq	r0, r0, r0
    3928:	00089b0f 	andeq	r9, r8, pc, lsl #22
    392c:	012b0300 			; <UNDEFINED> instruction: 0x012b0300
    3930:	00000e9e 	muleq	r0, lr, lr
    3934:	ca0f01a0 	bgt	3c3fbc <__bss_end+0x3c0e40>
    3938:	03000007 	movweq	r0, #7
    393c:	0e9e012c 	fmleqep	f0, f6, #4.0
    3940:	01a40000 			; <UNDEFINED> instruction: 0x01a40000
    3944:	000b8e0f 	andeq	r8, fp, pc, lsl #28
    3948:	012d0300 			; <UNDEFINED> instruction: 0x012d0300
    394c:	00000e9e 	muleq	r0, lr, lr
    3950:	f30f01a8 	vrhadd.u8	d0, d31, d24
    3954:	03000008 	movweq	r0, #8
    3958:	0e9e012e 	fmleqep	f0, f6, #0.5
    395c:	01ac0000 			; <UNDEFINED> instruction: 0x01ac0000
    3960:	73744110 	cmnvc	r4, #16, 2
    3964:	012f0300 			; <UNDEFINED> instruction: 0x012f0300
    3968:	00000e9e 	muleq	r0, lr, lr
    396c:	3c0f01b0 	stfccs	f0, [pc], {176}	; 0xb0
    3970:	0300000a 	movweq	r0, #10
    3974:	0f4f0130 	svceq	0x004f0130
    3978:	01b40000 			; <UNDEFINED> instruction: 0x01b40000
    397c:	0008760f 	andeq	r7, r8, pc, lsl #12
    3980:	01310300 	teqeq	r1, r0, lsl #6
    3984:	00000f54 	andeq	r0, r0, r4, asr pc
    3988:	f70f0200 			; <UNDEFINED> instruction: 0xf70f0200
    398c:	0300000b 	movweq	r0, #11
    3990:	0e9e0132 	mrceq	1, 4, r0, cr14, cr2, {1}
    3994:	02040000 	andeq	r0, r4, #0
    3998:	000fcc0f 	andeq	ip, pc, pc, lsl #24
    399c:	01330300 	teqeq	r3, r0, lsl #6
    39a0:	00000f69 	andeq	r0, r0, r9, ror #30
    39a4:	a40f0208 	strge	r0, [pc], #-520	; 39ac <__bss_end+0x830>
    39a8:	0300000a 	movweq	r0, #10
    39ac:	0f7e0134 	svceq	0x007e0134
    39b0:	02200000 	eoreq	r0, r0, #0
    39b4:	0006270f 	andeq	r2, r6, pc, lsl #14
    39b8:	01350300 	teqeq	r5, r0, lsl #6
    39bc:	00000e9e 	muleq	r0, lr, lr
    39c0:	600f0224 	andvs	r0, pc, r4, lsr #4
    39c4:	03000009 	movweq	r0, #9
    39c8:	0e9e0136 	mrceq	1, 4, r0, cr14, cr6, {1}
    39cc:	02280000 	eoreq	r0, r8, #0
    39d0:	000aeb0f 	andeq	lr, sl, pc, lsl #22
    39d4:	01370300 	teqeq	r7, r0, lsl #6
    39d8:	00000e9e 	muleq	r0, lr, lr
    39dc:	000f022c 	andeq	r0, pc, ip, lsr #4
    39e0:	0300000c 	movweq	r0, #12
    39e4:	0e9e0138 	mrceq	1, 4, r0, cr14, cr8, {1}
    39e8:	02300000 	eorseq	r0, r0, #0
    39ec:	000e470f 	andeq	r4, lr, pc, lsl #14
    39f0:	01390300 	teqeq	r9, r0, lsl #6
    39f4:	00000e9e 	muleq	r0, lr, lr
    39f8:	600f0234 	andvs	r0, pc, r4, lsr r2	; <UNPREDICTABLE>
    39fc:	03000007 	movweq	r0, #7
    3a00:	0e9e013a 	mrceq	1, 4, r0, cr14, cr10, {1}
    3a04:	02380000 	eorseq	r0, r8, #0
    3a08:	00079c0f 	andeq	r9, r7, pc, lsl #24
    3a0c:	013b0300 	teqeq	fp, r0, lsl #6
    3a10:	00000e9e 	muleq	r0, lr, lr
    3a14:	ad0f023c 	sfmge	f0, 4, [pc, #-240]	; 392c <__bss_end+0x7b0>
    3a18:	0300000a 	movweq	r0, #10
    3a1c:	0e9e013c 	mrceq	1, 4, r0, cr14, cr12, {1}
    3a20:	02400000 	subeq	r0, r0, #0
    3a24:	0006a20f 	andeq	sl, r6, pc, lsl #4
    3a28:	013d0300 	teqeq	sp, r0, lsl #6
    3a2c:	00000e9e 	muleq	r0, lr, lr
    3a30:	4d0f0244 	sfmmi	f0, 4, [pc, #-272]	; 3928 <__bss_end+0x7ac>
    3a34:	0300000c 	movweq	r0, #12
    3a38:	0e9e013e 	mrceq	1, 4, r0, cr14, cr14, {1}
    3a3c:	02480000 	subeq	r0, r8, #0
    3a40:	000eb10f 	andeq	fp, lr, pc, lsl #2
    3a44:	013f0300 	teqeq	pc, r0, lsl #6
    3a48:	00000e9e 	muleq	r0, lr, lr
    3a4c:	c40f024c 	strgt	r0, [pc], #-588	; 3a54 <__bss_end+0x8d8>
    3a50:	03000006 	movweq	r0, #6
    3a54:	0e9e0140 	fmleqem	f0, f6, f0
    3a58:	02500000 	subseq	r0, r0, #0
    3a5c:	00076c0f 	andeq	r6, r7, pc, lsl #24
    3a60:	01410300 	mrseq	r0, (UNDEF: 113)
    3a64:	00000f83 	andeq	r0, r0, r3, lsl #31
    3a68:	f50f0254 			; <UNDEFINED> instruction: 0xf50f0254
    3a6c:	0300000a 	movweq	r0, #10
    3a70:	0e9e0142 	fmleqem	f0, f6, f2
    3a74:	02600000 	rsbeq	r0, r0, #0
    3a78:	0007780f 	andeq	r7, r7, pc, lsl #16
    3a7c:	01430300 	mrseq	r0, (UNDEF: 115)
    3a80:	00000f88 	andeq	r0, r0, r8, lsl #31
    3a84:	c50f0264 	strgt	r0, [pc, #-612]	; 3828 <__bss_end+0x6ac>
    3a88:	0300000a 	movweq	r0, #10
    3a8c:	0e9e0144 	fmleqem	f0, f6, f4
    3a90:	02700000 	rsbseq	r0, r0, #0
    3a94:	0007840f 	andeq	r8, r7, pc, lsl #8
    3a98:	01450300 	mrseq	r0, (UNDEF: 117)
    3a9c:	00000f8d 	andeq	r0, r0, sp, lsl #31
    3aa0:	b90f0274 	stmdblt	pc, {r2, r4, r5, r6, r9}	; <UNPREDICTABLE>
    3aa4:	0300000a 	movweq	r0, #10
    3aa8:	0e9e0146 	fmleqem	f0, f6, f6
    3aac:	02800000 	addeq	r0, r0, #0
    3ab0:	000df00f 	andeq	pc, sp, pc
    3ab4:	01470300 	mrseq	r0, (UNDEF: 119)
    3ab8:	00000e9e 	muleq	r0, lr, lr
    3abc:	af0f0284 	svcge	0x000f0284
    3ac0:	0300000f 	movweq	r0, #15
    3ac4:	0e9e0148 	fmleqem	f0, f6, #0.0
    3ac8:	02880000 	addeq	r0, r8, #0
    3acc:	000fbf0f 	andeq	fp, pc, pc, lsl #30
    3ad0:	01490300 	mrseq	r0, (UNDEF: 121)
    3ad4:	00000e9e 	muleq	r0, lr, lr
    3ad8:	420f028c 	andmi	r0, pc, #140, 4	; 0xc0000008
    3adc:	03000004 	movweq	r0, #4
    3ae0:	0e9e014a 	fmleqem	f0, f6, #2.0
    3ae4:	02900000 	addseq	r0, r0, #0
    3ae8:	000e1a0f 	andeq	r1, lr, pc, lsl #20
    3aec:	014b0300 	mrseq	r0, (UNDEF: 123)
    3af0:	00000f92 	muleq	r0, r2, pc	; <UNPREDICTABLE>
    3af4:	d10f0294 			; <UNDEFINED> instruction: 0xd10f0294
    3af8:	03000007 	movweq	r0, #7
    3afc:	0e9e014c 	fmleqem	f0, f6, #4.0
    3b00:	029c0000 	addseq	r0, ip, #0
    3b04:	000a500f 	andeq	r5, sl, pc
    3b08:	014d0300 	mrseq	r0, (UNDEF: 125)
    3b0c:	00000e9e 	muleq	r0, lr, lr
    3b10:	7c0f02a0 	sfmvc	f0, 4, [pc], {160}	; 0xa0
    3b14:	03000006 	movweq	r0, #6
    3b18:	0e9e014e 	fmleqem	f0, f6, #0.5
    3b1c:	02a40000 	adceq	r0, r4, #0
    3b20:	000d9a0f 	andeq	r9, sp, pc, lsl #20
    3b24:	014f0300 	mrseq	r0, (UNDEF: 127)
    3b28:	00000e9e 	muleq	r0, lr, lr
    3b2c:	670f02a8 	strvs	r0, [pc, -r8, lsr #5]
    3b30:	0300000f 	movweq	r0, #15
    3b34:	0e9e0150 	mrceq	1, 4, r0, cr14, cr0, {2}
    3b38:	02ac0000 	adceq	r0, ip, #0
    3b3c:	000f7b0f 	andeq	r7, pc, pc, lsl #22
    3b40:	01510300 	cmpeq	r1, r0, lsl #6
    3b44:	00000e9e 	muleq	r0, lr, lr
    3b48:	900f02b0 			; <UNDEFINED> instruction: 0x900f02b0
    3b4c:	03000007 	movweq	r0, #7
    3b50:	0f970152 	svceq	0x00970152
    3b54:	02b40000 	adcseq	r0, r4, #0
    3b58:	000b9c0f 	andeq	r9, fp, pc, lsl #24
    3b5c:	01530300 	cmpeq	r3, r0, lsl #6
    3b60:	00000e9e 	muleq	r0, lr, lr
    3b64:	a60f02c0 	strge	r0, [pc], -r0, asr #5
    3b68:	0300000b 	movweq	r0, #11
    3b6c:	0e9e0154 	mrceq	1, 4, r0, cr14, cr4, {2}
    3b70:	02c40000 	sbceq	r0, r4, #0
    3b74:	000bb00f 	andeq	fp, fp, pc
    3b78:	01550300 	cmpeq	r5, r0, lsl #6
    3b7c:	00000e9e 	muleq	r0, lr, lr
    3b80:	d50f02c8 	strle	r0, [pc, #-712]	; 38c0 <__bss_end+0x744>
    3b84:	0300000a 	movweq	r0, #10
    3b88:	0e9e0156 	mrceq	1, 4, r0, cr14, cr6, {2}
    3b8c:	02cc0000 	sbceq	r0, ip, #0
    3b90:	000d100f 	andeq	r1, sp, pc
    3b94:	01570300 	cmpeq	r7, r0, lsl #6
    3b98:	00000e9e 	muleq	r0, lr, lr
    3b9c:	e00f02d0 	ldrd	r0, [pc], -r0	; <UNPREDICTABLE>
    3ba0:	0300000a 	movweq	r0, #10
    3ba4:	0e9e0158 	mrceq	1, 4, r0, cr14, cr8, {2}
    3ba8:	02d40000 	sbcseq	r0, r4, #0
    3bac:	0008210f 	andeq	r2, r8, pc, lsl #2
    3bb0:	01590300 	cmpeq	r9, r0, lsl #6
    3bb4:	00000e9e 	muleq	r0, lr, lr
    3bb8:	110002d8 	ldrdne	r0, [r0, -r8]
    3bbc:	0000015e 	andeq	r0, r0, lr, asr r1
    3bc0:	00005311 	andeq	r5, r0, r1, lsl r3
    3bc4:	021b1100 	andseq	r1, fp, #0, 2
    3bc8:	f6110000 			; <UNDEFINED> instruction: 0xf6110000
    3bcc:	11000002 	tstne	r0, r2
    3bd0:	000003ef 	andeq	r0, r0, pc, ror #7
    3bd4:	0004bb11 	andeq	fp, r4, r1, lsl fp
    3bd8:	05f01100 	ldrbeq	r1, [r0, #256]!	; 0x100
    3bdc:	7d110000 	ldcvc	0, cr0, [r1, #-0]
    3be0:	11000006 	tstne	r0, r6
    3be4:	000006fe 	strdeq	r0, [r0], -lr
    3be8:	00078b11 	andeq	r8, r7, r1, lsl fp
    3bec:	00531200 	subseq	r1, r3, r0, lsl #4
    3bf0:	0edb0000 	cdpeq	0, 13, cr0, cr11, cr0, {0}
    3bf4:	db130000 	blle	4c3bfc <__bss_end+0x4c0a80>
    3bf8:	0300000e 	movweq	r0, #14
    3bfc:	07040200 	streq	r0, [r4, -r0, lsl #4]
    3c00:	0000022d 	andeq	r0, r0, sp, lsr #4
    3c04:	000ecb11 	andeq	ip, lr, r1, lsl fp
    3c08:	00531200 	subseq	r1, r3, r0, lsl #4
    3c0c:	0ef70000 	cdpeq	0, 15, cr0, cr7, cr0, {0}
    3c10:	db130000 	blle	4c3c18 <__bss_end+0x4c0a9c>
    3c14:	0100000e 	tsteq	r0, lr
    3c18:	0ee71100 	cdpeq	1, 14, cr1, cr7, cr0, {0}
    3c1c:	e7110000 	ldr	r0, [r1, -r0]
    3c20:	1100000e 	tstne	r0, lr
    3c24:	00000ee7 	andeq	r0, r0, r7, ror #29
    3c28:	000ee711 	andeq	lr, lr, r1, lsl r7
    3c2c:	00531200 	subseq	r1, r3, r0, lsl #4
    3c30:	0f1b0000 	svceq	0x001b0000
    3c34:	db130000 	blle	4c3c3c <__bss_end+0x4c0ac0>
    3c38:	0600000e 	streq	r0, [r0], -lr
    3c3c:	0f0b1100 	svceq	0x000b1100
    3c40:	53120000 	tstpl	r2, #0
    3c44:	30000000 	andcc	r0, r0, r0
    3c48:	1300000f 	movwne	r0, #15
    3c4c:	00000edb 	ldrdeq	r0, [r0], -fp
    3c50:	20110002 	andscs	r0, r1, r2
    3c54:	1100000f 	tstne	r0, pc
    3c58:	00000ecb 	andeq	r0, r0, fp, asr #29
    3c5c:	000ecb11 	andeq	ip, lr, r1, lsl fp
    3c60:	00531200 	subseq	r1, r3, r0, lsl #4
    3c64:	0f4f0000 	svceq	0x004f0000
    3c68:	db130000 	blle	4c3c70 <__bss_end+0x4c0af4>
    3c6c:	1200000e 	andne	r0, r0, #14
    3c70:	0f3f1100 	svceq	0x003f1100
    3c74:	c1110000 	tstgt	r1, r0
    3c78:	12000007 	andne	r0, r0, #7
    3c7c:	00000053 	andeq	r0, r0, r3, asr r0
    3c80:	00000f69 	andeq	r0, r0, r9, ror #30
    3c84:	000edb13 	andeq	sp, lr, r3, lsl fp
    3c88:	11000500 	tstne	r0, r0, lsl #10
    3c8c:	00000f59 	andeq	r0, r0, r9, asr pc
    3c90:	00005312 	andeq	r5, r0, r2, lsl r3
    3c94:	000f7e00 	andeq	r7, pc, r0, lsl #28
    3c98:	0edb1300 	cdpeq	3, 13, cr1, cr11, cr0, {0}
    3c9c:	00000000 	andeq	r0, r0, r0
    3ca0:	000f6e11 	andeq	r6, pc, r1, lsl lr	; <UNPREDICTABLE>
    3ca4:	0f201100 	svceq	0x00201100
    3ca8:	20110000 	andscs	r0, r1, r0
    3cac:	1100000f 	tstne	r0, pc
    3cb0:	00000f20 	andeq	r0, r0, r0, lsr #30
    3cb4:	000ee711 	andeq	lr, lr, r1, lsl r7
    3cb8:	0f201100 	svceq	0x00201100
    3cbc:	94140000 	ldrls	r0, [r4], #-0
    3cc0:	0300000e 	movweq	r0, #14
    3cc4:	07cc015a 			; <UNDEFINED> instruction: 0x07cc015a
    3cc8:	04150000 	ldreq	r0, [r5], #-0
    3ccc:	00000f9c 	muleq	r0, ip, pc	; <UNPREDICTABLE>
    3cd0:	00020916 	andeq	r0, r2, r6, lsl r9
    3cd4:	005e0400 	subseq	r0, lr, r0, lsl #8
    3cd8:	89060000 	stmdbhi	r6, {}	; <UNPREDICTABLE>
    3cdc:	0000103d 	andeq	r1, r0, sp, lsr r0
    3ce0:	0000d417 	andeq	sp, r0, r7, lsl r4
    3ce4:	29170000 	ldmdbcs	r7, {}	; <UNPREDICTABLE>
    3ce8:	01000001 	tsteq	r0, r1
    3cec:	0000e117 	andeq	lr, r0, r7, lsl r1
    3cf0:	06170200 	ldreq	r0, [r7], -r0, lsl #4
    3cf4:	03000001 	movweq	r0, #1
    3cf8:	00025117 	andeq	r5, r2, r7, lsl r1
    3cfc:	d0170400 	andsle	r0, r7, r0, lsl #8
    3d00:	05000001 	streq	r0, [r0, #-1]
    3d04:	00018917 	andeq	r8, r1, r7, lsl r9
    3d08:	f3170600 	vmax.u16	d0, d7, d0
    3d0c:	07000001 	streq	r0, [r0, -r1]
    3d10:	0000c817 	andeq	ip, r0, r7, lsl r8
    3d14:	fb170800 	blx	5c5d1e <__bss_end+0x5c2ba2>
    3d18:	09000000 	stmdbeq	r0, {}	; <UNPREDICTABLE>
    3d1c:	0001c517 	andeq	ip, r1, r7, lsl r5
    3d20:	6b170a00 	blvs	5c6528 <__bss_end+0x5c33ac>
    3d24:	0b000002 	bleq	3d34 <__bss_end+0xbb8>
    3d28:	00020317 	andeq	r0, r2, r7, lsl r3
    3d2c:	1f170c00 	svcne	0x00170c00
    3d30:	0d000002 	stceq	0, cr0, [r0, #-8]
    3d34:	00031817 	andeq	r1, r3, r7, lsl r8
    3d38:	5d170e00 	ldcpl	14, cr0, [r7, #-0]
    3d3c:	0f000002 	svceq	0x00000002
    3d40:	0002e817 	andeq	lr, r2, r7, lsl r8
    3d44:	44171000 	ldrmi	r1, [r7], #-0
    3d48:	11000002 	tstne	r0, r2
    3d4c:	00030217 	andeq	r0, r3, r7, lsl r2
    3d50:	ee171200 	cdp	2, 1, cr1, cr7, cr0, {0}
    3d54:	13000000 	movwne	r0, #0
    3d58:	0002cd17 	andeq	ip, r2, r7, lsl sp
    3d5c:	02001400 	andeq	r1, r0, #0, 8
    3d60:	011b0801 	tsteq	fp, r1, lsl #16
    3d64:	04020000 	streq	r0, [r2], #-0
    3d68:	0001e107 	andeq	lr, r1, r7, lsl #2
    3d6c:	162a1800 	strtne	r1, [sl], -r0, lsl #16
    3d70:	25010000 	strcs	r0, [r1, #-0]
    3d74:	10930101 	addsne	r0, r3, r1, lsl #2
    3d78:	e0190000 	ands	r0, r9, r0
    3d7c:	01000016 	tsteq	r0, r6, lsl r0
    3d80:	00530125 	subseq	r0, r3, r5, lsr #2
    3d84:	a9190000 	ldmdbge	r9, {}	; <UNPREDICTABLE>
    3d88:	01000016 	tsteq	r0, r6, lsl r0
    3d8c:	00530125 	subseq	r0, r3, r5, lsr #2
    3d90:	891a0000 	ldmdbhi	sl, {}	; <UNPREDICTABLE>
    3d94:	01000017 	tsteq	r0, r7, lsl r0
    3d98:	00530127 	subseq	r0, r3, r7, lsr #2
    3d9c:	691b0000 	ldmdbvs	fp, {}	; <UNPREDICTABLE>
    3da0:	01280100 			; <UNDEFINED> instruction: 0x01280100
    3da4:	00000053 	andeq	r0, r0, r3, asr r0
    3da8:	6765721b 			; <UNDEFINED> instruction: 0x6765721b
    3dac:	01290100 			; <UNDEFINED> instruction: 0x01290100
    3db0:	00001093 	muleq	r0, r3, r0
    3db4:	99041500 	stmdbls	r4, {r8, sl, ip}
    3db8:	11000010 	tstne	r0, r0, lsl r0
    3dbc:	0000005e 	andeq	r0, r0, lr, asr r0
    3dc0:	00161b1c 	andseq	r1, r6, ip, lsl fp
    3dc4:	531c0100 	tstpl	ip, #0, 2
    3dc8:	01000000 	mrseq	r0, (UNDEF: 0)
    3dcc:	00001105 	andeq	r1, r0, r5, lsl #2
    3dd0:	0016e01d 	andseq	lr, r6, sp, lsl r0
    3dd4:	531c0100 	tstpl	ip, #0, 2
    3dd8:	1e000000 	cdpne	0, 0, cr0, cr0, cr0, {0}
    3ddc:	00001678 	andeq	r1, r0, r8, ror r6
    3de0:	00531e01 	subseq	r1, r3, r1, lsl #28
    3de4:	9c1e0000 	ldcls	0, cr0, [lr], {-0}
    3de8:	01000016 	tsteq	r0, r6, lsl r0
    3dec:	0000531f 	andeq	r5, r0, pc, lsl r3
    3df0:	65721f00 	ldrbvs	r1, [r2, #-3840]!	; 0xfffff100
    3df4:	21010067 	tstcs	r1, r7, rrx
    3df8:	00001093 	muleq	r0, r3, r0
    3dfc:	0016c41e 	andseq	ip, r6, lr, lsl r4
    3e00:	a8220100 	stmdage	r2!, {r8}
    3e04:	1e00000f 	cdpne	0, 0, cr0, cr0, cr15, {0}
    3e08:	0000176a 	andeq	r1, r0, sl, ror #14
    3e0c:	078b2301 	streq	r2, [fp, r1, lsl #6]
    3e10:	891e0000 	ldmdbhi	lr, {}	; <UNPREDICTABLE>
    3e14:	01000017 	tsteq	r0, r7, lsl r0
    3e18:	00005325 	andeq	r5, r0, r5, lsr #6
    3e1c:	00691f00 	rsbeq	r1, r9, r0, lsl #30
    3e20:	00532601 	subseq	r2, r3, r1, lsl #12
    3e24:	18000000 	stmdane	r0, {}	; <UNPREDICTABLE>
    3e28:	00001754 	andeq	r1, r0, r4, asr r7
    3e2c:	01016701 	tsteq	r1, r1, lsl #14
    3e30:	0000111d 	andeq	r1, r0, sp, lsl r1
    3e34:	01006320 	tsteq	r0, r0, lsr #6
    3e38:	103d0167 	eorsne	r0, sp, r7, ror #2
    3e3c:	21000000 	mrscs	r0, (UNDEF: 0)
    3e40:	00001773 	andeq	r1, r0, r3, ror r7
    3e44:	3d017301 	stccc	3, cr7, [r1, #-4]
    3e48:	01000010 	tsteq	r0, r0, lsl r0
    3e4c:	0000113b 	andeq	r1, r0, fp, lsr r1
    3e50:	0016521a 	andseq	r5, r6, sl, lsl r2
    3e54:	01750100 	cmneq	r5, r0, lsl #2
    3e58:	00000053 	andeq	r0, r0, r3, asr r0
    3e5c:	16cc2200 	strbne	r2, [ip], r0, lsl #4
    3e60:	a4010000 	strge	r0, [r1], #-0
    3e64:	e9220101 	stmdb	r2!, {r0, r8}
    3e68:	01000016 	tsteq	r0, r6, lsl r0
    3e6c:	180101ab 	stmdane	r1, {r0, r1, r3, r5, r7, r8}
    3e70:	0000168c 	andeq	r1, r0, ip, lsl #13
    3e74:	0101d101 	tsteq	r1, r1, lsl #2
    3e78:	00001165 	andeq	r1, r0, r5, ror #2
    3e7c:	01006320 	tsteq	r0, r0, lsr #6
    3e80:	103d01d1 	ldrsbtne	r0, [sp], -r1
    3e84:	21000000 	mrscs	r0, (UNDEF: 0)
    3e88:	00001668 	andeq	r1, r0, r8, ror #12
    3e8c:	3d01dd01 	stccc	13, cr13, [r1, #-4]
    3e90:	01000010 	tsteq	r0, r0, lsl r0
    3e94:	00001183 	andeq	r1, r0, r3, lsl #3
    3e98:	0016521a 	andseq	r5, r6, sl, lsl r2
    3e9c:	01df0100 	bicseq	r0, pc, r0, lsl #2
    3ea0:	00000053 	andeq	r0, r0, r3, asr r0
    3ea4:	109e2300 	addsne	r2, lr, r0, lsl #6
    3ea8:	155c0000 	ldrbne	r0, [ip, #-0]
    3eac:	00ac0000 	adceq	r0, ip, r0
    3eb0:	9c010000 	stcls	0, cr0, [r1], {-0}
    3eb4:	0000123c 	andeq	r1, r0, ip, lsr r2
    3eb8:	0010ae24 	andseq	sl, r0, r4, lsr #28
    3ebc:	00051200 	andeq	r1, r5, r0, lsl #4
    3ec0:	10b92500 	adcsne	r2, r9, r0, lsl #10
    3ec4:	053e0000 	ldreq	r0, [lr, #-0]!
    3ec8:	c4250000 	strtgt	r0, [r5], #-0
    3ecc:	5d000010 	stcpl	0, cr0, [r0, #-64]	; 0xffffffc0
    3ed0:	25000005 	strcs	r0, [r0, #-5]
    3ed4:	000010cf 	andeq	r1, r0, pc, asr #1
    3ed8:	00000587 	andeq	r0, r0, r7, lsl #11
    3edc:	0010da25 	andseq	sp, r0, r5, lsr #20
    3ee0:	0005bb00 	andeq	fp, r5, r0, lsl #22
    3ee4:	10e52500 	rscne	r2, r5, r0, lsl #10
    3ee8:	05da0000 	ldrbeq	r0, [sl]
    3eec:	f0260000 			; <UNDEFINED> instruction: 0xf0260000
    3ef0:	00000010 	andeq	r0, r0, r0, lsl r0
    3ef4:	0010fb26 	andseq	pc, r0, r6, lsr #22
    3ef8:	00270000 	eoreq	r0, r7, r0
    3efc:	1a000000 	bne	3f04 <__bss_end+0xd88>
    3f00:	28000012 	stmdacs	r0, {r1, r4}
    3f04:	000010ae 	andeq	r1, r0, lr, lsr #1
    3f08:	5001f304 	andpl	pc, r1, r4, lsl #6
    3f0c:	0000299f 	muleq	r0, pc, r9	; <UNPREDICTABLE>
    3f10:	b92a0000 	stmdblt	sl!, {}	; <UNPREDICTABLE>
    3f14:	2a000010 	bcs	3f5c <__bss_end+0xde0>
    3f18:	000010c4 	andeq	r1, r0, r4, asr #1
    3f1c:	0010cf2b 	andseq	ip, r0, fp, lsr #30
    3f20:	8885d800 	stmhi	r5, {fp, ip, lr, pc}
    3f24:	da2a7f8e 	ble	aa3d64 <__bss_end+0xaa0be8>
    3f28:	2a000010 	bcs	3f70 <__bss_end+0xdf4>
    3f2c:	000010e5 	andeq	r1, r0, r5, ror #1
    3f30:	0010f02a 	andseq	pc, r0, sl, lsr #32
    3f34:	10fb2a00 	rscsne	r2, fp, r0, lsl #20
    3f38:	00000000 	andeq	r0, r0, r0
    3f3c:	0015682c 	andseq	r6, r5, ip, lsr #16
    3f40:	0015ee00 	andseq	lr, r5, r0, lsl #28
    3f44:	15e02c00 	strbne	r2, [r0, #3072]!	; 0xc00
    3f48:	15f90000 	ldrbne	r0, [r9, #0]!
    3f4c:	e82d0000 	stmda	sp!, {}	; <UNPREDICTABLE>
    3f50:	04000015 	streq	r0, [r0], #-21	; 0xffffffeb
    3f54:	2e000016 	mcrcs	0, 0, r0, cr0, cr6, {0}
    3f58:	31015001 	tstcc	r1, r1
    3f5c:	8e2f0000 	cdphi	0, 2, cr0, cr15, cr0, {0}
    3f60:	01000017 	tsteq	r0, r7, lsl r0
    3f64:	1608013d 			; <UNDEFINED> instruction: 0x1608013d
    3f68:	00340000 	eorseq	r0, r4, r0
    3f6c:	9c010000 	stcls	0, cr0, [r1], {-0}
    3f70:	00001263 	andeq	r1, r0, r3, ror #4
    3f74:	00114430 	andseq	r4, r1, r0, lsr r4
    3f78:	00161c00 	andseq	r1, r6, r0, lsl #24
    3f7c:	00002000 	andeq	r2, r0, r0
    3f80:	01460100 	mrseq	r0, (UNDEF: 86)
    3f84:	09b92f00 	ldmibeq	r9!, {r8, r9, sl, fp, sp}
    3f88:	4b010000 	blmi	43f90 <__bss_end+0x40e14>
    3f8c:	00163c01 	andseq	r3, r6, r1, lsl #24
    3f90:	0000a000 	andeq	sl, r0, r0
    3f94:	189c0100 	ldmne	ip, {r8}
    3f98:	31000013 	tstcc	r0, r3, lsl r0
    3f9c:	000016a9 	andeq	r1, r0, r9, lsr #13
    3fa0:	53014b01 	movwpl	r4, #6913	; 0x1b01
    3fa4:	ed000000 	stc	0, cr0, [r0, #-0]
    3fa8:	32000005 	andcc	r0, r0, #5
    3fac:	01006664 	tsteq	r0, r4, ror #12
    3fb0:	0053014d 	subseq	r0, r3, sp, asr #2
    3fb4:	060e0000 	streq	r0, [lr], -r0
    3fb8:	6c320000 	ldcvs	0, cr0, [r2], #-0
    3fbc:	01007263 	tsteq	r0, r3, ror #4
    3fc0:	0053014e 	subseq	r0, r3, lr, asr #2
    3fc4:	06310000 	ldrteq	r0, [r1], -r0
    3fc8:	9c330000 	ldcls	0, cr0, [r3], #-0
    3fcc:	01000016 	tsteq	r0, r6, lsl r0
    3fd0:	0053014f 	subseq	r0, r3, pc, asr #2
    3fd4:	06450000 	strbeq	r0, [r5], -r0
    3fd8:	4b340000 	blmi	d03fe0 <__bss_end+0xd00e64>
    3fdc:	3c000010 	stccc	0, cr0, [r0], {16}
    3fe0:	38000016 	stmdacc	r0, {r1, r2, r4}
    3fe4:	01000000 	mrseq	r0, (UNDEF: 0)
    3fe8:	12f70151 	rscsne	r0, r7, #1073741844	; 0x40000014
    3fec:	64240000 	strtvs	r0, [r4], #-0
    3ff0:	73000010 	movwvc	r0, #16
    3ff4:	35000006 	strcc	r0, [r0, #-6]
    3ff8:	00001058 	andeq	r1, r0, r8, asr r0
    3ffc:	00382900 	eorseq	r2, r8, r0, lsl #18
    4000:	70260000 	eorvc	r0, r6, r0
    4004:	00000010 	andeq	r0, r0, r0, lsl r0
    4008:	00107c26 	andseq	r7, r0, r6, lsr #24
    400c:	86360000 	ldrthi	r0, [r6], -r0
    4010:	b4000010 	strlt	r0, [r0], #-16
    4014:	0001c208 	andeq	ip, r1, r8, lsl #4
    4018:	113b3000 	teqne	fp, r0
    401c:	16a00000 	strtne	r0, [r0], r0
    4020:	00600000 	rsbeq	r0, r0, r0
    4024:	63010000 	movwvs	r0, #4096	; 0x1000
    4028:	167c2d01 	ldrbtne	r2, [ip], -r1, lsl #26
    402c:	109e0000 	addsne	r0, lr, r0
    4030:	012e0000 			; <UNDEFINED> instruction: 0x012e0000
    4034:	00780250 	rsbseq	r0, r8, r0, asr r2
    4038:	b8370000 	ldmdalt	r7!, {}	; <UNPREDICTABLE>
    403c:	01000007 	tsteq	r0, r7
    4040:	0041017c 	subeq	r0, r1, ip, ror r1
    4044:	16dc0000 	ldrbne	r0, [ip], r0
    4048:	00a80000 	adceq	r0, r8, r0
    404c:	9c010000 	stcls	0, cr0, [r1], {-0}
    4050:	00001377 	andeq	r1, r0, r7, ror r3
    4054:	00184431 	andseq	r4, r8, r1, lsr r4
    4058:	017c0100 	cmneq	ip, r0, lsl #2
    405c:	00001377 	andeq	r1, r0, r7, ror r3
    4060:	00000694 	muleq	r0, r4, r6
    4064:	00110534 	andseq	r0, r1, r4, lsr r5
    4068:	0016fc00 	andseq	pc, r6, r0, lsl #24
    406c:	00008000 	andeq	r8, r0, r0
    4070:	018a0100 	orreq	r0, sl, r0, lsl #2
    4074:	0000135c 	andeq	r1, r0, ip, asr r3
    4078:	00111238 	andseq	r1, r1, r8, lsr r2
    407c:	05390000 	ldreq	r0, [r9, #-0]!
    4080:	1c000011 	stcne	0, cr0, [r0], {17}
    4084:	20000017 	andcs	r0, r0, r7, lsl r0
    4088:	01000000 	mrseq	r0, (UNDEF: 0)
    408c:	1224018c 	eorne	r0, r4, #140, 2	; 0x23
    4090:	f1000011 	cps	#17
    4094:	00000006 	andeq	r0, r0, r6
    4098:	7d041500 	cfstr32vc	mvfx1, [r4, #-0]
    409c:	3a000013 	bcc	40f0 <__bss_end+0xf74>
    40a0:	0000103d 	andeq	r1, r0, sp, lsr r0
    40a4:	0016fd37 	andseq	pc, r6, r7, lsr sp	; <UNPREDICTABLE>
    40a8:	01920100 	orrseq	r0, r2, r0, lsl #2
    40ac:	00000053 	andeq	r0, r0, r3, asr r0
    40b0:	00001784 	andeq	r1, r0, r4, lsl #15
    40b4:	00000094 	muleq	r0, r4, r0
    40b8:	13f59c01 	mvnsne	r9, #256	; 0x100
    40bc:	623b0000 	eorsvs	r0, fp, #0
    40c0:	01006675 	tsteq	r0, r5, ror r6
    40c4:	13f50192 	mvnsne	r0, #-2147483612	; 0x80000024
    40c8:	07040000 	streq	r0, [r4, -r0]
    40cc:	6e3c0000 	cdpvs	0, 3, cr0, cr12, cr0, {0}
    40d0:	01920100 	orrseq	r0, r2, r0, lsl #2
    40d4:	00000053 	andeq	r0, r0, r3, asr r0
    40d8:	69325101 	ldmdbvs	r2!, {r0, r8, ip, lr}
    40dc:	01940100 	orrseq	r0, r4, r0, lsl #2
    40e0:	00000053 	andeq	r0, r0, r3, asr r0
    40e4:	00000757 	andeq	r0, r0, r7, asr r7
    40e8:	01006332 	tsteq	r0, r2, lsr r3
    40ec:	103d0195 	mlasne	sp, r5, r1, r0
    40f0:	07bf0000 	ldreq	r0, [pc, r0]!
    40f4:	1d3d0000 	ldcne	0, cr0, [sp, #-0]
    40f8:	a8000011 	stmdage	r0, {r0, r4}
    40fc:	a0000017 	andge	r0, r0, r7, lsl r0
    4100:	01000000 	mrseq	r0, (UNDEF: 0)
    4104:	a029019c 	mlage	r9, ip, r1, r0
    4108:	25000000 	strcs	r0, [r0, #-0]
    410c:	0000112e 	andeq	r1, r0, lr, lsr #2
    4110:	000007df 	ldrdeq	r0, [r0], -pc	; <UNPREDICTABLE>
    4114:	15000000 	strne	r0, [r0, #-0]
    4118:	00103d04 	andseq	r3, r0, r4, lsl #26
    411c:	113b3e00 	teqne	fp, r0, lsl #28
    4120:	18180000 	ldmdane	r8, {}	; <UNPREDICTABLE>
    4124:	00140000 	andseq	r0, r4, r0
    4128:	9c010000 	stcls	0, cr0, [r1], {-0}
    412c:	0011443e 	andseq	r4, r1, lr, lsr r4
    4130:	00182c00 	andseq	r2, r8, r0, lsl #24
    4134:	00001400 	andeq	r1, r0, r0, lsl #8
    4138:	2f9c0100 	svccs	0x009c0100
    413c:	00001646 	andeq	r1, r0, r6, asr #12
    4140:	4001b101 	andmi	fp, r1, r1, lsl #2
    4144:	a8000018 	stmdage	r0, {r3, r4}
    4148:	01000000 	mrseq	r0, (UNDEF: 0)
    414c:	0014cd9c 	mulseq	r4, ip, sp
    4150:	16a93100 	strtne	r3, [r9], r0, lsl #2
    4154:	b1010000 	mrslt	r0, (UNDEF: 1)
    4158:	00005301 	andeq	r5, r0, r1, lsl #6
    415c:	00081500 	andeq	r1, r8, r0, lsl #10
    4160:	169c3300 	ldrne	r3, [ip], r0, lsl #6
    4164:	b4010000 	strlt	r0, [r1], #-0
    4168:	00005301 	andeq	r5, r0, r1, lsl #6
    416c:	00083600 	andeq	r3, r8, r0, lsl #12
    4170:	66643200 	strbtvs	r3, [r4], -r0, lsl #4
    4174:	01b50100 			; <UNDEFINED> instruction: 0x01b50100
    4178:	00000053 	andeq	r0, r0, r3, asr r0
    417c:	00000864 	andeq	r0, r0, r4, ror #16
    4180:	72636c32 	rsbvc	r6, r3, #12800	; 0x3200
    4184:	01b60100 			; <UNDEFINED> instruction: 0x01b60100
    4188:	00000053 	andeq	r0, r0, r3, asr r0
    418c:	00000887 	andeq	r0, r0, r7, lsl #17
    4190:	00104b34 	andseq	r4, r0, r4, lsr fp
    4194:	00184000 	andseq	r4, r8, r0
    4198:	0000c000 	andeq	ip, r0, r0
    419c:	01b90100 			; <UNDEFINED> instruction: 0x01b90100
    41a0:	000014ad 	andeq	r1, r0, sp, lsr #9
    41a4:	00106424 	andseq	r6, r0, r4, lsr #8
    41a8:	00089b00 	andeq	r9, r8, r0, lsl #22
    41ac:	10583500 	subsne	r3, r8, r0, lsl #10
    41b0:	29010000 	stmdbcs	r1, {}	; <UNPREDICTABLE>
    41b4:	000000c0 	andeq	r0, r0, r0, asr #1
    41b8:	00107026 	andseq	r7, r0, r6, lsr #32
    41bc:	7c260000 	stcvc	0, cr0, [r6], #-0
    41c0:	00000010 	andeq	r0, r0, r0, lsl r0
    41c4:	00108625 	andseq	r8, r0, r5, lsr #12
    41c8:	0008bc00 	andeq	fp, r8, r0, lsl #24
    41cc:	3f000000 	svccc	0x00000000
    41d0:	0000113b 	andeq	r1, r0, fp, lsr r1
    41d4:	000018e0 	andeq	r1, r0, r0, ror #17
    41d8:	00000008 	andeq	r0, r0, r8
    41dc:	2d01cb01 	vstrcs	d12, [r1, #-4]
    41e0:	0000188c 	andeq	r1, r0, ip, lsl #17
    41e4:	0000109e 	muleq	r0, lr, r0
    41e8:	0150012e 	cmpeq	r0, lr, lsr #2
    41ec:	37000031 	smladxcc	r0, r1, r0, r0
    41f0:	00000d8e 	andeq	r0, r0, lr, lsl #27
    41f4:	4101f201 	tstmi	r1, r1, lsl #4	; <UNPREDICTABLE>
    41f8:	e8000000 	stmda	r0, {}	; <UNPREDICTABLE>
    41fc:	a8000018 	stmdage	r0, {r3, r4}
    4200:	01000000 	mrseq	r0, (UNDEF: 0)
    4204:	00152c9c 	mulseq	r5, ip, ip
    4208:	18443100 	stmdane	r4, {r8, ip, sp}^
    420c:	f2010000 	vhadd.s8	d0, d1, d0
    4210:	00137701 	andseq	r7, r3, r1, lsl #14
    4214:	0008e000 	andeq	lr, r8, r0
    4218:	114d3400 	cmpne	sp, r0, lsl #8
    421c:	19080000 	stmdbne	r8, {}	; <UNPREDICTABLE>
    4220:	00f00000 	rscseq	r0, r0, r0
    4224:	00010000 	andeq	r0, r1, r0
    4228:	00151102 	andseq	r1, r5, r2, lsl #2
    422c:	115a3800 	cmpne	sl, r0, lsl #16
    4230:	39000000 	stmdbcc	r0, {}	; <UNPREDICTABLE>
    4234:	0000114d 	andeq	r1, r0, sp, asr #2
    4238:	00001928 	andeq	r1, r0, r8, lsr #18
    423c:	00000020 	andeq	r0, r0, r0, lsr #32
    4240:	24020201 	strcs	r0, [r2], #-513	; 0xfffffdff
    4244:	0000115a 	andeq	r1, r0, sl, asr r1
    4248:	0000093d 	andeq	r0, r0, sp, lsr r9
    424c:	3a370000 	bcc	dc4254 <__bss_end+0xdc10d8>
    4250:	01000016 	tsteq	r0, r6, lsl r0
    4254:	00530209 	subseq	r0, r3, r9, lsl #4
    4258:	19900000 	ldmibne	r0, {}	; <UNPREDICTABLE>
    425c:	00940000 	addseq	r0, r4, r0
    4260:	9c010000 	stcls	0, cr0, [r1], {-0}
    4264:	0000159f 	muleq	r0, pc, r5	; <UNPREDICTABLE>
    4268:	6675623b 			; <UNDEFINED> instruction: 0x6675623b
    426c:	02090100 	andeq	r0, r9, #0, 2
    4270:	000013f5 	strdeq	r1, [r0], -r5
    4274:	00000950 	andeq	r0, r0, r0, asr r9
    4278:	01006e3c 	tsteq	r0, ip, lsr lr
    427c:	00530209 	subseq	r0, r3, r9, lsl #4
    4280:	51010000 	mrspl	r0, (UNDEF: 1)
    4284:	01006932 	tsteq	r0, r2, lsr r9
    4288:	0053020b 	subseq	r0, r3, fp, lsl #4
    428c:	09a30000 	stmibeq	r3!, {}	; <UNPREDICTABLE>
    4290:	63320000 	teqvs	r2, #0
    4294:	020c0100 	andeq	r0, ip, #0, 2
    4298:	0000103d 	andeq	r1, r0, sp, lsr r0
    429c:	00000a0b 	andeq	r0, r0, fp, lsl #20
    42a0:	0011653d 	andseq	r6, r1, sp, lsr r5
    42a4:	0019b400 	andseq	fp, r9, r0, lsl #8
    42a8:	00011000 	andeq	r1, r1, r0
    42ac:	02130100 	andseq	r0, r3, #0, 2
    42b0:	00011029 	andeq	r1, r1, r9, lsr #32
    42b4:	11762500 	cmnne	r6, r0, lsl #10
    42b8:	0a2b0000 	beq	ac42c0 <__bss_end+0xac1144>
    42bc:	00000000 	andeq	r0, r0, r0
    42c0:	179a4000 	ldrne	r4, [sl, r0]
    42c4:	15010000 	strne	r0, [r1, #-0]
    42c8:	00000053 	andeq	r0, r0, r3, asr r0
    42cc:	2e600305 	cdpcs	3, 6, cr0, cr0, cr5, {0}
    42d0:	0f400000 	svceq	0x00400000
    42d4:	01000017 	tsteq	r0, r7, lsl r0
    42d8:	00005316 	andeq	r5, r0, r6, lsl r3
    42dc:	64030500 	strvs	r0, [r3], #-1280	; 0xfffffb00
    42e0:	4000002e 	andmi	r0, r0, lr, lsr #32
    42e4:	00001657 	andeq	r1, r0, r7, asr r6
    42e8:	00531701 	subseq	r1, r3, r1, lsl #14
    42ec:	03050000 	movweq	r0, #20480	; 0x5000
    42f0:	00002e68 	andeq	r2, r0, r8, ror #28
    42f4:	0016b140 	andseq	fp, r6, r0, asr #2
    42f8:	53180100 	tstpl	r8, #0, 2
    42fc:	05000000 	streq	r0, [r0, #-0]
    4300:	002e6c03 	eoreq	r6, lr, r3, lsl #24
    4304:	16a21e00 	strtne	r1, [r2], r0, lsl #28
    4308:	19010000 	stmdbne	r1, {}	; <UNPREDICTABLE>
    430c:	00000053 	andeq	r0, r0, r3, asr r0
    4310:	00168141 	andseq	r8, r6, r1, asr #2
    4314:	00168100 	andseq	r8, r6, r0, lsl #2
    4318:	41820400 	orrmi	r0, r2, r0, lsl #8
    431c:	00000d1a 	andeq	r0, r0, sl, lsl sp
    4320:	00000d1a 	andeq	r0, r0, sl, lsl sp
    4324:	5e411a05 	vmlapl.f32	s3, s2, s10
    4328:	5e00000f 	cdppl	0, 0, cr0, cr0, cr15, {0}
    432c:	0500000f 	streq	r0, [r0, #-15]
    4330:	099a001b 	ldmibeq	sl, {r0, r1, r3, r4}
    4334:	00040000 	andeq	r0, r4, r0
    4338:	00000d24 	andeq	r0, r0, r4, lsr #26
    433c:	00000104 	andeq	r0, r0, r4, lsl #2
    4340:	f20c0000 	vhadd.s8	d0, d12, d0
    4344:	96000017 			; <UNDEFINED> instruction: 0x96000017
    4348:	24000001 	strcs	r0, [r0], #-1
    434c:	5000001a 	andpl	r0, r0, sl, lsl r0
    4350:	e2000008 	and	r0, r0, #8
    4354:	0200000c 	andeq	r0, r0, #12
    4358:	01140601 	tsteq	r4, r1, lsl #12
    435c:	01020000 	mrseq	r0, (UNDEF: 2)
    4360:	00011208 	andeq	r1, r1, r8, lsl #4
    4364:	05020200 	streq	r0, [r2, #-512]	; 0xfffffe00
    4368:	00000276 	andeq	r0, r0, r6, ror r2
    436c:	36070202 	strcc	r0, [r7], -r2, lsl #4
    4370:	03000001 	movweq	r0, #1
    4374:	00001264 	andeq	r1, r0, r4, ror #4
    4378:	004c1202 	subeq	r1, ip, r2, lsl #4
    437c:	04040000 	streq	r0, [r4], #-0
    4380:	746e6905 	strbtvc	r6, [lr], #-2309	; 0xfffff6fb
    4384:	07040200 	streq	r0, [r4, -r0, lsl #4]
    4388:	000001e6 	andeq	r0, r0, r6, ror #3
    438c:	36050802 	strcc	r0, [r5], -r2, lsl #16
    4390:	02000002 	andeq	r0, r0, #2
    4394:	01dc0708 	bicseq	r0, ip, r8, lsl #14
    4398:	af030000 	svcge	0x00030000
    439c:	02000017 	andeq	r0, r0, #23
    43a0:	00005318 	andeq	r5, r0, r8, lsl r3
    43a4:	07040200 	streq	r0, [r4, -r0, lsl #4]
    43a8:	0000022d 	andeq	r0, r0, sp, lsr #4
    43ac:	00020905 	andeq	r0, r2, r5, lsl #18
    43b0:	00530400 	subseq	r0, r3, r0, lsl #8
    43b4:	89050000 	stmdbhi	r5, {}	; <UNPREDICTABLE>
    43b8:	00000109 	andeq	r0, r0, r9, lsl #2
    43bc:	0000d406 	andeq	sp, r0, r6, lsl #8
    43c0:	29060000 	stmdbcs	r6, {}	; <UNPREDICTABLE>
    43c4:	01000001 	tsteq	r0, r1
    43c8:	0000e106 	andeq	lr, r0, r6, lsl #2
    43cc:	06060200 	streq	r0, [r6], -r0, lsl #4
    43d0:	03000001 	movweq	r0, #1
    43d4:	00025106 	andeq	r5, r2, r6, lsl #2
    43d8:	d0060400 	andle	r0, r6, r0, lsl #8
    43dc:	05000001 	streq	r0, [r0, #-1]
    43e0:	00018906 	andeq	r8, r1, r6, lsl #18
    43e4:	f3060600 	vmax.u8	d0, d6, d0
    43e8:	07000001 	streq	r0, [r0, -r1]
    43ec:	0000c806 	andeq	ip, r0, r6, lsl #16
    43f0:	fb060800 	blx	1863fa <__bss_end+0x18327e>
    43f4:	09000000 	stmdbeq	r0, {}	; <UNPREDICTABLE>
    43f8:	0001c506 	andeq	ip, r1, r6, lsl #10
    43fc:	6b060a00 	blvs	186c04 <__bss_end+0x183a88>
    4400:	0b000002 	bleq	4410 <__bss_end+0x1294>
    4404:	00020306 	andeq	r0, r2, r6, lsl #6
    4408:	1f060c00 	svcne	0x00060c00
    440c:	0d000002 	stceq	0, cr0, [r0, #-8]
    4410:	00031806 	andeq	r1, r3, r6, lsl #16
    4414:	5d060e00 	stcpl	14, cr0, [r6, #-0]
    4418:	0f000002 	svceq	0x00000002
    441c:	0002e806 	andeq	lr, r2, r6, lsl #16
    4420:	44061000 	strmi	r1, [r6], #-0
    4424:	11000002 	tstne	r0, r2
    4428:	00030206 	andeq	r0, r3, r6, lsl #4
    442c:	ee061200 	cdp	2, 0, cr1, cr6, cr0, {0}
    4430:	13000000 	movwne	r0, #0
    4434:	0002cd06 	andeq	ip, r2, r6, lsl #26
    4438:	02001400 	andeq	r1, r0, #0, 8
    443c:	011b0801 	tsteq	fp, r1, lsl #16
    4440:	04020000 	streq	r0, [r2], #-0
    4444:	0001e107 	andeq	lr, r1, r7, lsl #2
    4448:	03040700 	movweq	r0, #18176	; 0x4700
    444c:	00001871 	andeq	r1, r0, r1, ror r8
    4450:	01242803 			; <UNDEFINED> instruction: 0x01242803
    4454:	ca080000 	bgt	20445c <__bss_end+0x2012e0>
    4458:	04000017 	streq	r0, [r0], #-23	; 0xffffffe9
    445c:	013b0006 	teqeq	fp, r6
    4460:	32090000 	andcc	r0, r9, #0
    4464:	17000018 	smladne	r0, r8, r0, r0
    4468:	00000001 	andeq	r0, r0, r1
    446c:	17cc0300 	strbne	r0, [ip, r0, lsl #6]
    4470:	62030000 	andvs	r0, r3, #0
    4474:	00000119 	andeq	r0, r0, r9, lsl r1
    4478:	0018800a 	andseq	r8, r8, sl
    447c:	83660100 	cmnhi	r6, #0, 2
    4480:	01000001 	tsteq	r0, r1
    4484:	00000183 	andeq	r0, r0, r3, lsl #3
    4488:	0018530b 	andseq	r5, r8, fp, lsl #6
    448c:	83660100 	cmnhi	r6, #0, 2
    4490:	0c000001 	stceq	0, cr0, [r0], {1}
    4494:	00637273 	rsbeq	r7, r3, r3, ror r2
    4498:	01896601 	orreq	r6, r9, r1, lsl #12
    449c:	d60b0000 	strle	r0, [fp], -r0
    44a0:	01000012 	tsteq	r0, r2, lsl r0
    44a4:	00006866 	andeq	r6, r0, r6, ror #16
    44a8:	6d740d00 	ldclvs	13, cr0, [r4, #-0]
    44ac:	68010070 	stmdavs	r1, {r4, r5, r6}
    44b0:	00000183 	andeq	r0, r0, r3, lsl #3
    44b4:	09040e00 	stmdbeq	r4, {r9, sl, fp}
    44b8:	0e000001 	cdpeq	0, 0, cr0, cr0, cr1, {0}
    44bc:	00018f04 	andeq	r8, r1, r4, lsl #30
    44c0:	01090f00 	tsteq	r9, r0, lsl #30
    44c4:	4b0a0000 	blmi	2844cc <__bss_end+0x281350>
    44c8:	01000018 	tsteq	r0, r8, lsl r0
    44cc:	00018339 	andeq	r8, r1, r9, lsr r3
    44d0:	01c60100 	biceq	r0, r6, r0, lsl #2
    44d4:	530b0000 	movwpl	r0, #45056	; 0xb000
    44d8:	01000018 	tsteq	r0, r8, lsl r0
    44dc:	00018339 	andeq	r8, r1, r9, lsr r3
    44e0:	72730c00 	rsbsvc	r0, r3, #0, 24
    44e4:	39010063 	stmdbcc	r1, {r0, r1, r5, r6}
    44e8:	00000189 	andeq	r0, r0, r9, lsl #3
    44ec:	706d740d 	rsbvc	r7, sp, sp, lsl #8
    44f0:	833b0100 	teqhi	fp, #0, 2
    44f4:	00000001 	andeq	r0, r0, r1
    44f8:	0018370a 	andseq	r3, r8, sl, lsl #14
    44fc:	68280100 	stmdavs	r8!, {r8}
    4500:	01000000 	mrseq	r0, (UNDEF: 0)
    4504:	000001ea 	andeq	r0, r0, sl, ror #3
    4508:	0100730c 	tsteq	r0, ip, lsl #6
    450c:	00018928 	andeq	r8, r1, r8, lsr #18
    4510:	63730d00 	cmnvs	r3, #0, 26
    4514:	892a0100 	stmdbhi	sl!, {r8}
    4518:	00000001 	andeq	r0, r0, r1
    451c:	0017ed0a 	andseq	lr, r7, sl, lsl #26
    4520:	83aa0100 			; <UNDEFINED> instruction: 0x83aa0100
    4524:	01000001 	tsteq	r0, r1
    4528:	0000024f 	andeq	r0, r0, pc, asr #4
    452c:	0015990b 	andseq	r9, r5, fp, lsl #18
    4530:	4caa0100 	stfmis	f0, [sl]
    4534:	0b000000 	bleq	453c <__bss_end+0x13c0>
    4538:	00001844 	andeq	r1, r0, r4, asr #16
    453c:	0183aa01 	orreq	sl, r3, r1, lsl #20
    4540:	2c0b0000 	stccs	0, cr0, [fp], {-0}
    4544:	01000018 	tsteq	r0, r8, lsl r0
    4548:	00004caa 	andeq	r4, r0, sl, lsr #25
    454c:	18211000 	stmdane	r1!, {ip}
    4550:	ac010000 	stcge	0, cr0, [r1], {-0}
    4554:	0000024f 	andeq	r0, r0, pc, asr #4
    4558:	0017e410 	andseq	lr, r7, r0, lsl r4
    455c:	4cad0100 	stfmis	f0, [sp]
    4560:	0d000000 	stceq	0, cr0, [r0, #-0]
    4564:	ae010069 	cdpge	0, 0, cr0, cr1, cr9, {3}
    4568:	0000004c 	andeq	r0, r0, ip, asr #32
    456c:	01006a0d 	tsteq	r0, sp, lsl #20
    4570:	00004caf 	andeq	r4, r0, pc, lsr #25
    4574:	183e1000 	ldmdane	lr!, {ip}
    4578:	b0010000 	andlt	r0, r1, r0
    457c:	0000025f 	andeq	r0, r0, pc, asr r2
    4580:	01091100 	mrseq	r1, (UNDEF: 25)
    4584:	025f0000 	subseq	r0, pc, #0
    4588:	73120000 	tstvc	r2, #0
    458c:	0f000000 	svceq	0x00000000
    4590:	01091100 	mrseq	r1, (UNDEF: 25)
    4594:	026f0000 	rsbeq	r0, pc, #0
    4598:	73120000 	tstvc	r2, #0
    459c:	10000000 	andne	r0, r0, r0
    45a0:	17aa1300 	strne	r1, [sl, r0, lsl #6]!
    45a4:	d9010000 	stmdble	r1, {}	; <UNPREDICTABLE>
    45a8:	00000183 	andeq	r0, r0, r3, lsl #3
    45ac:	00001a24 	andeq	r1, r0, r4, lsr #20
    45b0:	000000cc 	andeq	r0, r0, ip, asr #1
    45b4:	02e99c01 	rsceq	r9, r9, #256	; 0x100
    45b8:	99140000 	ldmdbls	r4, {}	; <UNPREDICTABLE>
    45bc:	01000015 	tsteq	r0, r5, lsl r0
    45c0:	000053d9 	ldrdeq	r5, [r0], -r9
    45c4:	000a6100 	andeq	r6, sl, r0, lsl #2
    45c8:	18441400 	stmdane	r4, {sl, ip}^
    45cc:	d9010000 	stmdble	r1, {}	; <UNPREDICTABLE>
    45d0:	00000183 	andeq	r0, r0, r3, lsl #3
    45d4:	00000aab 	andeq	r0, r0, fp, lsr #21
    45d8:	00182c14 	andseq	r2, r8, r4, lsl ip
    45dc:	4cd90100 	ldfmie	f0, [r9], {0}
    45e0:	c9000000 	stmdbgt	r0, {}	; <UNPREDICTABLE>
    45e4:	1500000a 	strne	r0, [r0, #-10]
    45e8:	00001821 	andeq	r1, r0, r1, lsr #16
    45ec:	024fdb01 	subeq	sp, pc, #1024	; 0x400
    45f0:	91030000 	mrsls	r0, (UNDEF: 3)
    45f4:	69167fbc 	ldmdbvs	r6, {r2, r3, r4, r5, r7, r8, r9, sl, fp, ip, sp, lr}
    45f8:	4cdc0100 	ldfmie	f0, [ip], {0}
    45fc:	e7000000 	str	r0, [r0, -r0]
    4600:	0d00000a 	stceq	0, cr0, [r0, #-40]	; 0xffffffd8
    4604:	dd01006a 	stcle	0, cr0, [r1, #-424]	; 0xfffffe58
    4608:	0000004c 	andeq	r0, r0, ip, asr #32
    460c:	00183e15 	andseq	r3, r8, r5, lsl lr
    4610:	5fde0100 	svcpl	0x00de0100
    4614:	02000002 	andeq	r0, r0, #2
    4618:	17004c91 			; <UNDEFINED> instruction: 0x17004c91
    461c:	00001858 	andeq	r1, r0, r8, asr r8
    4620:	41017501 	tstmi	r1, r1, lsl #10
    4624:	f0000000 			; <UNDEFINED> instruction: 0xf0000000
    4628:	9800001a 	stmdals	r0, {r1, r3, r4}
    462c:	01000000 	mrseq	r0, (UNDEF: 0)
    4630:	00037e9c 	muleq	r3, ip, lr
    4634:	18441800 	stmdane	r4, {fp, ip}^
    4638:	75010000 	strvc	r0, [r1, #-0]
    463c:	00018301 	andeq	r8, r1, r1, lsl #6
    4640:	000b1d00 	andeq	r1, fp, r0, lsl #26
    4644:	656c1900 	strbvs	r1, [ip, #-2304]!	; 0xfffff700
    4648:	7501006e 	strvc	r0, [r1, #-110]	; 0xffffff92
    464c:	00004101 	andeq	r4, r0, r1, lsl #2
    4650:	000b4900 	andeq	r4, fp, r0, lsl #18
    4654:	185e1800 	ldmdane	lr, {fp, ip}^
    4658:	75010000 	strvc	r0, [r1, #-0]
    465c:	00004101 	andeq	r4, r0, r1, lsl #2
    4660:	000b6700 	andeq	r6, fp, r0, lsl #14
    4664:	17c21a00 	strbne	r1, [r2, r0, lsl #20]
    4668:	79010000 	stmdbvc	r1, {}	; <UNPREDICTABLE>
    466c:	00025f01 	andeq	r5, r2, r1, lsl #30
    4670:	5c910200 	lfmpl	f0, 4, [r1], {0}
    4674:	0001461b 	andeq	r4, r1, fp, lsl r6
    4678:	001b2c00 	andseq	r2, fp, r0, lsl #24
    467c:	00013000 	andeq	r3, r1, r0
    4680:	017d0100 	cmneq	sp, r0, lsl #2
    4684:	00016c1c 	andeq	r6, r1, ip, lsl ip
    4688:	000b8500 	andeq	r8, fp, r0, lsl #10
    468c:	01611c00 	cmneq	r1, r0, lsl #24
    4690:	0bd50000 	bleq	ff544698 <__bss_end+0xff54151c>
    4694:	561c0000 	ldrpl	r0, [ip], -r0
    4698:	f5000001 			; <UNDEFINED> instruction: 0xf5000001
    469c:	1d00000b 	stcne	0, cr0, [r0, #-44]	; 0xffffffd4
    46a0:	00000130 	andeq	r0, r0, r0, lsr r1
    46a4:	0001771e 	andeq	r7, r1, lr, lsl r7
    46a8:	000bf500 	andeq	pc, fp, r0, lsl #10
    46ac:	00000000 	andeq	r0, r0, r0
    46b0:	0001ea1f 	andeq	lr, r1, pc, lsl sl
    46b4:	001b8800 	andseq	r8, fp, r0, lsl #16
    46b8:	0000f400 	andeq	pc, r0, r0, lsl #8
    46bc:	d59c0100 	ldrle	r0, [ip, #256]	; 0x100
    46c0:	1c000003 	stcne	0, cr0, [r0], {3}
    46c4:	000001fa 	strdeq	r0, [r0], -sl
    46c8:	00000c20 	andeq	r0, r0, r0, lsr #24
    46cc:	0002051c 	andeq	r0, r2, ip, lsl r5
    46d0:	000c5f00 	andeq	r5, ip, r0, lsl #30
    46d4:	021b2000 	andseq	r2, fp, #0
    46d8:	91020000 	mrsls	r0, (UNDEF: 2)
    46dc:	02261e4c 	eoreq	r1, r6, #76, 28	; 0x4c0
    46e0:	0c7d0000 	ldcleq	0, cr0, [sp], #-0
    46e4:	311e0000 	tstcc	lr, r0
    46e8:	d7000002 	strle	r0, [r0, -r2]
    46ec:	1e00000c 	cdpne	0, 0, cr0, cr0, cr12, {0}
    46f0:	0000023a 	andeq	r0, r0, sl, lsr r2
    46f4:	00000d17 	andeq	r0, r0, r7, lsl sp
    46f8:	00024320 	andeq	r4, r2, r0, lsr #6
    46fc:	5c910200 	lfmpl	f0, 4, [r1], {0}
    4700:	00021021 	andeq	r1, r2, r1, lsr #32
    4704:	22000a00 	andcs	r0, r0, #0, 20
    4708:	00000afd 	strdeq	r0, [r0], -sp
    470c:	41010f01 	tstmi	r1, r1, lsl #30
    4710:	7c000000 	stcvc	0, cr0, [r0], {-0}
    4714:	fc00001c 	stc2	0, cr0, [r0], {28}
    4718:	01000002 	tsteq	r0, r2
    471c:	00069d9c 	muleq	r6, ip, sp
    4720:	17bb1800 	ldrne	r1, [fp, r0, lsl #16]!
    4724:	0f010000 	svceq	0x00010000
    4728:	00018901 	andeq	r8, r1, r1, lsl #18
    472c:	000d4200 	andeq	r4, sp, r0, lsl #4
    4730:	271a2300 	ldrcs	r2, [sl, -r0, lsl #6]
    4734:	01000018 	tsteq	r0, r8, lsl r0
    4738:	013b0111 	teqeq	fp, r1, lsl r1
    473c:	91030000 	mrsls	r0, (UNDEF: 3)
    4740:	441a7fbc 	ldrmi	r7, [sl], #-4028	; 0xfffff044
    4744:	01000018 	tsteq	r0, r8, lsl r0
    4748:	024f0112 	subeq	r0, pc, #-2147483644	; 0x80000004
    474c:	91020000 	mrsls	r0, (UNDEF: 2)
    4750:	18522440 	ldmdane	r2, {r6, sl, sp}^
    4754:	13010000 	movwne	r0, #4096	; 0x1000
    4758:	00018301 	andeq	r8, r1, r1, lsl #6
    475c:	000d8400 	andeq	r8, sp, r0, lsl #8
    4760:	17b62400 	ldrne	r2, [r6, r0, lsl #8]!
    4764:	14010000 	strne	r0, [r1], #-0
    4768:	00018301 	andeq	r8, r1, r1, lsl #6
    476c:	000e1300 	andeq	r1, lr, r0, lsl #6
    4770:	185e2400 	ldmdane	lr, {sl, sp}^
    4774:	15010000 	strne	r0, [r1, #-0]
    4778:	00004101 	andeq	r4, r0, r1, lsl #2
    477c:	000e2600 	andeq	r2, lr, r0, lsl #12
    4780:	656c2500 	strbvs	r2, [ip, #-1280]!	; 0xfffffb00
    4784:	1601006e 	strne	r0, [r1], -lr, rrx
    4788:	00004101 	andeq	r4, r0, r1, lsl #2
    478c:	000e4400 	andeq	r4, lr, r0, lsl #8
    4790:	01c62600 	biceq	r2, r6, r0, lsl #12
    4794:	1db00000 	ldcne	0, cr0, [r0]
    4798:	01580000 	cmpeq	r8, r0
    479c:	47010000 	strmi	r0, [r1, -r0]
    47a0:	00048c01 	andeq	r8, r4, r1, lsl #24
    47a4:	01d61c00 	bicseq	r1, r6, r0, lsl #24
    47a8:	0e850000 	cdpeq	0, 8, cr0, cr5, cr0, {0}
    47ac:	581d0000 	ldmdapl	sp, {}	; <UNPREDICTABLE>
    47b0:	1e000001 	cdpne	0, 0, cr0, cr0, cr1, {0}
    47b4:	000001df 	ldrdeq	r0, [r0], -pc	; <UNPREDICTABLE>
    47b8:	00000ea3 	andeq	r0, r0, r3, lsr #29
    47bc:	94270000 	strtls	r0, [r7], #-0
    47c0:	ec000001 	stc	0, cr0, [r0], {1}
    47c4:	1000001d 	andne	r0, r0, sp, lsl r0
    47c8:	01000000 	mrseq	r0, (UNDEF: 0)
    47cc:	04be0149 	ldrteq	r0, [lr], #329	; 0x149
    47d0:	af1c0000 	svcge	0x001c0000
    47d4:	d9000001 	stmdble	r0, {r0}
    47d8:	2800000e 	stmdacs	r0, {r1, r2, r3}
    47dc:	000001a4 	andeq	r0, r0, r4, lsr #3
    47e0:	001dec29 	andseq	lr, sp, r9, lsr #24
    47e4:	00001000 	andeq	r1, r0, r0
    47e8:	01ba2a00 			; <UNDEFINED> instruction: 0x01ba2a00
    47ec:	00000000 	andeq	r0, r0, r0
    47f0:	00019427 	andeq	r9, r1, r7, lsr #8
    47f4:	001e1c00 	andseq	r1, lr, r0, lsl #24
    47f8:	00001000 	andeq	r1, r0, r0
    47fc:	01570100 	cmpeq	r7, r0, lsl #2
    4800:	000004f8 	strdeq	r0, [r0], -r8
    4804:	0001af1c 	andeq	sl, r1, ip, lsl pc
    4808:	000ef900 	andeq	pc, lr, r0, lsl #18
    480c:	01a41c00 			; <UNDEFINED> instruction: 0x01a41c00
    4810:	0f240000 	svceq	0x00240000
    4814:	1c290000 	stcne	0, cr0, [r9], #-0
    4818:	1000001e 	andne	r0, r0, lr, lsl r0
    481c:	1e000000 	cdpne	0, 0, cr0, cr0, cr0, {0}
    4820:	000001ba 			; <UNDEFINED> instruction: 0x000001ba
    4824:	00000f37 	andeq	r0, r0, r7, lsr pc
    4828:	c6270000 	strtgt	r0, [r7], -r0
    482c:	2c000001 	stccs	0, cr0, [r0], {1}
    4830:	1c00001e 	stcne	0, cr0, [r0], {30}
    4834:	01000000 	mrseq	r0, (UNDEF: 0)
    4838:	05250158 	streq	r0, [r5, #-344]!	; 0xfffffea8
    483c:	d6280000 	strtle	r0, [r8], -r0
    4840:	29000001 	stmdbcs	r0, {r0}
    4844:	00001e2c 	andeq	r1, r0, ip, lsr #28
    4848:	0000001c 	andeq	r0, r0, ip, lsl r0
    484c:	0001df1e 	andeq	sp, r1, lr, lsl pc
    4850:	000f4a00 	andeq	r4, pc, r0, lsl #20
    4854:	26000000 	strcs	r0, [r0], -r0
    4858:	000001c6 	andeq	r0, r0, r6, asr #3
    485c:	00001e70 	andeq	r1, r0, r0, ror lr
    4860:	00000170 	andeq	r0, r0, r0, ror r1
    4864:	52013d01 	andpl	r3, r1, #1, 26	; 0x40
    4868:	1c000005 	stcne	0, cr0, [r0], {5}
    486c:	000001d6 	ldrdeq	r0, [r0], -r6
    4870:	00000f75 	andeq	r0, r0, r5, ror pc
    4874:	0001701d 	andeq	r7, r1, sp, lsl r0
    4878:	01df1e00 	bicseq	r1, pc, r0, lsl #28
    487c:	0f930000 	svceq	0x00930000
    4880:	00000000 	andeq	r0, r0, r0
    4884:	00019427 	andeq	r9, r1, r7, lsr #8
    4888:	001eac00 	andseq	sl, lr, r0, lsl #24
    488c:	00001000 	andeq	r1, r0, r0
    4890:	013f0100 	teqeq	pc, r0, lsl #2
    4894:	00000584 	andeq	r0, r0, r4, lsl #11
    4898:	0001af1c 	andeq	sl, r1, ip, lsl pc
    489c:	000fc900 	andeq	ip, pc, r0, lsl #18
    48a0:	01a42800 			; <UNDEFINED> instruction: 0x01a42800
    48a4:	ac290000 	stcge	0, cr0, [r9], #-0
    48a8:	1000001e 	andne	r0, r0, lr, lsl r0
    48ac:	2a000000 	bcs	48b4 <__bss_end+0x1738>
    48b0:	000001ba 			; <UNDEFINED> instruction: 0x000001ba
    48b4:	c6260000 	strtgt	r0, [r6], -r0
    48b8:	dc000001 	stcle	0, cr0, [r0], {1}
    48bc:	8800001e 	stmdahi	r0, {r1, r2, r3, r4}
    48c0:	01000001 	tsteq	r0, r1
    48c4:	05b10132 	ldreq	r0, [r1, #306]!	; 0x132
    48c8:	d61c0000 	ldrle	r0, [ip], -r0
    48cc:	e9000001 	stmdb	r0, {r0}
    48d0:	1d00000f 	stcne	0, cr0, [r0, #-60]	; 0xffffffc4
    48d4:	00000188 	andeq	r0, r0, r8, lsl #3
    48d8:	0001df1e 	andeq	sp, r1, lr, lsl pc
    48dc:	00100700 	andseq	r0, r0, r0, lsl #14
    48e0:	27000000 	strcs	r0, [r0, -r0]
    48e4:	00000194 	muleq	r0, r4, r1
    48e8:	00001f18 	andeq	r1, r0, r8, lsl pc
    48ec:	00000010 	andeq	r0, r0, r0, lsl r0
    48f0:	e3013401 	movw	r3, #5121	; 0x1401
    48f4:	1c000005 	stcne	0, cr0, [r0], {5}
    48f8:	000001af 	andeq	r0, r0, pc, lsr #3
    48fc:	0000103d 	andeq	r1, r0, sp, lsr r0
    4900:	0001a428 	andeq	sl, r1, r8, lsr #8
    4904:	1f182900 	svcne	0x00182900
    4908:	00100000 	andseq	r0, r0, r0
    490c:	ba2a0000 	blt	a84914 <__bss_end+0xa81798>
    4910:	00000001 	andeq	r0, r0, r1
    4914:	1d802b00 	vstrne	d2, [r0]
    4918:	09870000 	stmibeq	r7, {}	; <UNPREDICTABLE>
    491c:	05fa0000 	ldrbeq	r0, [sl, #0]!
    4920:	012c0000 			; <UNDEFINED> instruction: 0x012c0000
    4924:	70030550 	andvc	r0, r3, r0, asr r5
    4928:	0000002e 	andeq	r0, r0, lr, lsr #32
    492c:	001db02b 	andseq	fp, sp, fp, lsr #32
    4930:	00026f00 	andeq	r6, r2, r0, lsl #30
    4934:	00061300 	andeq	r1, r6, r0, lsl #6
    4938:	51012c00 	tstpl	r1, r0, lsl #24
    493c:	2c007802 	stccs	8, cr7, [r0], {2}
    4940:	3a015201 	bcc	5914c <__bss_end+0x55fd0>
    4944:	1de02b00 	stclne	11, cr2, [r0]
    4948:	02e90000 	rsceq	r0, r9, #0
    494c:	06330000 	ldrteq	r0, [r3], -r0
    4950:	012c0000 			; <UNDEFINED> instruction: 0x012c0000
    4954:	00780250 	rsbseq	r0, r8, r0, asr r2
    4958:	0251012c 	subseq	r0, r1, #44, 2
    495c:	012c007a 			; <UNDEFINED> instruction: 0x012c007a
    4960:	00790252 	rsbseq	r0, r9, r2, asr r2
    4964:	1e702b00 	vaddne.f64	d18, d0, d0
    4968:	026f0000 	rsbeq	r0, pc, #0
    496c:	064c0000 	strbeq	r0, [ip], -r0
    4970:	012c0000 			; <UNDEFINED> instruction: 0x012c0000
    4974:	00780251 	rsbseq	r0, r8, r1, asr r2
    4978:	0152012c 	cmpeq	r2, ip, lsr #2
    497c:	a02b0040 	eorge	r0, fp, r0, asr #32
    4980:	e900001e 	stmdb	r0, {r1, r2, r3, r4}
    4984:	6c000002 	stcvs	0, cr0, [r0], {2}
    4988:	2c000006 	stccs	0, cr0, [r0], {6}
    498c:	78025001 	stmdavc	r2, {r0, ip, lr}
    4990:	51012c00 	tstpl	r1, r0, lsl #24
    4994:	2c007a02 	stccs	10, cr7, [r0], {2}
    4998:	79025201 	stmdbvc	r2, {r0, r9, ip, lr}
    499c:	dc2b0000 	stcle	0, cr0, [fp], #-0
    49a0:	7e00001e 	mcrvc	0, 0, r0, cr0, cr14, {0}
    49a4:	80000003 	andhi	r0, r0, r3
    49a8:	2c000006 	stccs	0, cr0, [r0], {6}
    49ac:	78025101 	stmdavc	r2, {r0, r8, ip, lr}
    49b0:	0c2d0000 	stceq	0, cr0, [sp], #-0
    49b4:	e900001f 	stmdb	r0, {r0, r1, r2, r3, r4}
    49b8:	2c000002 	stccs	0, cr0, [r0], {2}
    49bc:	78025001 	stmdavc	r2, {r0, ip, lr}
    49c0:	51012c00 	tstpl	r1, r0, lsl #24
    49c4:	2c007a02 	stccs	10, cr7, [r0], {2}
    49c8:	79025201 	stmdbvc	r2, {r0, r9, ip, lr}
    49cc:	22000000 	andcs	r0, r0, #0
    49d0:	00001864 	andeq	r1, r0, r4, ror #16
    49d4:	41018401 	tstmi	r1, r1, lsl #8
    49d8:	78000000 	stmdavc	r0, {}	; <UNPREDICTABLE>
    49dc:	fc00001f 	stc2	0, cr0, [r0], {31}
    49e0:	01000002 	tsteq	r0, r2
    49e4:	0009659c 	muleq	r9, ip, r5
    49e8:	17bb1800 	ldrne	r1, [fp, r0, lsl #16]!
    49ec:	84010000 	strhi	r0, [r1], #-0
    49f0:	00018901 	andeq	r8, r1, r1, lsl #18
    49f4:	00105d00 	andseq	r5, r0, r0, lsl #26
    49f8:	271a2300 	ldrcs	r2, [sl, -r0, lsl #6]
    49fc:	01000018 	tsteq	r0, r8, lsl r0
    4a00:	013b0186 	teqeq	fp, r6, lsl #3
    4a04:	91030000 	mrsls	r0, (UNDEF: 3)
    4a08:	441a7fbc 	ldrmi	r7, [sl], #-4028	; 0xfffff044
    4a0c:	01000018 	tsteq	r0, r8, lsl r0
    4a10:	024f0187 	subeq	r0, pc, #-1073741791	; 0xc0000021
    4a14:	91020000 	mrsls	r0, (UNDEF: 2)
    4a18:	18522440 	ldmdane	r2, {r6, sl, sp}^
    4a1c:	88010000 	stmdahi	r1, {}	; <UNPREDICTABLE>
    4a20:	00018301 	andeq	r8, r1, r1, lsl #6
    4a24:	00109f00 	andseq	r9, r0, r0, lsl #30
    4a28:	17b62400 	ldrne	r2, [r6, r0, lsl #8]!
    4a2c:	89010000 	stmdbhi	r1, {}	; <UNPREDICTABLE>
    4a30:	00018301 	andeq	r8, r1, r1, lsl #6
    4a34:	00112e00 	andseq	r2, r1, r0, lsl #28
    4a38:	185e2400 	ldmdane	lr, {sl, sp}^
    4a3c:	8a010000 	bhi	44a44 <__bss_end+0x418c8>
    4a40:	00004101 	andeq	r4, r0, r1, lsl #2
    4a44:	00114100 	andseq	r4, r1, r0, lsl #2
    4a48:	656c2500 	strbvs	r2, [ip, #-1280]!	; 0xfffffb00
    4a4c:	8b01006e 	blhi	44c0c <__bss_end+0x41a90>
    4a50:	00004101 	andeq	r4, r0, r1, lsl #2
    4a54:	00115f00 	andseq	r5, r1, r0, lsl #30
    4a58:	01c62600 	biceq	r2, r6, r0, lsl #12
    4a5c:	20ac0000 	adccs	r0, ip, r0
    4a60:	01a00000 	moveq	r0, r0
    4a64:	bc010000 	stclt	0, cr0, [r1], {-0}
    4a68:	00075401 	andeq	r5, r7, r1, lsl #8
    4a6c:	01d61c00 	bicseq	r1, r6, r0, lsl #24
    4a70:	11a00000 	movne	r0, r0
    4a74:	a01d0000 	andsge	r0, sp, r0
    4a78:	1e000001 	cdpne	0, 0, cr0, cr0, cr1, {0}
    4a7c:	000001df 	ldrdeq	r0, [r0], -pc	; <UNPREDICTABLE>
    4a80:	000011be 			; <UNDEFINED> instruction: 0x000011be
    4a84:	94270000 	strtls	r0, [r7], #-0
    4a88:	e8000001 	stmda	r0, {r0}
    4a8c:	10000020 	andne	r0, r0, r0, lsr #32
    4a90:	01000000 	mrseq	r0, (UNDEF: 0)
    4a94:	078601be 			; <UNDEFINED> instruction: 0x078601be
    4a98:	af1c0000 	svcge	0x001c0000
    4a9c:	f4000001 	vst4.8	{d0-d3}, [r0], r1
    4aa0:	28000011 	stmdacs	r0, {r0, r4}
    4aa4:	000001a4 	andeq	r0, r0, r4, lsr #3
    4aa8:	0020e829 	eoreq	lr, r0, r9, lsr #16
    4aac:	00001000 	andeq	r1, r0, r0
    4ab0:	01ba2a00 			; <UNDEFINED> instruction: 0x01ba2a00
    4ab4:	00000000 	andeq	r0, r0, r0
    4ab8:	00019427 	andeq	r9, r1, r7, lsr #8
    4abc:	00211800 	eoreq	r1, r1, r0, lsl #16
    4ac0:	00001000 	andeq	r1, r0, r0
    4ac4:	01cc0100 	biceq	r0, ip, r0, lsl #2
    4ac8:	000007c0 	andeq	r0, r0, r0, asr #15
    4acc:	0001af1c 	andeq	sl, r1, ip, lsl pc
    4ad0:	00121400 	andseq	r1, r2, r0, lsl #8
    4ad4:	01a41c00 			; <UNDEFINED> instruction: 0x01a41c00
    4ad8:	123f0000 	eorsne	r0, pc, #0
    4adc:	18290000 	stmdane	r9!, {}	; <UNPREDICTABLE>
    4ae0:	10000021 	andne	r0, r0, r1, lsr #32
    4ae4:	1e000000 	cdpne	0, 0, cr0, cr0, cr0, {0}
    4ae8:	000001ba 			; <UNDEFINED> instruction: 0x000001ba
    4aec:	00001252 	andeq	r1, r0, r2, asr r2
    4af0:	c6270000 	strtgt	r0, [r7], -r0
    4af4:	28000001 	stmdacs	r0, {r0}
    4af8:	1c000021 	stcne	0, cr0, [r0], {33}	; 0x21
    4afc:	01000000 	mrseq	r0, (UNDEF: 0)
    4b00:	07ed01cd 	strbeq	r0, [sp, sp, asr #3]!
    4b04:	d6280000 	strtle	r0, [r8], -r0
    4b08:	29000001 	stmdbcs	r0, {r0}
    4b0c:	00002128 	andeq	r2, r0, r8, lsr #2
    4b10:	0000001c 	andeq	r0, r0, ip, lsl r0
    4b14:	0001df1e 	andeq	sp, r1, lr, lsl pc
    4b18:	00126500 	andseq	r6, r2, r0, lsl #10
    4b1c:	26000000 	strcs	r0, [r0], -r0
    4b20:	000001c6 	andeq	r0, r0, r6, asr #3
    4b24:	0000216c 	andeq	r2, r0, ip, ror #2
    4b28:	000001b8 			; <UNDEFINED> instruction: 0x000001b8
    4b2c:	1a01b201 	bne	71338 <__bss_end+0x6e1bc>
    4b30:	1c000008 	stcne	0, cr0, [r0], {8}
    4b34:	000001d6 	ldrdeq	r0, [r0], -r6
    4b38:	00001290 	muleq	r0, r0, r2
    4b3c:	0001b81d 	andeq	fp, r1, sp, lsl r8
    4b40:	01df1e00 	bicseq	r1, pc, r0, lsl #28
    4b44:	12ae0000 	adcne	r0, lr, #0
    4b48:	00000000 	andeq	r0, r0, r0
    4b4c:	00019427 	andeq	r9, r1, r7, lsr #8
    4b50:	0021a800 	eoreq	sl, r1, r0, lsl #16
    4b54:	00001000 	andeq	r1, r0, r0
    4b58:	01b40100 			; <UNDEFINED> instruction: 0x01b40100
    4b5c:	0000084c 	andeq	r0, r0, ip, asr #16
    4b60:	0001af1c 	andeq	sl, r1, ip, lsl pc
    4b64:	0012e400 	andseq	lr, r2, r0, lsl #8
    4b68:	01a42800 			; <UNDEFINED> instruction: 0x01a42800
    4b6c:	a8290000 	stmdage	r9!, {}	; <UNPREDICTABLE>
    4b70:	10000021 	andne	r0, r0, r1, lsr #32
    4b74:	2a000000 	bcs	4b7c <__bss_end+0x1a00>
    4b78:	000001ba 			; <UNDEFINED> instruction: 0x000001ba
    4b7c:	c6260000 	strtgt	r0, [r6], -r0
    4b80:	d8000001 	stmdale	r0, {r0}
    4b84:	d0000021 	andle	r0, r0, r1, lsr #32
    4b88:	01000001 	tsteq	r0, r1
    4b8c:	087901a7 	ldmdaeq	r9!, {r0, r1, r2, r5, r7, r8}^
    4b90:	d61c0000 	ldrle	r0, [ip], -r0
    4b94:	04000001 	streq	r0, [r0], #-1
    4b98:	1d000013 	stcne	0, cr0, [r0, #-76]	; 0xffffffb4
    4b9c:	000001d0 	ldrdeq	r0, [r0], -r0	; <UNPREDICTABLE>
    4ba0:	0001df1e 	andeq	sp, r1, lr, lsl pc
    4ba4:	00132200 	andseq	r2, r3, r0, lsl #4
    4ba8:	27000000 	strcs	r0, [r0, -r0]
    4bac:	00000194 	muleq	r0, r4, r1
    4bb0:	00002214 	andeq	r2, r0, r4, lsl r2
    4bb4:	00000010 	andeq	r0, r0, r0, lsl r0
    4bb8:	ab01a901 	blge	6efc4 <__bss_end+0x6be48>
    4bbc:	1c000008 	stcne	0, cr0, [r0], {8}
    4bc0:	000001af 	andeq	r0, r0, pc, lsr #3
    4bc4:	00001358 	andeq	r1, r0, r8, asr r3
    4bc8:	0001a428 	andeq	sl, r1, r8, lsr #8
    4bcc:	22142900 	andscs	r2, r4, #0, 18
    4bd0:	00100000 	andseq	r0, r0, r0
    4bd4:	ba2a0000 	blt	a84bdc <__bss_end+0xa81a60>
    4bd8:	00000001 	andeq	r0, r0, r1
    4bdc:	207c2b00 	rsbscs	r2, ip, r0, lsl #22
    4be0:	09920000 	ldmibeq	r2, {}	; <UNPREDICTABLE>
    4be4:	08c20000 	stmiaeq	r2, {}^	; <UNPREDICTABLE>
    4be8:	012c0000 			; <UNDEFINED> instruction: 0x012c0000
    4bec:	70030550 	andvc	r0, r3, r0, asr r5
    4bf0:	0000002e 	andeq	r0, r0, lr, lsr #32
    4bf4:	0020ac2b 	eoreq	sl, r0, fp, lsr #24
    4bf8:	00026f00 	andeq	r6, r2, r0, lsl #30
    4bfc:	0008db00 	andeq	sp, r8, r0, lsl #22
    4c00:	51012c00 	tstpl	r1, r0, lsl #24
    4c04:	2c007802 	stccs	8, cr7, [r0], {2}
    4c08:	3a015201 	bcc	59414 <__bss_end+0x56298>
    4c0c:	20dc2b00 	sbcscs	r2, ip, r0, lsl #22
    4c10:	02e90000 	rsceq	r0, r9, #0
    4c14:	08fb0000 	ldmeq	fp!, {}^	; <UNPREDICTABLE>
    4c18:	012c0000 			; <UNDEFINED> instruction: 0x012c0000
    4c1c:	00780250 	rsbseq	r0, r8, r0, asr r2
    4c20:	0251012c 	subseq	r0, r1, #44, 2
    4c24:	012c007a 			; <UNDEFINED> instruction: 0x012c007a
    4c28:	00790252 	rsbseq	r0, r9, r2, asr r2
    4c2c:	216c2b00 	cmncs	ip, r0, lsl #22
    4c30:	026f0000 	rsbeq	r0, pc, #0
    4c34:	09140000 	ldmdbeq	r4, {}	; <UNPREDICTABLE>
    4c38:	012c0000 			; <UNDEFINED> instruction: 0x012c0000
    4c3c:	00780251 	rsbseq	r0, r8, r1, asr r2
    4c40:	0152012c 	cmpeq	r2, ip, lsr #2
    4c44:	9c2b0040 	stcls	0, cr0, [fp], #-256	; 0xffffff00
    4c48:	e9000021 	stmdb	r0, {r0, r5}
    4c4c:	34000002 	strcc	r0, [r0], #-2
    4c50:	2c000009 	stccs	0, cr0, [r0], {9}
    4c54:	78025001 	stmdavc	r2, {r0, ip, lr}
    4c58:	51012c00 	tstpl	r1, r0, lsl #24
    4c5c:	2c007a02 	stccs	10, cr7, [r0], {2}
    4c60:	79025201 	stmdbvc	r2, {r0, r9, ip, lr}
    4c64:	d82b0000 	stmdale	fp!, {}	; <UNPREDICTABLE>
    4c68:	7e000021 	cdpvc	0, 0, cr0, cr0, cr1, {1}
    4c6c:	48000003 	stmdami	r0, {r0, r1}
    4c70:	2c000009 	stccs	0, cr0, [r0], {9}
    4c74:	78025101 	stmdavc	r2, {r0, r8, ip, lr}
    4c78:	082d0000 	stmdaeq	sp!, {}	; <UNPREDICTABLE>
    4c7c:	e9000022 	stmdb	r0, {r1, r5}
    4c80:	2c000002 	stccs	0, cr0, [r0], {2}
    4c84:	78025001 	stmdavc	r2, {r0, ip, lr}
    4c88:	51012c00 	tstpl	r1, r0, lsl #24
    4c8c:	2c007a02 	stccs	10, cr7, [r0], {2}
    4c90:	79025201 	stmdbvc	r2, {r0, r9, ip, lr}
    4c94:	11000000 	mrsne	r0, (UNDEF: 0)
    4c98:	00000109 	andeq	r0, r0, r9, lsl #2
    4c9c:	00000975 	andeq	r0, r0, r5, ror r9
    4ca0:	00007312 	andeq	r7, r0, r2, lsl r3
    4ca4:	1a00ff00 	bne	448ac <__bss_end+0x41730>
    4ca8:	000017d4 	ldrdeq	r1, [r0], -r4
    4cac:	65010e01 	strvs	r0, [r1, #-3585]	; 0xfffff1ff
    4cb0:	05000009 	streq	r0, [r0, #-9]
    4cb4:	002e7003 	eoreq	r7, lr, r3
    4cb8:	0d8e2e00 	stceq	14, cr2, [lr]
    4cbc:	0d8e0000 	stceq	0, cr0, [lr]
    4cc0:	36040000 	strcc	r0, [r4], -r0
    4cc4:	0007b82e 	andeq	fp, r7, lr, lsr #16
    4cc8:	0007b800 	andeq	fp, r7, r0, lsl #16
    4ccc:	00390400 	eorseq	r0, r9, r0, lsl #8
    4cd0:	00000080 	andeq	r0, r0, r0, lsl #1
    4cd4:	0f880002 	svceq	0x00880002
    4cd8:	01040000 	mrseq	r0, (UNDEF: 4)
    4cdc:	00000fd7 	ldrdeq	r0, [r0], -r7
    4ce0:	00002274 	andeq	r2, r0, r4, ror r2
    4ce4:	00002450 	andeq	r2, r0, r0, asr r4
    4ce8:	68637261 	stmdavs	r3!, {r0, r5, r6, r9, ip, sp, lr}^
    4cec:	6d72612f 	ldfvse	f6, [r2, #-188]!	; 0xffffff44
    4cf0:	63616d2f 	cmnvs	r1, #3008	; 0xbc0
    4cf4:	75732d68 	ldrbvc	r2, [r3, #-3432]!	; 0xfffff298
    4cf8:	2f69786e 	svccs	0x0069786e
    4cfc:	732f6d70 			; <UNDEFINED> instruction: 0x732f6d70
    4d00:	646e6174 	strbtvs	r6, [lr], #-372	; 0xfffffe8c
    4d04:	2e2f7962 	cdpcs	9, 2, cr7, cr15, cr2, {3}
    4d08:	656d2f2e 	strbvs	r2, [sp, #-3886]!	; 0xfffff0d2
    4d0c:	69645f6d 	stmdbvs	r4!, {r0, r2, r3, r5, r6, r8, r9, sl, fp, ip, lr}^
    4d10:	62696c76 	rsbvs	r6, r9, #30208	; 0x7600
    4d14:	2f00532e 	svccs	0x0000532e
    4d18:	656d6f68 	strbvs	r6, [sp, #-3944]!	; 0xfffff098
    4d1c:	72616b2f 	rsbvc	r6, r1, #48128	; 0xbc00
    4d20:	65656c6c 	strbvs	r6, [r5, #-3180]!	; 0xfffff394
    4d24:	776c612f 	strbvc	r6, [ip, -pc, lsr #2]!
    4d28:	656e6e69 	strbvs	r6, [lr, #-3689]!	; 0xfffff197
    4d2c:	50422f72 	subpl	r2, r2, r2, ror pc
    4d30:	324d2d49 	subcc	r2, sp, #4672	; 0x1240
    4d34:	73622d4d 	cmnvc	r2, #4928	; 0x1340
    4d38:	696c2f70 	stmdbvs	ip!, {r4, r5, r6, r8, r9, sl, fp, sp}^
    4d3c:	2d78756e 	cfldr64cs	mvdx7, [r8, #-440]!	; 0xfffffe48
    4d40:	786e7573 	stmdavc	lr!, {r0, r1, r4, r5, r6, r8, sl, ip, sp, lr}^
    4d44:	4e470069 	cdpmi	0, 4, cr0, cr7, cr9, {3}
    4d48:	53412055 	movtpl	r2, #4181	; 0x1055
    4d4c:	322e3220 	eorcc	r3, lr, #32, 4
    4d50:	80010036 	andhi	r0, r1, r6, lsr r0
    4d54:	0000011e 	andeq	r0, r0, lr, lsl r1
    4d58:	0f9c0004 	svceq	0x009c0004
    4d5c:	01040000 	mrseq	r0, (UNDEF: 4)
    4d60:	00000000 	andeq	r0, r0, r0
    4d64:	0018b40c 	andseq	fp, r8, ip, lsl #8
    4d68:	00019600 	andeq	r9, r1, r0, lsl #12
    4d6c:	00245000 	eoreq	r5, r4, r0
    4d70:	00006000 	andeq	r6, r0, r0
    4d74:	00108400 	andseq	r8, r0, r0, lsl #8
    4d78:	06010200 	streq	r0, [r1], -r0, lsl #4
    4d7c:	00000114 	andeq	r0, r0, r4, lsl r1
    4d80:	12080102 	andne	r0, r8, #-2147483648	; 0x80000000
    4d84:	02000001 	andeq	r0, r0, #1
    4d88:	02760502 	rsbseq	r0, r6, #8388608	; 0x800000
    4d8c:	02020000 	andeq	r0, r2, #0
    4d90:	00013607 	andeq	r3, r1, r7, lsl #12
    4d94:	12640300 	rsbne	r0, r4, #0, 6
    4d98:	12020000 	andne	r0, r2, #0
    4d9c:	0000004c 	andeq	r0, r0, ip, asr #32
    4da0:	69050404 	stmdbvs	r5, {r2, sl}
    4da4:	0300746e 	movweq	r7, #1134	; 0x46e
    4da8:	00000a80 	andeq	r0, r0, r0, lsl #21
    4dac:	005e1302 	subseq	r1, lr, r2, lsl #6
    4db0:	04020000 	streq	r0, [r2], #-0
    4db4:	0001e607 	andeq	lr, r1, r7, lsl #12
    4db8:	05080200 	streq	r0, [r8, #-512]	; 0xfffffe00
    4dbc:	00000236 	andeq	r0, r0, r6, lsr r2
    4dc0:	dc070802 	stcle	8, cr0, [r7], {2}
    4dc4:	02000001 	andeq	r0, r0, #1
    4dc8:	022d0704 	eoreq	r0, sp, #4, 14	; 0x100000
    4dcc:	01020000 	mrseq	r0, (UNDEF: 2)
    4dd0:	00011b08 	andeq	r1, r1, r8, lsl #22
    4dd4:	07040200 	streq	r0, [r4, -r0, lsl #4]
    4dd8:	000001e1 	andeq	r0, r0, r1, ror #3
    4ddc:	00188805 	andseq	r8, r8, r5, lsl #16
    4de0:	500e0100 	andpl	r0, lr, r0, lsl #2
    4de4:	0c000024 	stceq	0, cr0, [r0], {36}	; 0x24
    4de8:	01000000 	mrseq	r0, (UNDEF: 0)
    4dec:	0000b19c 	muleq	r0, ip, r1
    4df0:	245c0600 	ldrbcs	r0, [ip], #-1536	; 0xfffffa00
    4df4:	01160000 	tsteq	r6, r0
    4df8:	01070000 	mrseq	r0, (UNDEF: 7)
    4dfc:	70030550 	andvc	r0, r3, r0, asr r5
    4e00:	0000002d 	andeq	r0, r0, sp, lsr #32
    4e04:	13440800 	movtne	r0, #18432	; 0x4800
    4e08:	13010000 	movwne	r0, #4096	; 0x1000
    4e0c:	00000053 	andeq	r0, r0, r3, asr r0
    4e10:	0000245c 	andeq	r2, r0, ip, asr r4
    4e14:	00000054 	andeq	r0, r0, r4, asr r0
    4e18:	01169c01 	tsteq	r6, r1, lsl #24
    4e1c:	a4090000 	strge	r0, [r9], #-0
    4e20:	01000018 	tsteq	r0, r8, lsl r0
    4e24:	00005313 	andeq	r5, r0, r3, lsl r3
    4e28:	00137800 	andseq	r7, r3, r0, lsl #16
    4e2c:	189b0900 	ldmne	fp, {r8, fp}
    4e30:	13010000 	movwne	r0, #4096	; 0x1000
    4e34:	00000053 	andeq	r0, r0, r3, asr r0
    4e38:	000013af 	andeq	r1, r0, pc, lsr #7
    4e3c:	0018ad0a 	andseq	sl, r8, sl, lsl #26
    4e40:	53150100 	tstpl	r5, #0, 2
    4e44:	db000000 	blle	4e4c <__bss_end+0x1cd0>
    4e48:	0a000013 	beq	4e9c <__bss_end+0x1d20>
    4e4c:	00001893 	muleq	r0, r3, r8
    4e50:	00531601 	subseq	r1, r3, r1, lsl #12
    4e54:	14130000 	ldrne	r0, [r3], #-0
    4e58:	e40a0000 	str	r0, [sl], #-0
    4e5c:	01000018 	tsteq	r0, r8, lsl r0
    4e60:	00004117 	andeq	r4, r0, r7, lsl r1
    4e64:	00143e00 	andseq	r3, r4, r0, lsl #28
    4e68:	fd0b0000 	stc2	0, cr0, [fp, #-0]
    4e6c:	fd00000a 	stc2	0, cr0, [r0, #-40]	; 0xffffffd8
    4e70:	0300000a 	movweq	r0, #10
    4e74:	02fb0018 	rscseq	r0, fp, #24
    4e78:	00040000 	andeq	r0, r4, r0
    4e7c:	00001052 	andeq	r1, r0, r2, asr r0
    4e80:	00000104 	andeq	r0, r0, r4, lsl #2
    4e84:	fe0c0000 	cdp2	0, 0, cr0, cr12, cr0, {0}
    4e88:	96000018 			; <UNDEFINED> instruction: 0x96000018
    4e8c:	b0000001 	andlt	r0, r0, r1
    4e90:	80000024 	andhi	r0, r0, r4, lsr #32
    4e94:	18000001 	stmdane	r0, {r0}
    4e98:	02000011 	andeq	r0, r0, #17
    4e9c:	01140601 	tsteq	r4, r1, lsl #12
    4ea0:	01020000 	mrseq	r0, (UNDEF: 2)
    4ea4:	00011208 	andeq	r1, r1, r8, lsl #4
    4ea8:	05020200 	streq	r0, [r2, #-512]	; 0xfffffe00
    4eac:	00000276 	andeq	r0, r0, r6, ror r2
    4eb0:	36070202 	strcc	r0, [r7], -r2, lsl #4
    4eb4:	03000001 	movweq	r0, #1
    4eb8:	00001264 	andeq	r1, r0, r4, ror #4
    4ebc:	004c1202 	subeq	r1, ip, r2, lsl #4
    4ec0:	04040000 	streq	r0, [r4], #-0
    4ec4:	746e6905 	strbtvc	r6, [lr], #-2309	; 0xfffff6fb
    4ec8:	0a800300 	beq	fe005ad0 <__bss_end+0xfe002954>
    4ecc:	13020000 	movwne	r0, #8192	; 0x2000
    4ed0:	0000005e 	andeq	r0, r0, lr, asr r0
    4ed4:	e6070402 	str	r0, [r7], -r2, lsl #8
    4ed8:	02000001 	andeq	r0, r0, #1
    4edc:	02360508 	eorseq	r0, r6, #8, 10	; 0x2000000
    4ee0:	08020000 	stmdaeq	r2, {}	; <UNPREDICTABLE>
    4ee4:	0001dc07 	andeq	sp, r1, r7, lsl #24
    4ee8:	00530500 	subseq	r0, r3, r0, lsl #10
    4eec:	04020000 	streq	r0, [r2], #-0
    4ef0:	00022d07 	andeq	r2, r2, r7, lsl #26
    4ef4:	19960600 	ldmibne	r6, {r9, sl}
    4ef8:	5e040000 	cdppl	0, 0, cr0, cr4, cr0, {0}
    4efc:	03000000 	movweq	r0, #0
    4f00:	00012c18 	andeq	r2, r1, r8, lsl ip
    4f04:	1ad60700 	bne	ff586b0c <__bss_end+0xff583990>
    4f08:	07320000 	ldreq	r0, [r2, -r0]!
    4f0c:	00001ae8 	andeq	r1, r0, r8, ror #21
    4f10:	19660733 	stmdbne	r6!, {r0, r1, r4, r5, r8, r9, sl}^
    4f14:	07000000 	streq	r0, [r0, -r0]
    4f18:	00001a65 	andeq	r1, r0, r5, ror #20
    4f1c:	1ab2073e 	bne	fec86c1c <__bss_end+0xfec83aa0>
    4f20:	07400000 	strbeq	r0, [r0, -r0]
    4f24:	00001b2f 	andeq	r1, r0, pc, lsr #22
    4f28:	1b490751 	blne	1246c74 <__bss_end+0x1243af8>
    4f2c:	07000000 	streq	r0, [r0, -r0]
    4f30:	00001b11 	andeq	r1, r0, r1, lsl fp
    4f34:	1b200700 	blne	806b3c <__bss_end+0x8039c0>
    4f38:	07000000 	streq	r0, [r0, -r0]
    4f3c:	00001a53 	andeq	r1, r0, r3, asr sl
    4f40:	192a0767 	stmdbne	sl!, {r0, r1, r2, r5, r6, r8, r9, sl}
    4f44:	07680000 	strbeq	r0, [r8, -r0]!
    4f48:	0000193e 	andeq	r1, r0, lr, lsr r9
    4f4c:	19520700 	ldmdbne	r2, {r8, r9, sl}^
    4f50:	07000000 	streq	r0, [r0, -r0]
    4f54:	00001a76 	andeq	r1, r0, r6, ror sl
    4f58:	1a8a0769 	bne	fe286d04 <__bss_end+0xfe283b88>
    4f5c:	07000000 	streq	r0, [r0, -r0]
    4f60:	00001a9e 	muleq	r0, lr, sl
    4f64:	19a90700 	stmibne	r9!, {r8, r9, sl}
    4f68:	072b0000 	streq	r0, [fp, -r0]!
    4f6c:	000019ba 			; <UNDEFINED> instruction: 0x000019ba
    4f70:	19cb072f 	stmibne	fp, {r0, r1, r2, r3, r5, r8, r9, sl}^
    4f74:	07000000 	streq	r0, [r0, -r0]
    4f78:	000019dc 	ldrdeq	r1, [r0], -ip
    4f7c:	19ed0700 	stmibne	sp!, {r8, r9, sl}^
    4f80:	07000000 	streq	r0, [r0, -r0]
    4f84:	000019fe 	strdeq	r1, [r0], -lr
    4f88:	1a0f0700 	bne	3c6b90 <__bss_end+0x3c3a14>
    4f8c:	07310000 	ldreq	r0, [r1, -r0]!
    4f90:	00001a20 	andeq	r1, r0, r0, lsr #20
    4f94:	1a310700 	bne	c46b9c <__bss_end+0xc43a20>
    4f98:	07000000 	streq	r0, [r0, -r0]
    4f9c:	00001a42 	andeq	r1, r0, r2, asr #20
    4fa0:	09060000 	stmdbeq	r6, {}	; <UNPREDICTABLE>
    4fa4:	04000002 	streq	r0, [r0], #-2
    4fa8:	0000005e 	andeq	r0, r0, lr, asr r0
    4fac:	01bb8904 			; <UNDEFINED> instruction: 0x01bb8904
    4fb0:	d4070000 	strle	r0, [r7], #-0
    4fb4:	00000000 	andeq	r0, r0, r0
    4fb8:	00012907 	andeq	r2, r1, r7, lsl #18
    4fbc:	e1070100 	mrs	r0, (UNDEF: 23)
    4fc0:	02000000 	andeq	r0, r0, #0
    4fc4:	00010607 	andeq	r0, r1, r7, lsl #12
    4fc8:	51070300 	mrspl	r0, SP_und
    4fcc:	04000002 	streq	r0, [r0], #-2
    4fd0:	0001d007 	andeq	sp, r1, r7
    4fd4:	89070500 	stmdbhi	r7, {r8, sl}
    4fd8:	06000001 	streq	r0, [r0], -r1
    4fdc:	0001f307 	andeq	pc, r1, r7, lsl #6
    4fe0:	c8070700 	stmdagt	r7, {r8, r9, sl}
    4fe4:	08000000 	stmdaeq	r0, {}	; <UNPREDICTABLE>
    4fe8:	0000fb07 	andeq	pc, r0, r7, lsl #22
    4fec:	c5070900 	strgt	r0, [r7, #-2304]	; 0xfffff700
    4ff0:	0a000001 	beq	4ffc <__bss_end+0x1e80>
    4ff4:	00026b07 	andeq	r6, r2, r7, lsl #22
    4ff8:	03070b00 	movweq	r0, #31488	; 0x7b00
    4ffc:	0c000002 	stceq	0, cr0, [r0], {2}
    5000:	00021f07 	andeq	r1, r2, r7, lsl #30
    5004:	18070d00 	stmdane	r7, {r8, sl, fp}
    5008:	0e000003 	cdpeq	0, 0, cr0, cr0, cr3, {0}
    500c:	00025d07 	andeq	r5, r2, r7, lsl #26
    5010:	e8070f00 	stmda	r7, {r8, r9, sl, fp}
    5014:	10000002 	andne	r0, r0, r2
    5018:	00024407 	andeq	r4, r2, r7, lsl #8
    501c:	02071100 	andeq	r1, r7, #0, 2
    5020:	12000003 	andne	r0, r0, #3
    5024:	0000ee07 	andeq	lr, r0, r7, lsl #28
    5028:	cd071300 	stcgt	3, cr1, [r7, #-0]
    502c:	14000002 	strne	r0, [r0], #-2
    5030:	08010200 	stmdaeq	r1, {r9}
    5034:	0000011b 	andeq	r0, r0, fp, lsl r1
    5038:	e1070402 	tst	r7, r2, lsl #8
    503c:	08000001 	stmdaeq	r0, {r0}
    5040:	197a0904 	ldmdbne	sl!, {r2, r8, fp}^
    5044:	22010000 	andcs	r0, r1, #0
    5048:	00000041 	andeq	r0, r0, r1, asr #32
    504c:	000024b0 			; <UNDEFINED> instruction: 0x000024b0
    5050:	00000090 	muleq	r0, r0, r0
    5054:	02059c01 	andeq	r9, r5, #256	; 0x100
    5058:	690a0000 	stmdbvs	sl, {}	; <UNPREDICTABLE>
    505c:	53240100 			; <UNDEFINED> instruction: 0x53240100
    5060:	8c000000 	stchi	0, cr0, [r0], {-0}
    5064:	0b000014 	bleq	50bc <__bss_end+0x1f40>
    5068:	00002530 	andeq	r2, r0, r0, lsr r5
    506c:	000002f3 	strdeq	r0, [r0], -r3
    5070:	0550010c 	ldrbeq	r0, [r0, #-268]	; 0xfffffef4
    5074:	002d8c03 	eoreq	r8, sp, r3, lsl #24
    5078:	09000000 	stmdbeq	r0, {}	; <UNPREDICTABLE>
    507c:	000018f1 	strdeq	r1, [r0], -r1	; <UNPREDICTABLE>
    5080:	00415701 	subeq	r5, r1, r1, lsl #14
    5084:	25400000 	strbcs	r0, [r0, #-0]
    5088:	00500000 	subseq	r0, r0, r0
    508c:	9c010000 	stcls	0, cr0, [r1], {-0}
    5090:	0000023a 	andeq	r0, r0, sl, lsr r2
    5094:	0100690a 	tsteq	r0, sl, lsl #18
    5098:	00004c59 	andeq	r4, r0, r9, asr ip
    509c:	0014fa00 	andseq	pc, r4, r0, lsl #20
    50a0:	1ac40d00 	bne	ff1084a8 <__bss_end+0xff10532c>
    50a4:	5a010000 	bpl	450ac <__bss_end+0x41f30>
    50a8:	00000073 	andeq	r0, r0, r3, ror r0
    50ac:	007c9102 	rsbseq	r9, ip, r2, lsl #2
    50b0:	00198709 	andseq	r8, r9, r9, lsl #14
    50b4:	41710100 	cmnmi	r1, r0, lsl #2
    50b8:	90000000 	andls	r0, r0, r0
    50bc:	4c000025 	stcmi	0, cr0, [r0], {37}	; 0x25
    50c0:	01000000 	mrseq	r0, (UNDEF: 0)
    50c4:	0002819c 	muleq	r2, ip, r1
    50c8:	72730e00 	rsbsvc	r0, r3, #0, 28
    50cc:	71010063 	tstvc	r1, r3, rrx
    50d0:	0000007f 	andeq	r0, r0, pc, ror r0
    50d4:	0000153e 	andeq	r1, r0, lr, lsr r5
    50d8:	001b420f 	andseq	r4, fp, pc, lsl #4
    50dc:	53730100 	cmnpl	r3, #0, 2
    50e0:	5f000000 	svcpl	0x00000000
    50e4:	0f000015 	svceq	0x00000015
    50e8:	00001acf 	andeq	r1, r0, pc, asr #21
    50ec:	00537401 	subseq	r7, r3, r1, lsl #8
    50f0:	15910000 	ldrne	r0, [r1]
    50f4:	09000000 	stmdbeq	r0, {}	; <UNPREDICTABLE>
    50f8:	00001b03 	andeq	r1, r0, r3, lsl #22
    50fc:	00419301 	subeq	r9, r1, r1, lsl #6
    5100:	25dc0000 	ldrbcs	r0, [ip]
    5104:	00540000 	subseq	r0, r4, r0
    5108:	9c010000 	stcls	0, cr0, [r1], {-0}
    510c:	000002d7 	ldrdeq	r0, [r0], -r7
    5110:	6372730e 	cmnvs	r2, #939524096	; 0x38000000
    5114:	7f930100 	svcvc	0x00930100
    5118:	b4000000 	strlt	r0, [r0], #-0
    511c:	0f000015 	svceq	0x00000015
    5120:	000018ea 	andeq	r1, r0, sl, ror #17
    5124:	00419501 	subeq	r9, r1, r1, lsl #10
    5128:	15d50000 	ldrbne	r0, [r5]
    512c:	420f0000 	andmi	r0, pc, #0
    5130:	0100001b 	tsteq	r0, fp, lsl r0
    5134:	00005396 	muleq	r0, r6, r3
    5138:	00160700 	andseq	r0, r6, r0, lsl #14
    513c:	1acf0f00 	bne	ff3c8d44 <__bss_end+0xff3c5bc8>
    5140:	97010000 	strls	r0, [r1, -r0]
    5144:	00000053 	andeq	r0, r0, r3, asr r0
    5148:	00001635 	andeq	r1, r0, r5, lsr r6
    514c:	1afa0d00 	bne	ffe88554 <__bss_end+0xffe853d8>
    5150:	14010000 	strne	r0, [r1], #-0
    5154:	000001c9 	andeq	r0, r0, r9, asr #3
    5158:	2f700305 	svccs	0x00700305
    515c:	5a100000 	bpl	405164 <__bss_end+0x401fe8>
    5160:	0100001b 	tsteq	r0, fp, lsl r0
    5164:	0001c915 	andeq	ip, r1, r5, lsl r9
    5168:	0afd1100 	beq	fff49570 <__bss_end+0xfff463f4>
    516c:	0afd0000 	beq	fff45174 <__bss_end+0xfff41ff8>
    5170:	18050000 	stmdane	r5, {}	; <UNPREDICTABLE>
    5174:	00011d00 	andeq	r1, r1, r0, lsl #26
    5178:	3e000400 	cfcpyscc	mvf0, mvf0
    517c:	04000011 	streq	r0, [r0], #-17	; 0xffffffef
    5180:	00000001 	andeq	r0, r0, r1
    5184:	1b8e0c00 	blne	fe38818c <__bss_end+0xfe385010>
    5188:	01960000 	orrseq	r0, r6, r0
    518c:	26300000 	ldrtcs	r0, [r0], -r0
    5190:	00580000 	subseq	r0, r8, r0
    5194:	123e0000 	eorsne	r0, lr, #0
    5198:	01020000 	mrseq	r0, (UNDEF: 2)
    519c:	00011406 	andeq	r1, r1, r6, lsl #8
    51a0:	08010200 	stmdaeq	r1, {r9}
    51a4:	00000112 	andeq	r0, r0, r2, lsl r1
    51a8:	76050202 	strvc	r0, [r5], -r2, lsl #4
    51ac:	02000002 	andeq	r0, r0, #2
    51b0:	01360702 	teqeq	r6, r2, lsl #14
    51b4:	64030000 	strvs	r0, [r3], #-0
    51b8:	02000012 	andeq	r0, r0, #18
    51bc:	00004c12 	andeq	r4, r0, r2, lsl ip
    51c0:	05040400 	streq	r0, [r4, #-1024]	; 0xfffffc00
    51c4:	00746e69 	rsbseq	r6, r4, r9, ror #28
    51c8:	000a8003 	andeq	r8, sl, r3
    51cc:	5e130200 	cdppl	2, 1, cr0, cr3, cr0, {0}
    51d0:	02000000 	andeq	r0, r0, #0
    51d4:	01e60704 	mvneq	r0, r4, lsl #14
    51d8:	08020000 	stmdaeq	r2, {}	; <UNPREDICTABLE>
    51dc:	00023605 	andeq	r3, r2, r5, lsl #12
    51e0:	07080200 	streq	r0, [r8, -r0, lsl #4]
    51e4:	000001dc 	ldrdeq	r0, [r0], -ip
    51e8:	2d070402 	cfstrscs	mvf0, [r7, #-8]
    51ec:	05000002 	streq	r0, [r0, #-2]
    51f0:	00001b83 	andeq	r1, r0, r3, lsl #23
    51f4:	1603025c 			; <UNDEFINED> instruction: 0x1603025c
    51f8:	00000094 	muleq	r0, r4, r0
    51fc:	001b7406 	andseq	r7, fp, r6, lsl #8
    5200:	94170300 	ldrls	r0, [r7], #-768	; 0xfffffd00
    5204:	00000000 	andeq	r0, r0, r0
    5208:	00530700 	subseq	r0, r3, r0, lsl #14
    520c:	00a40000 	adceq	r0, r4, r0
    5210:	73080000 	movwvc	r0, #32768	; 0x8000
    5214:	96000000 	strls	r0, [r0], -r0
    5218:	08010200 	stmdaeq	r1, {r9}
    521c:	0000011b 	andeq	r0, r0, fp, lsl r1
    5220:	e1070402 	tst	r7, r2, lsl #8
    5224:	09000001 	stmdbeq	r0, {r0}
    5228:	00001bbb 			; <UNDEFINED> instruction: 0x00001bbb
    522c:	00411a01 	subeq	r1, r1, r1, lsl #20
    5230:	26300000 	ldrtcs	r0, [r0], -r0
    5234:	002c0000 	eoreq	r0, ip, r0
    5238:	9c010000 	stcls	0, cr0, [r1], {-0}
    523c:	000000e8 	andeq	r0, r0, r8, ror #1
    5240:	001b820a 	andseq	r8, fp, sl, lsl #4
    5244:	e81a0100 	ldmda	sl, {r8}
    5248:	73000000 	movwvc	r0, #0
    524c:	0b000016 	bleq	52ac <__bss_end+0x2130>
    5250:	1c010069 	stcne	0, cr0, [r1], {105}	; 0x69
    5254:	0000004c 	andeq	r0, r0, ip, asr #32
    5258:	000016a1 	andeq	r1, r0, r1, lsr #13
    525c:	7a040c00 	bvc	108264 <__bss_end+0x1050e8>
    5260:	0d000000 	stceq	0, cr0, [r0, #-0]
    5264:	00001b63 	andeq	r1, r0, r3, ror #22
    5268:	00413001 	subeq	r3, r1, r1
    526c:	265c0000 	ldrbcs	r0, [ip], -r0
    5270:	002c0000 	eoreq	r0, ip, r0
    5274:	9c010000 	stcls	0, cr0, [r1], {-0}
    5278:	001b820a 	andseq	r8, fp, sl, lsl #4
    527c:	e8300100 	ldmda	r0!, {r8}
    5280:	b5000000 	strlt	r0, [r0, #-0]
    5284:	0b000016 	bleq	52e4 <__bss_end+0x2168>
    5288:	32010069 	andcc	r0, r1, #105	; 0x69
    528c:	0000004c 	andeq	r0, r0, ip, asr #32
    5290:	000016e3 	andeq	r1, r0, r3, ror #13
    5294:	04470000 	strbeq	r0, [r7], #-0
    5298:	00040000 	andeq	r0, r4, r0
    529c:	00001202 	andeq	r1, r0, r2, lsl #4
    52a0:	00000104 	andeq	r0, r0, r4, lsl #2
    52a4:	6f0c0000 	svcvs	0x000c0000
    52a8:	9600001c 			; <UNDEFINED> instruction: 0x9600001c
    52ac:	88000001 	stmdahi	r0, {r0}
    52b0:	e0000026 	and	r0, r0, r6, lsr #32
    52b4:	e3000001 	movw	r0, #1
    52b8:	02000012 	andeq	r0, r0, #18
    52bc:	01140601 	tsteq	r4, r1, lsl #12
    52c0:	01020000 	mrseq	r0, (UNDEF: 2)
    52c4:	00011208 	andeq	r1, r1, r8, lsl #4
    52c8:	05020200 	streq	r0, [r2, #-512]	; 0xfffffe00
    52cc:	00000276 	andeq	r0, r0, r6, ror r2
    52d0:	36070202 	strcc	r0, [r7], -r2, lsl #4
    52d4:	03000001 	movweq	r0, #1
    52d8:	00001264 	andeq	r1, r0, r4, ror #4
    52dc:	004c1202 	subeq	r1, ip, r2, lsl #4
    52e0:	04040000 	streq	r0, [r4], #-0
    52e4:	746e6905 	strbtvc	r6, [lr], #-2309	; 0xfffff6fb
    52e8:	0a800300 	beq	fe005ef0 <__bss_end+0xfe002d74>
    52ec:	13020000 	movwne	r0, #8192	; 0x2000
    52f0:	0000005e 	andeq	r0, r0, lr, asr r0
    52f4:	e6070402 	str	r0, [r7], -r2, lsl #8
    52f8:	02000001 	andeq	r0, r0, #1
    52fc:	02360508 	eorseq	r0, r6, #8, 10	; 0x2000000
    5300:	08020000 	stmdaeq	r2, {}	; <UNPREDICTABLE>
    5304:	0001dc07 	andeq	sp, r1, r7, lsl #24
    5308:	00530500 	subseq	r0, r3, r0, lsl #10
    530c:	53060000 	movwpl	r0, #24576	; 0x6000
    5310:	88000000 	stmdahi	r0, {}	; <UNPREDICTABLE>
    5314:	07000000 	streq	r0, [r0, -r0]
    5318:	00000088 	andeq	r0, r0, r8, lsl #1
    531c:	04020003 	streq	r0, [r2], #-3
    5320:	00022d07 	andeq	r2, r2, r7, lsl #26
    5324:	00530600 	subseq	r0, r3, r0, lsl #12
    5328:	009f0000 	addseq	r0, pc, r0
    532c:	88070000 	stmdahi	r7, {}	; <UNPREDICTABLE>
    5330:	01000000 	mrseq	r0, (UNDEF: 0)
    5334:	1d4a0800 	stclne	8, cr0, [sl, #-0]
    5338:	03bc0000 			; <UNDEFINED> instruction: 0x03bc0000
    533c:	00026815 	andeq	r6, r2, r5, lsl r8
    5340:	1bdf0900 	blne	ff7c7748 <__bss_end+0xff7c45cc>
    5344:	18030000 	stmdane	r3, {}	; <UNPREDICTABLE>
    5348:	00000073 	andeq	r0, r0, r3, ror r0
    534c:	1da80900 	stcne	9, cr0, [r8]
    5350:	19030000 	stmdbne	r3, {}	; <UNPREDICTABLE>
    5354:	00000073 	andeq	r0, r0, r3, ror r0
    5358:	0d340904 	ldceq	9, cr0, [r4, #-16]!
    535c:	1a030000 	bne	c5364 <__bss_end+0xc21e8>
    5360:	00000268 	andeq	r0, r0, r8, ror #4
    5364:	1ded0908 	stclne	9, cr0, [sp, #32]!
    5368:	1c030000 	stcne	0, cr0, [r3], {-0}
    536c:	00000073 	andeq	r0, r0, r3, ror r0
    5370:	1be60910 	blne	ff9877b8 <__bss_end+0xff98463c>
    5374:	1d030000 	stcne	0, cr0, [r3, #-0]
    5378:	00000073 	andeq	r0, r0, r3, ror r0
    537c:	1c140914 	ldcne	9, cr0, [r4], {20}
    5380:	1e030000 	cdpne	0, 0, cr0, cr3, cr0, {0}
    5384:	00000073 	andeq	r0, r0, r3, ror r0
    5388:	0d3e0918 	ldceq	9, cr0, [lr, #-96]!	; 0xffffffa0
    538c:	1f030000 	svcne	0x00030000
    5390:	00000073 	andeq	r0, r0, r3, ror r0
    5394:	1c0c091c 	stcne	9, cr0, [ip], {28}
    5398:	21030000 	mrscs	r0, (UNDEF: 3)
    539c:	00000073 	andeq	r0, r0, r3, ror r0
    53a0:	1d7c0920 	ldclne	9, cr0, [ip, #-128]!	; 0xffffff80
    53a4:	22030000 	andcs	r0, r3, #0
    53a8:	00000073 	andeq	r0, r0, r3, ror r0
    53ac:	1daf0924 	stcne	9, cr0, [pc, #144]!	; 5444 <__bss_end+0x22c8>
    53b0:	23030000 	movwcs	r0, #12288	; 0x3000
    53b4:	00000073 	andeq	r0, r0, r3, ror r0
    53b8:	0d480928 	stcleq	9, cr0, [r8, #-160]	; 0xffffff60
    53bc:	24030000 	strcs	r0, [r3], #-0
    53c0:	00000073 	andeq	r0, r0, r3, ror r0
    53c4:	1cd4092c 	ldclne	9, cr0, [r4], {44}	; 0x2c
    53c8:	26030000 	strcs	r0, [r3], -r0
    53cc:	00000073 	andeq	r0, r0, r3, ror r0
    53d0:	1c270930 	stcne	9, cr0, [r7], #-192	; 0xffffff40
    53d4:	27030000 	strcs	r0, [r3, -r0]
    53d8:	00000073 	andeq	r0, r0, r3, ror r0
    53dc:	1c420934 	mcrrne	9, 3, r0, r2, cr4
    53e0:	28030000 	stmdacs	r3, {}	; <UNPREDICTABLE>
    53e4:	00000073 	andeq	r0, r0, r3, ror r0
    53e8:	0d520938 	ldcleq	9, cr0, [r2, #-224]	; 0xffffff20
    53ec:	29030000 	stmdbcs	r3, {}	; <UNPREDICTABLE>
    53f0:	00000073 	andeq	r0, r0, r3, ror r0
    53f4:	1d99093c 	ldcne	9, cr0, [r9, #240]	; 0xf0
    53f8:	2b030000 	blcs	c5400 <__bss_end+0xc2284>
    53fc:	00000073 	andeq	r0, r0, r3, ror r0
    5400:	1dba0940 	ldcne	9, cr0, [sl, #256]!	; 0x100
    5404:	2c030000 	stccs	0, cr0, [r3], {-0}
    5408:	00000073 	andeq	r0, r0, r3, ror r0
    540c:	0d5c0944 	ldcleq	9, cr0, [ip, #-272]	; 0xfffffef0
    5410:	2d030000 	stccs	0, cr0, [r3, #-0]
    5414:	0000026d 	andeq	r0, r0, sp, ror #4
    5418:	1df50948 	ldclne	9, cr0, [r5, #288]!	; 0x120
    541c:	2f030000 	svccs	0x00030000
    5420:	00000073 	andeq	r0, r0, r3, ror r0
    5424:	1c9b0950 	ldcne	9, cr0, [fp], {80}	; 0x50
    5428:	30030000 	andcc	r0, r3, r0
    542c:	00000073 	andeq	r0, r0, r3, ror r0
    5430:	1ca60954 	stcne	9, cr0, [r6], #336	; 0x150
    5434:	31030000 	mrscc	r0, (UNDEF: 3)
    5438:	00000073 	andeq	r0, r0, r3, ror r0
    543c:	0d660958 	stcleq	9, cr0, [r6, #-352]!	; 0xfffffea0
    5440:	32030000 	andcc	r0, r3, #0
    5444:	00000073 	andeq	r0, r0, r3, ror r0
    5448:	1c1f095c 	ldcne	9, cr0, [pc], {92}	; 0x5c
    544c:	34030000 	strcc	r0, [r3], #-0
    5450:	00000073 	andeq	r0, r0, r3, ror r0
    5454:	1d710960 	ldclne	9, cr0, [r1, #-384]!	; 0xfffffe80
    5458:	35030000 	strcc	r0, [r3, #-0]
    545c:	00000073 	andeq	r0, r0, r3, ror r0
    5460:	1ddb0964 	ldclne	9, cr0, [fp, #400]	; 0x190
    5464:	36030000 	strcc	r0, [r3], -r0
    5468:	00000073 	andeq	r0, r0, r3, ror r0
    546c:	0d700968 	ldcleq	9, cr0, [r0, #-416]!	; 0xfffffe60
    5470:	37030000 	strcc	r0, [r3, -r0]
    5474:	00000282 	andeq	r0, r0, r2, lsl #5
    5478:	1da1096c 	stcne	9, cr0, [r1, #432]!	; 0x1b0
    547c:	39030000 	stmdbcc	r3, {}	; <UNPREDICTABLE>
    5480:	00000073 	andeq	r0, r0, r3, ror r0
    5484:	1dd30980 	ldclne	9, cr0, [r3, #512]	; 0x200
    5488:	3a030000 	bcc	c5490 <__bss_end+0xc2314>
    548c:	00000073 	andeq	r0, r0, r3, ror r0
    5490:	1bd70984 	blne	ff5c7aa8 <__bss_end+0xff5c492c>
    5494:	3b030000 	blcc	c549c <__bss_end+0xc2320>
    5498:	00000073 	andeq	r0, r0, r3, ror r0
    549c:	1d920988 	ldcne	9, cr0, [r2, #544]	; 0x220
    54a0:	3c030000 	stccc	0, cr0, [r3], {-0}
    54a4:	00000073 	andeq	r0, r0, r3, ror r0
    54a8:	0d7a098c 	ldcleq	9, cr0, [sl, #-560]!	; 0xfffffdd0
    54ac:	3f030000 	svccc	0x00030000
    54b0:	00000287 	andeq	r0, r0, r7, lsl #5
    54b4:	1d260990 	stcne	9, cr0, [r6, #-576]!	; 0xfffffdc0
    54b8:	42030000 	andmi	r0, r3, #0
    54bc:	00000073 	andeq	r0, r0, r3, ror r0
    54c0:	1bc909a0 	blne	ff247b48 <__bss_end+0xff2449cc>
    54c4:	43030000 	movwmi	r0, #12288	; 0x3000
    54c8:	00000073 	andeq	r0, r0, r3, ror r0
    54cc:	1cca09a4 	stclne	9, cr0, [sl], {164}	; 0xa4
    54d0:	44030000 	strmi	r0, [r3], #-0
    54d4:	0000028c 	andeq	r0, r0, ip, lsl #5
    54d8:	1bf109a8 	blne	ffc47b80 <__bss_end+0xffc44a04>
    54dc:	47030000 	strmi	r0, [r3, -r0]
    54e0:	00000073 	andeq	r0, r0, r3, ror r0
    54e4:	1dc509b0 	stclne	9, cr0, [r5, #704]	; 0x2c0
    54e8:	48030000 	stmdami	r3, {}	; <UNPREDICTABLE>
    54ec:	00000073 	andeq	r0, r0, r3, ror r0
    54f0:	1cdc09b4 	ldclne	9, cr0, [ip], {180}	; 0xb4
    54f4:	49030000 	stmdbmi	r3, {}	; <UNPREDICTABLE>
    54f8:	00000073 	andeq	r0, r0, r3, ror r0
    54fc:	8f0500b8 	svchi	0x000500b8
    5500:	05000000 	streq	r0, [r0, #-0]
    5504:	0000008f 	andeq	r0, r0, pc, lsl #1
    5508:	00005306 	andeq	r5, r0, r6, lsl #6
    550c:	00028200 	andeq	r8, r2, r0, lsl #4
    5510:	00880700 	addeq	r0, r8, r0, lsl #14
    5514:	00040000 	andeq	r0, r4, r0
    5518:	00027205 	andeq	r7, r2, r5, lsl #4
    551c:	00780500 	rsbseq	r0, r8, r0, lsl #10
    5520:	8f050000 	svchi	0x00050000
    5524:	03000000 	movweq	r0, #0
    5528:	00001c32 	andeq	r1, r0, r2, lsr ip
    552c:	009f4b03 	addseq	r4, pc, r3, lsl #22
    5530:	090a0000 	stmdbeq	sl, {}	; <UNPREDICTABLE>
    5534:	04000002 	streq	r0, [r0], #-2
    5538:	0000005e 	andeq	r0, r0, lr, asr r0
    553c:	032b8904 			; <UNDEFINED> instruction: 0x032b8904
    5540:	d40b0000 	strle	r0, [fp], #-0
    5544:	00000000 	andeq	r0, r0, r0
    5548:	0001290b 	andeq	r2, r1, fp, lsl #18
    554c:	e10b0100 	mrs	r0, (UNDEF: 27)
    5550:	02000000 	andeq	r0, r0, #0
    5554:	0001060b 	andeq	r0, r1, fp, lsl #12
    5558:	510b0300 	mrspl	r0, (UNDEF: 59)
    555c:	04000002 	streq	r0, [r0], #-2
    5560:	0001d00b 	andeq	sp, r1, fp
    5564:	890b0500 	stmdbhi	fp, {r8, sl}
    5568:	06000001 	streq	r0, [r0], -r1
    556c:	0001f30b 	andeq	pc, r1, fp, lsl #6
    5570:	c80b0700 	stmdagt	fp, {r8, r9, sl}
    5574:	08000000 	stmdaeq	r0, {}	; <UNPREDICTABLE>
    5578:	0000fb0b 	andeq	pc, r0, fp, lsl #22
    557c:	c50b0900 	strgt	r0, [fp, #-2304]	; 0xfffff700
    5580:	0a000001 	beq	558c <__bss_end+0x2410>
    5584:	00026b0b 	andeq	r6, r2, fp, lsl #22
    5588:	030b0b00 	movweq	r0, #47872	; 0xbb00
    558c:	0c000002 	stceq	0, cr0, [r0], {2}
    5590:	00021f0b 	andeq	r1, r2, fp, lsl #30
    5594:	180b0d00 	stmdane	fp, {r8, sl, fp}
    5598:	0e000003 	cdpeq	0, 0, cr0, cr0, cr3, {0}
    559c:	00025d0b 	andeq	r5, r2, fp, lsl #26
    55a0:	e80b0f00 	stmda	fp, {r8, r9, sl, fp}
    55a4:	10000002 	andne	r0, r0, r2
    55a8:	0002440b 	andeq	r4, r2, fp, lsl #8
    55ac:	020b1100 	andeq	r1, fp, #0, 2
    55b0:	12000003 	andne	r0, r0, #3
    55b4:	0000ee0b 	andeq	lr, r0, fp, lsl #28
    55b8:	cd0b1300 	stcgt	3, cr1, [fp, #-0]
    55bc:	14000002 	strne	r0, [r0], #-2
    55c0:	08010200 	stmdaeq	r1, {r9}
    55c4:	0000011b 	andeq	r0, r0, fp, lsl r1
    55c8:	e1070402 	tst	r7, r2, lsl #8
    55cc:	0c000001 	stceq	0, cr0, [r0], {1}
    55d0:	00001dfd 	strdeq	r1, [r0], -sp
    55d4:	00411c01 	subeq	r1, r1, r1, lsl #24
    55d8:	26880000 	strcs	r0, [r8], r0
    55dc:	00580000 	subseq	r0, r8, r0
    55e0:	9c010000 	stcls	0, cr0, [r1], {-0}
    55e4:	00000362 	andeq	r0, r0, r2, ror #6
    55e8:	001d870d 	andseq	r8, sp, sp, lsl #14
    55ec:	621c0100 	andsvs	r0, ip, #0, 2
    55f0:	f7000003 			; <UNDEFINED> instruction: 0xf7000003
    55f4:	00000016 	andeq	r0, r0, r6, lsl r0
    55f8:	0291040e 	addseq	r0, r1, #234881024	; 0xe000000
    55fc:	3a0c0000 	bcc	305604 <__bss_end+0x302488>
    5600:	0100001d 	tsteq	r0, sp, lsl r0
    5604:	0000413a 	andeq	r4, r0, sl, lsr r1
    5608:	0026e000 	eoreq	lr, r6, r0
    560c:	00005000 	andeq	r5, r0, r0
    5610:	919c0100 	orrsls	r0, ip, r0, lsl #2
    5614:	0d000003 	stceq	0, cr0, [r0, #-12]
    5618:	00001d87 	andeq	r1, r0, r7, lsl #27
    561c:	03623a01 	cmneq	r2, #4096	; 0x1000
    5620:	17150000 	ldrne	r0, [r5, -r0]
    5624:	0f000000 	svceq	0x00000000
    5628:	00001d19 	andeq	r1, r0, r9, lsl sp
    562c:	00415401 	subeq	r5, r1, r1, lsl #8
    5630:	27300000 	ldrcs	r0, [r0, -r0]!
    5634:	00340000 	eorseq	r0, r4, r0
    5638:	9c010000 	stcls	0, cr0, [r1], {-0}
    563c:	001c620f 	andseq	r6, ip, pc, lsl #4
    5640:	416c0100 	cmnmi	ip, r0, lsl #2
    5644:	64000000 	strvs	r0, [r0], #-0
    5648:	28000027 	stmdacs	r0, {r0, r1, r2, r5}
    564c:	01000000 	mrseq	r0, (UNDEF: 0)
    5650:	1d01109c 	stcne	0, cr1, [r1, #-624]	; 0xfffffd90
    5654:	84010000 	strhi	r0, [r1], #-0
    5658:	0000278c 	andeq	r2, r0, ip, lsl #15
    565c:	00000048 	andeq	r0, r0, r8, asr #32
    5660:	58109c01 	ldmdapl	r0, {r0, sl, fp, ip, pc}
    5664:	0100001d 	tsteq	r0, sp, lsl r0
    5668:	0027d4a5 	eoreq	sp, r7, r5, lsr #9
    566c:	00004000 	andeq	r4, r0, r0
    5670:	0c9c0100 	ldfeqs	f0, [ip], {0}
    5674:	00001c00 	andeq	r1, r0, r0, lsl #24
    5678:	0041c001 	subeq	ip, r1, r1
    567c:	28140000 	ldmdacs	r4, {}	; <UNPREDICTABLE>
    5680:	00540000 	subseq	r0, r4, r0
    5684:	9c010000 	stcls	0, cr0, [r1], {-0}
    5688:	00000406 	andeq	r0, r0, r6, lsl #8
    568c:	001d330d 	andseq	r3, sp, sp, lsl #6
    5690:	53c00100 	bicpl	r0, r0, #0, 2
    5694:	41000000 	mrsmi	r0, (UNDEF: 0)
    5698:	00000017 	andeq	r0, r0, r7, lsl r0
    569c:	001de611 	andseq	lr, sp, r1, lsl r6
    56a0:	620e0100 	andvs	r0, lr, #0, 2
    56a4:	05000003 	streq	r0, [r0, #-3]
    56a8:	002f7403 	eoreq	r7, pc, r3, lsl #8
    56ac:	1cb11100 	ldfnes	f1, [r1]
    56b0:	0f010000 	svceq	0x00010000
    56b4:	00000053 	andeq	r0, r0, r3, asr r0
    56b8:	2f780305 	svccs	0x00780305
    56bc:	eb110000 	bl	4456c4 <__bss_end+0x442548>
    56c0:	0100001c 	tsteq	r0, ip, lsl r0
    56c4:	0000530f 	andeq	r5, r0, pc, lsl #6
    56c8:	7c030500 	cfstr32vc	mvfx0, [r3], {-0}
    56cc:	1100002f 	tstne	r0, pc, lsr #32
    56d0:	00001c4d 	andeq	r1, r0, sp, asr #24
    56d4:	00530f01 	subseq	r0, r3, r1, lsl #30
    56d8:	03050000 	movweq	r0, #20480	; 0x5000
    56dc:	00002f80 	andeq	r2, r0, r0, lsl #31
    56e0:	00006700 	andeq	r6, r0, r0, lsl #14
    56e4:	ff000400 			; <UNDEFINED> instruction: 0xff000400
    56e8:	04000012 	streq	r0, [r0], #-18	; 0xffffffee
    56ec:	00000001 	andeq	r0, r0, r1
    56f0:	1e0a0c00 	cdpne	12, 0, cr0, cr10, cr0, {0}
    56f4:	01960000 	orrseq	r0, r6, r0
    56f8:	13e30000 	mvnne	r0, #0
    56fc:	01020000 	mrseq	r0, (UNDEF: 2)
    5700:	00011406 	andeq	r1, r1, r6, lsl #8
    5704:	08010200 	stmdaeq	r1, {r9}
    5708:	00000112 	andeq	r0, r0, r2, lsl r1
    570c:	76050202 	strvc	r0, [r5], -r2, lsl #4
    5710:	02000002 	andeq	r0, r0, #2
    5714:	01360702 	teqeq	r6, r2, lsl #14
    5718:	04030000 	streq	r0, [r3], #-0
    571c:	746e6905 	strbtvc	r6, [lr], #-2309	; 0xfffff6fb
    5720:	07040200 	streq	r0, [r4, -r0, lsl #4]
    5724:	000001e6 	andeq	r0, r0, r6, ror #3
    5728:	36050802 	strcc	r0, [r5], -r2, lsl #16
    572c:	02000002 	andeq	r0, r0, #2
    5730:	01dc0708 	bicseq	r0, ip, r8, lsl #14
    5734:	04020000 	streq	r0, [r2], #-0
    5738:	00022d07 	andeq	r2, r2, r7, lsl #26
    573c:	08010200 	stmdaeq	r1, {r9}
    5740:	0000011b 	andeq	r0, r0, fp, lsl r1
    5744:	e1070402 	tst	r7, r2, lsl #8
    5748:	00000001 	andeq	r0, r0, r1
    574c:	00000067 	andeq	r0, r0, r7, rrx
    5750:	13250004 			; <UNDEFINED> instruction: 0x13250004
    5754:	01040000 	mrseq	r0, (UNDEF: 4)
    5758:	00000000 	andeq	r0, r0, r0
    575c:	001e390c 	andseq	r3, lr, ip, lsl #18
    5760:	00019600 	andeq	r9, r1, r0, lsl #12
    5764:	00140000 	andseq	r0, r4, r0
    5768:	06010200 	streq	r0, [r1], -r0, lsl #4
    576c:	00000114 	andeq	r0, r0, r4, lsl r1
    5770:	12080102 	andne	r0, r8, #-2147483648	; 0x80000000
    5774:	02000001 	andeq	r0, r0, #1
    5778:	02760502 	rsbseq	r0, r6, #8388608	; 0x800000
    577c:	02020000 	andeq	r0, r2, #0
    5780:	00013607 	andeq	r3, r1, r7, lsl #12
    5784:	05040300 	streq	r0, [r4, #-768]	; 0xfffffd00
    5788:	00746e69 	rsbseq	r6, r4, r9, ror #28
    578c:	e6070402 	str	r0, [r7], -r2, lsl #8
    5790:	02000001 	andeq	r0, r0, #1
    5794:	02360508 	eorseq	r0, r6, #8, 10	; 0x2000000
    5798:	08020000 	stmdaeq	r2, {}	; <UNPREDICTABLE>
    579c:	0001dc07 	andeq	sp, r1, r7, lsl #24
    57a0:	07040200 	streq	r0, [r4, -r0, lsl #4]
    57a4:	0000022d 	andeq	r0, r0, sp, lsr #4
    57a8:	1b080102 	blne	205bb8 <__bss_end+0x202a3c>
    57ac:	02000001 	andeq	r0, r0, #1
    57b0:	01e10704 	mvneq	r0, r4, lsl #14
    57b4:	00000000 	andeq	r0, r0, r0
    57b8:	04000014 	streq	r0, [r0], #-20	; 0xffffffec
    57bc:	00134b00 	andseq	r4, r3, r0, lsl #22
    57c0:	00010400 	andeq	r0, r1, r0, lsl #8
    57c4:	0c000000 	stceq	0, cr0, [r0], {-0}
    57c8:	00001e7d 	andeq	r1, r0, sp, ror lr
    57cc:	00000196 	muleq	r0, r6, r1
    57d0:	00002868 	andeq	r2, r0, r8, ror #16
    57d4:	000003a4 	andeq	r0, r0, r4, lsr #7
    57d8:	0000141d 	andeq	r1, r0, sp, lsl r4
    57dc:	14060102 	strne	r0, [r6], #-258	; 0xfffffefe
    57e0:	03000001 	movweq	r0, #1
    57e4:	00000de6 	andeq	r0, r0, r6, ror #27
    57e8:	00370f02 	eorseq	r0, r7, r2, lsl #30
    57ec:	01020000 	mrseq	r0, (UNDEF: 2)
    57f0:	00011208 	andeq	r1, r1, r8, lsl #4
    57f4:	05020200 	streq	r0, [r2, #-512]	; 0xfffffe00
    57f8:	00000276 	andeq	r0, r0, r6, ror r2
    57fc:	36070202 	strcc	r0, [r7], -r2, lsl #4
    5800:	03000001 	movweq	r0, #1
    5804:	00001264 	andeq	r1, r0, r4, ror #4
    5808:	00571202 	subseq	r1, r7, r2, lsl #4
    580c:	04040000 	streq	r0, [r4], #-0
    5810:	746e6905 	strbtvc	r6, [lr], #-2309	; 0xfffff6fb
    5814:	0a800300 	beq	fe00641c <__bss_end+0xfe0032a0>
    5818:	13020000 	movwne	r0, #8192	; 0x2000
    581c:	00000069 	andeq	r0, r0, r9, rrx
    5820:	e6070402 	str	r0, [r7], -r2, lsl #8
    5824:	02000001 	andeq	r0, r0, #1
    5828:	02360508 	eorseq	r0, r6, #8, 10	; 0x2000000
    582c:	08020000 	stmdaeq	r2, {}	; <UNPREDICTABLE>
    5830:	0001dc07 	andeq	sp, r1, r7, lsl #24
    5834:	03040500 	movweq	r0, #17664	; 0x4500
    5838:	00014a1a 	andeq	r4, r1, sl, lsl sl
    583c:	07400600 	strbeq	r0, [r0, -r0, lsl #12]
    5840:	1c030000 	stcne	0, cr0, [r3], {-0}
    5844:	0000005e 	andeq	r0, r0, lr, asr r0
    5848:	001e0204 	andseq	r0, lr, r4, lsl #4
    584c:	000d3406 	andeq	r3, sp, r6, lsl #8
    5850:	5e1d0300 	cdppl	3, 1, cr0, cr13, cr0, {0}
    5854:	04000000 	streq	r0, [r0], #-0
    5858:	06001c02 	streq	r1, [r0], -r2, lsl #24
    585c:	00000738 	andeq	r0, r0, r8, lsr r7
    5860:	005e1e03 	subseq	r1, lr, r3, lsl #28
    5864:	02040000 	andeq	r0, r4, #0
    5868:	3e06001a 	mcrcc	0, 0, r0, cr6, cr10, {0}
    586c:	0300000d 	movweq	r0, #13
    5870:	00005e1f 	andeq	r5, r0, pc, lsl lr
    5874:	18020400 	stmdane	r2, {sl}
    5878:	07480600 	strbeq	r0, [r8, -r0, lsl #12]
    587c:	20030000 	andcs	r0, r3, r0
    5880:	0000005e 	andeq	r0, r0, lr, asr r0
    5884:	00130504 	andseq	r0, r3, r4, lsl #10
    5888:	000d4806 	andeq	r4, sp, r6, lsl #16
    588c:	5e210300 	cdppl	3, 2, cr0, cr1, cr0, {0}
    5890:	04000000 	streq	r0, [r0], #-0
    5894:	06001003 	streq	r1, [r0], -r3
    5898:	00000758 	andeq	r0, r0, r8, asr r7
    589c:	005e2203 	subseq	r2, lr, r3, lsl #4
    58a0:	02040000 	andeq	r0, r4, #0
    58a4:	5206000e 	andpl	r0, r6, #14
    58a8:	0300000d 	movweq	r0, #13
    58ac:	00005e23 	andeq	r5, r0, r3, lsr #28
    58b0:	08060400 	stmdaeq	r6, {sl}
    58b4:	0a5f0600 	beq	17c70bc <__bss_end+0x17c3f40>
    58b8:	24030000 	strcs	r0, [r3], #-0
    58bc:	0000005e 	andeq	r0, r0, lr, asr r0
    58c0:	00070104 	andeq	r0, r7, r4, lsl #2
    58c4:	000d5c06 	andeq	r5, sp, r6, lsl #24
    58c8:	5e250300 	cdppl	3, 2, cr0, cr5, cr0, {0}
    58cc:	04000000 	streq	r0, [r0], #-0
    58d0:	06000403 	streq	r0, [r0], -r3, lsl #8
    58d4:	00000bfb 	strdeq	r0, [r0], -fp
    58d8:	005e2603 	subseq	r2, lr, r3, lsl #12
    58dc:	01040000 	mrseq	r0, (UNDEF: 4)
    58e0:	66060003 	strvs	r0, [r6], -r3
    58e4:	0300000d 	movweq	r0, #13
    58e8:	00005e27 	andeq	r5, r0, r7, lsr #28
    58ec:	01020400 	tsteq	r2, r0, lsl #8
    58f0:	0caa0600 	stceq	6, cr0, [sl]
    58f4:	28030000 	stmdacs	r3, {}	; <UNPREDICTABLE>
    58f8:	0000005e 	andeq	r0, r0, lr, asr r0
    58fc:	00000104 	andeq	r0, r0, r4, lsl #2
    5900:	03040700 	movweq	r0, #18176	; 0x4700
    5904:	00016918 	andeq	r6, r1, r8, lsl r9
    5908:	04d20800 	ldrbeq	r0, [r2], #2048	; 0x800
    590c:	19030000 	stmdbne	r3, {}	; <UNPREDICTABLE>
    5910:	0000005e 	andeq	r0, r0, lr, asr r0
    5914:	000ad008 	andeq	sp, sl, r8
    5918:	7e2a0300 	cdpvc	3, 2, cr0, cr10, cr0, {0}
    591c:	00000000 	andeq	r0, r0, r0
    5920:	000cb003 	andeq	fp, ip, r3
    5924:	4a2b0300 	bmi	ac652c <__bss_end+0xac33b0>
    5928:	09000001 	stmdbeq	r0, {r0}
    592c:	00000cd1 	ldrdeq	r0, [r0], -r1
    5930:	262e0304 	strtcs	r0, [lr], -r4, lsl #6
    5934:	06000002 	streq	r0, [r0], -r2
    5938:	00000740 	andeq	r0, r0, r0, asr #14
    593c:	005e3003 	subseq	r3, lr, r3
    5940:	05040000 	streq	r0, [r4, #-0]
    5944:	3406001b 	strcc	r0, [r6], #-27	; 0xffffffe5
    5948:	0300000d 	movweq	r0, #13
    594c:	00005e31 	andeq	r5, r0, r1, lsr lr
    5950:	18030400 	stmdane	r3, {sl}
    5954:	07480600 	strbeq	r0, [r8, -r0, lsl #12]
    5958:	32030000 	andcc	r0, r3, #0
    595c:	0000005e 	andeq	r0, r0, lr, asr r0
    5960:	00110704 	andseq	r0, r1, r4, lsl #14
    5964:	000d3e06 	andeq	r3, sp, r6, lsl #28
    5968:	5e330300 	cdppl	3, 3, cr0, cr3, cr0, {0}
    596c:	04000000 	streq	r0, [r0], #-0
    5970:	06001001 	streq	r1, [r0], -r1
    5974:	00000758 	andeq	r0, r0, r8, asr r7
    5978:	005e3403 	subseq	r3, lr, r3, lsl #8
    597c:	04040000 	streq	r0, [r4], #-0
    5980:	4806000c 	stmdami	r6, {r2, r3}
    5984:	0300000d 	movweq	r0, #13
    5988:	00005e35 	andeq	r5, r0, r5, lsr lr
    598c:	08040400 	stmdaeq	r4, {sl}
    5990:	0bd00600 	bleq	ff407198 <__bss_end+0xff40401c>
    5994:	36030000 	strcc	r0, [r3], -r0
    5998:	0000005e 	andeq	r0, r0, lr, asr r0
    599c:	00070104 	andeq	r0, r7, r4, lsl #2
    59a0:	000d5206 	andeq	r5, sp, r6, lsl #4
    59a4:	5e370300 	cdppl	3, 3, cr0, cr7, cr0, {0}
    59a8:	04000000 	streq	r0, [r0], #-0
    59ac:	06000403 	streq	r0, [r0], -r3, lsl #8
    59b0:	00000bfb 	strdeq	r0, [r0], -fp
    59b4:	005e3803 	subseq	r3, lr, r3, lsl #16
    59b8:	01040000 	mrseq	r0, (UNDEF: 4)
    59bc:	5c060003 	stcpl	0, cr0, [r6], {3}
    59c0:	0300000d 	movweq	r0, #13
    59c4:	00005e39 	andeq	r5, r0, r9, lsr lr
    59c8:	01020400 	tsteq	r2, r0, lsl #8
    59cc:	0caa0600 	stceq	6, cr0, [sl]
    59d0:	3a030000 	bcc	c59d8 <__bss_end+0xc285c>
    59d4:	0000005e 	andeq	r0, r0, lr, asr r0
    59d8:	00000104 	andeq	r0, r0, r4, lsl #2
    59dc:	0c230300 	stceq	3, cr0, [r3], #-0
    59e0:	3b030000 	blcc	c59e8 <__bss_end+0xc286c>
    59e4:	00000174 	andeq	r0, r0, r4, ror r1
    59e8:	000c9009 	andeq	r9, ip, r9
    59ec:	50030400 	andpl	r0, r3, r0, lsl #8
    59f0:	00000301 	andeq	r0, r0, r1, lsl #6
    59f4:	00074006 	andeq	r4, r7, r6
    59f8:	5e520300 	cdppl	3, 5, cr0, cr2, cr0, {0}
    59fc:	04000000 	streq	r0, [r0], #-0
    5a00:	06001e02 	streq	r1, [r0], -r2, lsl #28
    5a04:	00000d34 	andeq	r0, r0, r4, lsr sp
    5a08:	005e5303 	subseq	r5, lr, r3, lsl #6
    5a0c:	02040000 	andeq	r0, r4, #0
    5a10:	3806001c 	stmdacc	r6, {r2, r3, r4}
    5a14:	03000007 	movweq	r0, #7
    5a18:	00005e54 	andeq	r5, r0, r4, asr lr
    5a1c:	1a020400 	bne	86a24 <__bss_end+0x838a8>
    5a20:	0d3e0600 	ldceq	6, cr0, [lr, #-0]
    5a24:	55030000 	strpl	r0, [r3, #-0]
    5a28:	0000005e 	andeq	r0, r0, lr, asr r0
    5a2c:	00180204 	andseq	r0, r8, r4, lsl #4
    5a30:	00074806 	andeq	r4, r7, r6, lsl #16
    5a34:	5e560300 	cdppl	3, 5, cr0, cr6, cr0, {0}
    5a38:	04000000 	streq	r0, [r0], #-0
    5a3c:	06001305 	streq	r1, [r0], -r5, lsl #6
    5a40:	00000d48 	andeq	r0, r0, r8, asr #26
    5a44:	005e5703 	subseq	r5, lr, r3, lsl #14
    5a48:	07040000 	streq	r0, [r4, -r0]
    5a4c:	9506000c 	strls	r0, [r6, #-12]
    5a50:	03000006 	movweq	r0, #6
    5a54:	00005e58 	andeq	r5, r0, r8, asr lr
    5a58:	0b010400 	bleq	46a60 <__bss_end+0x438e4>
    5a5c:	0d520600 	ldcleq	6, cr0, [r2, #-0]
    5a60:	59030000 	stmdbpl	r3, {}	; <UNPREDICTABLE>
    5a64:	0000005e 	andeq	r0, r0, lr, asr r0
    5a68:	00080304 	andeq	r0, r8, r4, lsl #6
    5a6c:	000a6706 	andeq	r6, sl, r6, lsl #14
    5a70:	5e5a0300 	cdppl	3, 5, cr0, cr10, cr0, {0}
    5a74:	04000000 	streq	r0, [r0], #-0
    5a78:	06000701 	streq	r0, [r0], -r1, lsl #14
    5a7c:	00000d5c 	andeq	r0, r0, ip, asr sp
    5a80:	005e5b03 	subseq	r5, lr, r3, lsl #22
    5a84:	03040000 	movweq	r0, #16384	; 0x4000
    5a88:	fb060004 	blx	185aa2 <__bss_end+0x182926>
    5a8c:	0300000b 	movweq	r0, #11
    5a90:	00005e5c 	andeq	r5, r0, ip, asr lr
    5a94:	03010400 	movweq	r0, #5120	; 0x1400
    5a98:	0d660600 	stcleq	6, cr0, [r6, #-0]
    5a9c:	5d030000 	stcpl	0, cr0, [r3, #-0]
    5aa0:	0000005e 	andeq	r0, r0, lr, asr r0
    5aa4:	00010204 	andeq	r0, r1, r4, lsl #4
    5aa8:	000caa06 	andeq	sl, ip, r6, lsl #20
    5aac:	5e5e0300 	cdppl	3, 5, cr0, cr14, cr0, {0}
    5ab0:	04000000 	streq	r0, [r0], #-0
    5ab4:	00000001 	andeq	r0, r0, r1
    5ab8:	0006ae03 	andeq	sl, r6, r3, lsl #28
    5abc:	315f0300 	cmpcc	pc, r0, lsl #6
    5ac0:	09000002 	stmdbeq	r0, {r1}
    5ac4:	000010a4 	andeq	r1, r0, r4, lsr #1
    5ac8:	fa620304 	blx	18866e0 <__bss_end+0x1883564>
    5acc:	06000003 	streq	r0, [r0], -r3
    5ad0:	00000740 	andeq	r0, r0, r0, asr #14
    5ad4:	005e6403 	subseq	r6, lr, r3, lsl #8
    5ad8:	02040000 	andeq	r0, r4, #0
    5adc:	3406001e 	strcc	r0, [r6], #-30	; 0xffffffe2
    5ae0:	0300000d 	movweq	r0, #13
    5ae4:	00005e65 	andeq	r5, r0, r5, ror #28
    5ae8:	1c020400 	cfstrsne	mvf0, [r2], {-0}
    5aec:	07380600 	ldreq	r0, [r8, -r0, lsl #12]!
    5af0:	66030000 	strvs	r0, [r3], -r0
    5af4:	0000005e 	andeq	r0, r0, lr, asr r0
    5af8:	001a0204 	andseq	r0, sl, r4, lsl #4
    5afc:	000d3e06 	andeq	r3, sp, r6, lsl #28
    5b00:	5e670300 	cdppl	3, 6, cr0, cr7, cr0, {0}
    5b04:	04000000 	streq	r0, [r0], #-0
    5b08:	06001802 	streq	r1, [r0], -r2, lsl #16
    5b0c:	00000748 	andeq	r0, r0, r8, asr #14
    5b10:	005e6803 	subseq	r6, lr, r3, lsl #16
    5b14:	05040000 	streq	r0, [r4, #-0]
    5b18:	48060013 	stmdami	r6, {r0, r1, r4}
    5b1c:	0300000d 	movweq	r0, #13
    5b20:	00005e69 	andeq	r5, r0, r9, ror #28
    5b24:	10030400 	andne	r0, r3, r0, lsl #8
    5b28:	0ed50600 	cdpeq	6, 13, cr0, cr5, cr0, {0}
    5b2c:	6a030000 	bvs	c5b34 <__bss_end+0xc29b8>
    5b30:	0000005e 	andeq	r0, r0, lr, asr r0
    5b34:	000e0204 	andeq	r0, lr, r4, lsl #4
    5b38:	00043606 	andeq	r3, r4, r6, lsl #12
    5b3c:	5e6b0300 	cdppl	3, 6, cr0, cr11, cr0, {0}
    5b40:	04000000 	streq	r0, [r0], #-0
    5b44:	06000d01 	streq	r0, [r0], -r1, lsl #26
    5b48:	00000d52 	andeq	r0, r0, r2, asr sp
    5b4c:	005e6c03 	subseq	r6, lr, r3, lsl #24
    5b50:	05040000 	streq	r0, [r4, #-0]
    5b54:	59060008 	stmdbpl	r6, {r3}
    5b58:	0300000b 	movweq	r0, #11
    5b5c:	00005e6d 	andeq	r5, r0, sp, ror #28
    5b60:	07010400 	streq	r0, [r1, -r0, lsl #8]
    5b64:	0b0f0600 	bleq	3c736c <__bss_end+0x3c41f0>
    5b68:	6e030000 	cdpvs	0, 0, cr0, cr3, cr0, {0}
    5b6c:	0000005e 	andeq	r0, r0, lr, asr r0
    5b70:	00060104 	andeq	r0, r6, r4, lsl #2
    5b74:	000d5c06 	andeq	r5, sp, r6, lsl #24
    5b78:	5e6f0300 	cdppl	3, 6, cr0, cr15, cr0, {0}
    5b7c:	04000000 	streq	r0, [r0], #-0
    5b80:	06000402 	streq	r0, [r0], -r2, lsl #8
    5b84:	00000bfb 	strdeq	r0, [r0], -fp
    5b88:	005e7003 	subseq	r7, lr, r3
    5b8c:	01040000 	mrseq	r0, (UNDEF: 4)
    5b90:	66060003 	strvs	r0, [r6], -r3
    5b94:	0300000d 	movweq	r0, #13
    5b98:	00005e71 	andeq	r5, r0, r1, ror lr
    5b9c:	01020400 	tsteq	r2, r0, lsl #8
    5ba0:	0caa0600 	stceq	6, cr0, [sl]
    5ba4:	72030000 	andvc	r0, r3, #0
    5ba8:	0000005e 	andeq	r0, r0, lr, asr r0
    5bac:	00000104 	andeq	r0, r0, r4, lsl #2
    5bb0:	05c40300 	strbeq	r0, [r4, #768]	; 0x300
    5bb4:	73030000 	movwvc	r0, #12288	; 0x3000
    5bb8:	0000030c 	andeq	r0, r0, ip, lsl #6
    5bbc:	00088709 	andeq	r8, r8, r9, lsl #14
    5bc0:	75030400 	strvc	r0, [r3, #-1024]	; 0xfffffc00
    5bc4:	000004c6 	andeq	r0, r0, r6, asr #9
    5bc8:	00074006 	andeq	r4, r7, r6
    5bcc:	5e770300 	cdppl	3, 7, cr0, cr7, cr0, {0}
    5bd0:	04000000 	streq	r0, [r0], #-0
    5bd4:	06001c04 	streq	r1, [r0], -r4, lsl #24
    5bd8:	00000d34 	andeq	r0, r0, r4, lsr sp
    5bdc:	005e7803 	subseq	r7, lr, r3, lsl #16
    5be0:	04040000 	streq	r0, [r4], #-0
    5be4:	48060018 	stmdami	r6, {r3, r4}
    5be8:	03000007 	movweq	r0, #7
    5bec:	00005e79 	andeq	r5, r0, r9, ror lr
    5bf0:	11070400 	tstne	r7, r0, lsl #8
    5bf4:	0d3e0600 	ldceq	6, cr0, [lr, #-0]
    5bf8:	7a030000 	bvc	c5c00 <__bss_end+0xc2a84>
    5bfc:	0000005e 	andeq	r0, r0, lr, asr r0
    5c00:	000c0504 	andeq	r0, ip, r4, lsl #10
    5c04:	000bd006 	andeq	sp, fp, r6
    5c08:	5e7b0300 	cdppl	3, 7, cr0, cr11, cr0, {0}
    5c0c:	04000000 	streq	r0, [r0], #-0
    5c10:	06000b01 	streq	r0, [r0], -r1, lsl #22
    5c14:	00000d48 	andeq	r0, r0, r8, asr #26
    5c18:	005e7c03 	subseq	r7, lr, r3, lsl #24
    5c1c:	03040000 	movweq	r0, #16384	; 0x4000
    5c20:	5f060008 	svcpl	0x00060008
    5c24:	0300000c 	movweq	r0, #12
    5c28:	00005e7d 	andeq	r5, r0, sp, ror lr
    5c2c:	07010400 	streq	r0, [r1, -r0, lsl #8]
    5c30:	0dc20600 	stcleq	6, cr0, [r2]
    5c34:	7e030000 	cdpvc	0, 0, cr0, cr3, cr0, {0}
    5c38:	0000005e 	andeq	r0, r0, lr, asr r0
    5c3c:	00060104 	andeq	r0, r6, r4, lsl #2
    5c40:	000d5206 	andeq	r5, sp, r6, lsl #4
    5c44:	5e7f0300 	cdppl	3, 7, cr0, cr15, cr0, {0}
    5c48:	04000000 	streq	r0, [r0], #-0
    5c4c:	06000402 	streq	r0, [r0], -r2, lsl #8
    5c50:	00000bfb 	strdeq	r0, [r0], -fp
    5c54:	005e8003 	subseq	r8, lr, r3
    5c58:	01040000 	mrseq	r0, (UNDEF: 4)
    5c5c:	5c060003 	stcpl	0, cr0, [r6], {3}
    5c60:	0300000d 	movweq	r0, #13
    5c64:	00005e81 	andeq	r5, r0, r1, lsl #29
    5c68:	01020400 	tsteq	r2, r0, lsl #8
    5c6c:	0caa0600 	stceq	6, cr0, [sl]
    5c70:	82030000 	andhi	r0, r3, #0
    5c74:	0000005e 	andeq	r0, r0, lr, asr r0
    5c78:	00000104 	andeq	r0, r0, r4, lsl #2
    5c7c:	09a30300 	stmibeq	r3!, {r8, r9}
    5c80:	83030000 	movwhi	r0, #12288	; 0x3000
    5c84:	00000405 	andeq	r0, r0, r5, lsl #8
    5c88:	000bdf09 	andeq	sp, fp, r9, lsl #30
    5c8c:	86030400 	strhi	r0, [r3], -r0, lsl #8
    5c90:	000005fb 	strdeq	r0, [r0], -fp
    5c94:	00074006 	andeq	r4, r7, r6
    5c98:	5e880300 	cdppl	3, 8, cr0, cr8, cr0, {0}
    5c9c:	04000000 	streq	r0, [r0], #-0
    5ca0:	06001c04 	streq	r1, [r0], -r4, lsl #24
    5ca4:	00000738 	andeq	r0, r0, r8, lsr r7
    5ca8:	005e8903 	subseq	r8, lr, r3, lsl #18
    5cac:	02040000 	andeq	r0, r4, #0
    5cb0:	3406001a 	strcc	r0, [r6], #-26	; 0xffffffe6
    5cb4:	0300000d 	movweq	r0, #13
    5cb8:	00005e8a 	andeq	r5, r0, sl, lsl #29
    5cbc:	18020400 	stmdane	r2, {sl}
    5cc0:	07480600 	strbeq	r0, [r8, -r0, lsl #12]
    5cc4:	8b030000 	blhi	c5ccc <__bss_end+0xc2b50>
    5cc8:	0000005e 	andeq	r0, r0, lr, asr r0
    5ccc:	00140404 	andseq	r0, r4, r4, lsl #8
    5cd0:	000d3e06 	andeq	r3, sp, r6, lsl #28
    5cd4:	5e8c0300 	cdppl	3, 8, cr0, cr12, cr0, {0}
    5cd8:	04000000 	streq	r0, [r0], #-0
    5cdc:	06001004 	streq	r1, [r0], -r4
    5ce0:	000006d2 	ldrdeq	r0, [r0], -r2
    5ce4:	005e8d03 	subseq	r8, lr, r3, lsl #26
    5ce8:	01040000 	mrseq	r0, (UNDEF: 4)
    5cec:	6706000f 	strvs	r0, [r6, -pc]
    5cf0:	0300000c 	movweq	r0, #12
    5cf4:	00005e8f 	andeq	r5, r0, pc, lsl #29
    5cf8:	0e010400 	cfcpyseq	mvf0, mvf1
    5cfc:	0d480600 	stcleq	6, cr0, [r8, #-0]
    5d00:	90030000 	andls	r0, r3, r0
    5d04:	0000005e 	andeq	r0, r0, lr, asr r0
    5d08:	000c0204 	andeq	r0, ip, r4, lsl #4
    5d0c:	000bd006 	andeq	sp, fp, r6
    5d10:	5e910300 	cdppl	3, 9, cr0, cr1, cr0, {0}
    5d14:	04000000 	streq	r0, [r0], #-0
    5d18:	06000b01 	streq	r0, [r0], -r1, lsl #22
    5d1c:	0000057b 	andeq	r0, r0, fp, ror r5
    5d20:	005e9203 	subseq	r9, lr, r3, lsl #4
    5d24:	01040000 	mrseq	r0, (UNDEF: 4)
    5d28:	0f06000a 	svceq	0x0006000a
    5d2c:	03000006 	movweq	r0, #6
    5d30:	00005e93 	muleq	r0, r3, lr
    5d34:	09010400 	stmdbeq	r1, {sl}
    5d38:	0d2d0600 	stceq	6, cr0, [sp, #-0]
    5d3c:	94030000 	strls	r0, [r3], #-0
    5d40:	0000005e 	andeq	r0, r0, lr, asr r0
    5d44:	00080104 	andeq	r0, r8, r4, lsl #2
    5d48:	000d5206 	andeq	r5, sp, r6, lsl #4
    5d4c:	5e950300 	cdppl	3, 9, cr0, cr5, cr0, {0}
    5d50:	04000000 	streq	r0, [r0], #-0
    5d54:	06000701 	streq	r0, [r0], -r1, lsl #14
    5d58:	00000c17 	andeq	r0, r0, r7, lsl ip
    5d5c:	005e9603 	subseq	r9, lr, r3, lsl #12
    5d60:	01040000 	mrseq	r0, (UNDEF: 4)
    5d64:	a4060006 	strge	r0, [r6], #-6
    5d68:	0300000c 	movweq	r0, #12
    5d6c:	00005e97 	muleq	r0, r7, lr
    5d70:	05010400 	streq	r0, [r1, #-1024]	; 0xfffffc00
    5d74:	0e710600 	cdpeq	6, 7, cr0, cr1, cr0, {0}
    5d78:	98030000 	stmdals	r3, {}	; <UNPREDICTABLE>
    5d7c:	0000005e 	andeq	r0, r0, lr, asr r0
    5d80:	00040104 	andeq	r0, r4, r4, lsl #2
    5d84:	000bfb06 	andeq	pc, fp, r6, lsl #22
    5d88:	5e990300 	cdppl	3, 9, cr0, cr9, cr0, {0}
    5d8c:	04000000 	streq	r0, [r0], #-0
    5d90:	06000301 	streq	r0, [r0], -r1, lsl #6
    5d94:	00000d5c 	andeq	r0, r0, ip, asr sp
    5d98:	005e9a03 	subseq	r9, lr, r3, lsl #20
    5d9c:	02040000 	andeq	r0, r4, #0
    5da0:	aa060001 	bge	185dac <__bss_end+0x182c30>
    5da4:	0300000c 	movweq	r0, #12
    5da8:	00005e9b 	muleq	r0, fp, lr
    5dac:	00010400 	andeq	r0, r1, r0, lsl #8
    5db0:	82030000 	andhi	r0, r3, #0
    5db4:	03000004 	movweq	r0, #4
    5db8:	0004d19c 	muleq	r4, ip, r1
    5dbc:	03040500 	movweq	r0, #17664	; 0x4500
    5dc0:	000669a4 	andeq	r6, r6, r4, lsr #19
    5dc4:	0fe10600 	svceq	0x00e10600
    5dc8:	a6030000 	strge	r0, [r3], -r0
    5dcc:	0000005e 	andeq	r0, r0, lr, asr r0
    5dd0:	001e0204 	andseq	r0, lr, r4, lsl #4
    5dd4:	000d3406 	andeq	r3, sp, r6, lsl #8
    5dd8:	5ea70300 	cdppl	3, 10, cr0, cr7, cr0, {0}
    5ddc:	04000000 	streq	r0, [r0], #-0
    5de0:	06001806 	streq	r1, [r0], -r6, lsl #16
    5de4:	00000ce5 	andeq	r0, r0, r5, ror #25
    5de8:	005ea803 	subseq	sl, lr, r3, lsl #16
    5dec:	02040000 	andeq	r0, r4, #0
    5df0:	3e060016 	mcrcc	0, 0, r0, cr6, cr6, {0}
    5df4:	0300000d 	movweq	r0, #13
    5df8:	00005ea9 	andeq	r5, r0, r9, lsr #29
    5dfc:	10060400 	andne	r0, r6, r0, lsl #8
    5e00:	08c20600 	stmiaeq	r2, {r9, sl}^
    5e04:	aa030000 	bge	c5e0c <__bss_end+0xc2c90>
    5e08:	0000005e 	andeq	r0, r0, lr, asr r0
    5e0c:	000e0204 	andeq	r0, lr, r4, lsl #4
    5e10:	000d4806 	andeq	r4, sp, r6, lsl #16
    5e14:	5eab0300 	cdppl	3, 10, cr0, cr11, cr0, {0}
    5e18:	04000000 	streq	r0, [r0], #-0
    5e1c:	0000000e 	andeq	r0, r0, lr
    5e20:	a2030407 	andge	r0, r3, #117440512	; 0x7000000
    5e24:	00000688 	andeq	r0, r0, r8, lsl #13
    5e28:	0004d208 	andeq	sp, r4, r8, lsl #4
    5e2c:	5ea30300 	cdppl	3, 10, cr0, cr3, cr0, {0}
    5e30:	08000000 	stmdaeq	r0, {}	; <UNPREDICTABLE>
    5e34:	00000ad0 	ldrdeq	r0, [r0], -r0	; <UNPREDICTABLE>
    5e38:	0606ac03 	streq	sl, [r6], -r3, lsl #24
    5e3c:	03000000 	movweq	r0, #0
    5e40:	000005f1 	strdeq	r0, [r0], -r1
    5e44:	0669ad03 	strbteq	sl, [r9], -r3, lsl #26
    5e48:	52090000 	andpl	r0, r9, #0
    5e4c:	04000004 	streq	r0, [r0], #-4
    5e50:	0709b403 	streq	fp, [r9, -r3, lsl #8]
    5e54:	34060000 	strcc	r0, [r6], #-0
    5e58:	0300000d 	movweq	r0, #13
    5e5c:	00005eb6 			; <UNDEFINED> instruction: 0x00005eb6
    5e60:	1c040400 	cfstrsne	mvf0, [r4], {-0}
    5e64:	0b280600 	bleq	a0766c <__bss_end+0xa044f0>
    5e68:	b7030000 	strlt	r0, [r3, -r0]
    5e6c:	0000005e 	andeq	r0, r0, lr, asr r0
    5e70:	001a0204 	andseq	r0, sl, r4, lsl #4
    5e74:	000fa406 	andeq	sl, pc, r6, lsl #8
    5e78:	5eb80300 	cdppl	3, 11, cr0, cr8, cr0, {0}
    5e7c:	04000000 	streq	r0, [r0], #-0
    5e80:	06001802 	streq	r1, [r0], -r2, lsl #16
    5e84:	00000c57 	andeq	r0, r0, r7, asr ip
    5e88:	005eb903 	subseq	fp, lr, r3, lsl #18
    5e8c:	02040000 	andeq	r0, r4, #0
    5e90:	3e060016 	mcrcc	0, 0, r0, cr6, cr6, {0}
    5e94:	0300000d 	movweq	r0, #13
    5e98:	00005eba 			; <UNDEFINED> instruction: 0x00005eba
    5e9c:	14020400 	strne	r0, [r2], #-1024	; 0xfffffc00
    5ea0:	0c420600 	mcrreq	6, 0, r0, r2, cr0
    5ea4:	bb030000 	bllt	c5eac <__bss_end+0xc2d30>
    5ea8:	0000005e 	andeq	r0, r0, lr, asr r0
    5eac:	00120204 	andseq	r0, r2, r4, lsl #4
    5eb0:	000d4806 	andeq	r4, sp, r6, lsl #16
    5eb4:	5ebc0300 	cdppl	3, 11, cr0, cr12, cr0, {0}
    5eb8:	04000000 	streq	r0, [r0], #-0
    5ebc:	00000012 	andeq	r0, r0, r2, lsl r0
    5ec0:	000ee803 	andeq	lr, lr, r3, lsl #16
    5ec4:	93bd0300 			; <UNDEFINED> instruction: 0x93bd0300
    5ec8:	05000006 	streq	r0, [r0, #-6]
    5ecc:	77c50304 	strbvc	r0, [r5, r4, lsl #6]
    5ed0:	06000007 	streq	r0, [r0], -r7
    5ed4:	000007e7 	andeq	r0, r0, r7, ror #15
    5ed8:	005ec703 	subseq	ip, lr, r3, lsl #14
    5edc:	05040000 	streq	r0, [r4, #-0]
    5ee0:	d806001b 	stmdale	r6, {r0, r1, r3, r4}
    5ee4:	0300000f 	movweq	r0, #15
    5ee8:	00005ec8 	andeq	r5, r0, r8, asr #29
    5eec:	100b0400 	andne	r0, fp, r0, lsl #8
    5ef0:	07ec0600 	strbeq	r0, [ip, r0, lsl #12]!
    5ef4:	c9030000 	stmdbgt	r3, {}	; <UNPREDICTABLE>
    5ef8:	0000005e 	andeq	r0, r0, lr, asr r0
    5efc:	000e0204 	andeq	r0, lr, r4, lsl #4
    5f00:	000d3e06 	andeq	r3, sp, r6, lsl #28
    5f04:	5eca0300 	cdppl	3, 12, cr0, cr10, cr0, {0}
    5f08:	04000000 	streq	r0, [r0], #-0
    5f0c:	06000806 	streq	r0, [r0], -r6, lsl #16
    5f10:	00000c46 	andeq	r0, r0, r6, asr #24
    5f14:	005ecb03 	subseq	ip, lr, r3, lsl #22
    5f18:	02040000 	andeq	r0, r4, #0
    5f1c:	48060006 	stmdami	r6, {r1, r2}
    5f20:	0300000d 	movweq	r0, #13
    5f24:	00005ecc 	andeq	r5, r0, ip, asr #29
    5f28:	00060400 	andeq	r0, r6, r0, lsl #8
    5f2c:	04070000 	streq	r0, [r7], #-0
    5f30:	0796c303 	ldreq	ip, [r6, r3, lsl #6]
    5f34:	d2080000 	andle	r0, r8, #0
    5f38:	03000004 	movweq	r0, #4
    5f3c:	00005ec4 	andeq	r5, r0, r4, asr #29
    5f40:	0ad00800 	beq	ff407f48 <__bss_end+0xff404dcc>
    5f44:	cd030000 	stcgt	0, cr0, [r3, #-0]
    5f48:	00000714 	andeq	r0, r0, r4, lsl r7
    5f4c:	0b650300 	bleq	1946b54 <__bss_end+0x19439d8>
    5f50:	ce030000 	cdpgt	0, 0, cr0, cr3, cr0, {0}
    5f54:	00000777 	andeq	r0, r0, r7, ror r7
    5f58:	0009de09 	andeq	sp, r9, r9, lsl #28
    5f5c:	d0030400 	andle	r0, r3, r0, lsl #8
    5f60:	000007cc 	andeq	r0, r0, ip, asr #15
    5f64:	000f9b06 	andeq	r9, pc, r6, lsl #22
    5f68:	5ed20300 	cdppl	3, 13, cr0, cr2, cr0, {0}
    5f6c:	04000000 	streq	r0, [r0], #-0
    5f70:	06001010 			; <UNDEFINED> instruction: 0x06001010
    5f74:	00000fd8 	ldrdeq	r0, [r0], -r8
    5f78:	005ed303 	subseq	sp, lr, r3, lsl #6
    5f7c:	10040000 	andne	r0, r4, r0
    5f80:	03000000 	movweq	r0, #0
    5f84:	00000e2e 	andeq	r0, r0, lr, lsr #28
    5f88:	07a1d403 	streq	sp, [r1, r3, lsl #8]!
    5f8c:	4e0a0000 	cdpmi	0, 0, cr0, cr10, cr0, {0}
    5f90:	dc000010 	stcle	0, cr0, [r0], {16}
    5f94:	a4d60302 	ldrbge	r0, [r6], #770	; 0x302
    5f98:	0b00000e 	bleq	5fd8 <__bss_end+0x2e5c>
    5f9c:	00000976 	andeq	r0, r0, r6, ror r9
    5fa0:	0ea4d803 	cdpeq	8, 10, cr13, cr4, cr3, {0}
    5fa4:	0b000000 	bleq	5fac <__bss_end+0x2e30>
    5fa8:	00000d34 	andeq	r0, r0, r4, lsr sp
    5fac:	0ea9d903 	cdpeq	9, 10, cr13, cr9, cr3, {0}
    5fb0:	0b040000 	bleq	105fb8 <__bss_end+0x102e3c>
    5fb4:	00001046 	andeq	r1, r0, r6, asr #32
    5fb8:	0eaeda03 	vfmaeq.f32	s26, s28, s6
    5fbc:	0b080000 	bleq	205fc4 <__bss_end+0x202e48>
    5fc0:	00000d3e 	andeq	r0, r0, lr, lsr sp
    5fc4:	0ea9db03 	vfmaeq.f64	d13, d9, d3
    5fc8:	0b0c0000 	bleq	305fd0 <__bss_end+0x302e54>
    5fcc:	00000b47 	andeq	r0, r0, r7, asr #22
    5fd0:	0ea9dc03 	cdpeq	12, 10, cr13, cr9, cr3, {0}
    5fd4:	0b100000 	bleq	405fdc <__bss_end+0x402e60>
    5fd8:	00000d48 	andeq	r0, r0, r8, asr #26
    5fdc:	0ea9dd03 	cdpeq	13, 10, cr13, cr9, cr3, {0}
    5fe0:	0b140000 	bleq	505fe8 <__bss_end+0x502e6c>
    5fe4:	000005a5 	andeq	r0, r0, r5, lsr #11
    5fe8:	0ea9de03 	cdpeq	14, 10, cr13, cr9, cr3, {0}
    5fec:	0b180000 	bleq	605ff4 <__bss_end+0x602e78>
    5ff0:	00000d52 	andeq	r0, r0, r2, asr sp
    5ff4:	0ea9df03 	cdpeq	15, 10, cr13, cr9, cr3, {0}
    5ff8:	0b1c0000 	bleq	706000 <__bss_end+0x702e84>
    5ffc:	00000c7e 	andeq	r0, r0, lr, ror ip
    6000:	0eb3e003 	cdpeq	0, 11, cr14, cr3, cr3, {0}
    6004:	0b200000 	bleq	80600c <__bss_end+0x802e90>
    6008:	00000d5c 	andeq	r0, r0, ip, asr sp
    600c:	0ea9e103 	taneqe	f6, f3
    6010:	0b240000 	bleq	906018 <__bss_end+0x902e9c>
    6014:	0000053c 	andeq	r0, r0, ip, lsr r5
    6018:	0eb8e203 	cdpeq	2, 11, cr14, cr8, cr3, {0}
    601c:	0b280000 	bleq	a06024 <__bss_end+0xa02ea8>
    6020:	00000d66 	andeq	r0, r0, r6, ror #26
    6024:	0ea9e303 	cdpeq	3, 10, cr14, cr9, cr3, {0}
    6028:	0b2c0000 	bleq	b06030 <__bss_end+0xb02eb4>
    602c:	00000c73 	andeq	r0, r0, r3, ror ip
    6030:	0ea9e403 	cdpeq	4, 10, cr14, cr9, cr3, {0}
    6034:	0b300000 	bleq	c0603c <__bss_end+0xc02ec0>
    6038:	00000d70 	andeq	r0, r0, r0, ror sp
    603c:	0ea9e503 	cdpeq	5, 10, cr14, cr9, cr3, {0}
    6040:	0b340000 	bleq	d06048 <__bss_end+0xd02ecc>
    6044:	000009cb 	andeq	r0, r0, fp, asr #19
    6048:	0ebde603 	cdpeq	6, 11, cr14, cr13, cr3, {0}
    604c:	0b380000 	bleq	e06054 <__bss_end+0xe02ed8>
    6050:	00000d7a 	andeq	r0, r0, sl, ror sp
    6054:	0ea9e703 	cdpeq	7, 10, cr14, cr9, cr3, {0}
    6058:	0b3c0000 	bleq	f06060 <__bss_end+0xf02ee4>
    605c:	0000072d 	andeq	r0, r0, sp, lsr #14
    6060:	0ec2e803 	cdpeq	8, 12, cr14, cr2, cr3, {0}
    6064:	0b400000 	bleq	100606c <__bss_end+0x1002ef0>
    6068:	000010b8 	strheq	r1, [r0], -r8
    606c:	0ea9e903 	cdpeq	9, 10, cr14, cr9, cr3, {0}
    6070:	0b440000 	bleq	1106078 <__bss_end+0x1102efc>
    6074:	0000059c 	muleq	r0, ip, r5
    6078:	0ea9ea03 	vfmaeq.f32	s28, s18, s6
    607c:	0b480000 	bleq	1206084 <__bss_end+0x1202f08>
    6080:	00000cc6 	andeq	r0, r0, r6, asr #25
    6084:	0ea9eb03 	vfmaeq.f64	d14, d9, d3
    6088:	0b4c0000 	bleq	1306090 <__bss_end+0x1302f14>
    608c:	00000b4f 	andeq	r0, r0, pc, asr #22
    6090:	0ec7ec03 	cdpeq	12, 12, cr14, cr7, cr3, {0}
    6094:	0b500000 	bleq	140609c <__bss_end+0x1402f20>
    6098:	00000b28 	andeq	r0, r0, r8, lsr #22
    609c:	0ecced03 	cdpeq	13, 12, cr14, cr12, cr3, {0}
    60a0:	0b540000 	bleq	15060a8 <__bss_end+0x1502f2c>
    60a4:	00000750 	andeq	r0, r0, r0, asr r7
    60a8:	0ed1ee03 	cdpeq	14, 13, cr14, cr1, cr3, {0}
    60ac:	0b580000 	bleq	16060b4 <__bss_end+0x1602f38>
    60b0:	00000f27 	andeq	r0, r0, r7, lsr #30
    60b4:	0ea9ef03 	cdpeq	15, 10, cr14, cr9, cr3, {0}
    60b8:	0b5c0000 	bleq	17060c0 <__bss_end+0x1702f44>
    60bc:	00000e11 	andeq	r0, r0, r1, lsl lr
    60c0:	0ea9f003 	cdpeq	0, 10, cr15, cr9, cr3, {0}
    60c4:	0b600000 	bleq	18060cc <__bss_end+0x1802f50>
    60c8:	0000093c 	andeq	r0, r0, ip, lsr r9
    60cc:	0ea9f103 	taneqe	f7, f3
    60d0:	0b640000 	bleq	19060d8 <__bss_end+0x1902f5c>
    60d4:	00000feb 	andeq	r0, r0, fp, ror #31
    60d8:	0ea9f203 	cdpeq	2, 10, cr15, cr9, cr3, {0}
    60dc:	0b680000 	bleq	1a060e4 <__bss_end+0x1a02f68>
    60e0:	00000bd6 	ldrdeq	r0, [r0], -r6
    60e4:	0ea9f303 	cdpeq	3, 10, cr15, cr9, cr3, {0}
    60e8:	0b6c0000 	bleq	1b060f0 <__bss_end+0x1b02f74>
    60ec:	00000d84 	andeq	r0, r0, r4, lsl #27
    60f0:	0eedf403 	cdpeq	4, 14, cr15, cr13, cr3, {0}
    60f4:	0b700000 	bleq	1c060fc <__bss_end+0x1c02f80>
    60f8:	00001076 	andeq	r1, r0, r6, ror r0
    60fc:	0ea9f503 	cdpeq	5, 10, cr15, cr9, cr3, {0}
    6100:	0b800000 	bleq	fe006108 <__bss_end+0xfe002f8c>
    6104:	00000ff4 	strdeq	r0, [r0], -r4
    6108:	0ea9f603 	cdpeq	6, 10, cr15, cr9, cr3, {0}
    610c:	0c840000 	stceq	0, cr0, [r4], {0}
    6110:	00306453 	eorseq	r6, r0, r3, asr r4
    6114:	0ea9f703 	cdpeq	7, 10, cr15, cr9, cr3, {0}
    6118:	0c880000 	stceq	0, cr0, [r8], {0}
    611c:	00316453 	eorseq	r6, r1, r3, asr r4
    6120:	0ea9f803 	cdpeq	8, 10, cr15, cr9, cr3, {0}
    6124:	0c8c0000 	stceq	0, cr0, [ip], {0}
    6128:	00326453 	eorseq	r6, r2, r3, asr r4
    612c:	0ea9f903 	cdpeq	9, 10, cr15, cr9, cr3, {0}
    6130:	0b900000 	bleq	fe406138 <__bss_end+0xfe402fbc>
    6134:	00000fff 	strdeq	r0, [r0], -pc	; <UNPREDICTABLE>
    6138:	0f02fa03 	svceq	0x0002fa03
    613c:	0c940000 	ldceq	0, cr0, [r4], {0}
    6140:	03007353 	movweq	r7, #851	; 0x353
    6144:	000ea9fb 	strdeq	sl, [lr], -fp
    6148:	070b9c00 	streq	r9, [fp, -r0, lsl #24]
    614c:	0300000e 	movweq	r0, #14
    6150:	000ea9fc 	strdeq	sl, [lr], -ip
    6154:	0c0ba000 	stceq	0, cr10, [fp], {-0}
    6158:	0300000e 	movweq	r0, #14
    615c:	000ea9fd 	strdeq	sl, [lr], -sp
    6160:	0a0ba400 	beq	2ef168 <__bss_end+0x2ebfec>
    6164:	03000010 	movweq	r0, #16
    6168:	000f07fe 	strdeq	r0, [pc], -lr
    616c:	920ba800 	andls	sl, fp, #0, 16
    6170:	03000005 	movweq	r0, #5
    6174:	000ea9ff 	strdeq	sl, [lr], -pc	; <UNPREDICTABLE>
    6178:	970db000 	strls	fp, [sp, -r0]
    617c:	03000005 	movweq	r0, #5
    6180:	0ea90100 	fdveqe	f0, f1, f0
    6184:	0db40000 	ldceq	0, cr0, [r4]
    6188:	000009d3 	ldrdeq	r0, [r0], -r3
    618c:	0c010103 	stfeqs	f0, [r1], {3}
    6190:	b800000f 	stmdalt	r0, {r0, r1, r2, r3}
    6194:	000e650d 	andeq	r6, lr, sp, lsl #10
    6198:	01020300 	mrseq	r0, LR_svc
    619c:	00000ea9 	andeq	r0, r0, r9, lsr #29
    61a0:	0b040dc0 	bleq	1098a8 <__bss_end+0x10672c>
    61a4:	03030000 	movweq	r0, #12288	; 0x3000
    61a8:	000f1101 	andeq	r1, pc, r1, lsl #2
    61ac:	550ec400 	strpl	ip, [lr, #-1024]	; 0xfffffc00
    61b0:	03006273 	movweq	r6, #627	; 0x273
    61b4:	0ea90104 	fdveqe	f0, f1, f4
    61b8:	0dcc0000 	stcleq	0, cr0, [ip]
    61bc:	00000f52 	andeq	r0, r0, r2, asr pc
    61c0:	a9010503 	stmdbge	r1, {r0, r1, r8, sl}
    61c4:	d000000e 	andle	r0, r0, lr
    61c8:	0009f50d 	andeq	pc, r9, sp, lsl #10
    61cc:	01060300 	mrseq	r0, LR_und
    61d0:	00000f26 	andeq	r0, r0, r6, lsr #30
    61d4:	103a0dd4 	ldrsbtne	r0, [sl], -r4
    61d8:	07030000 	streq	r0, [r3, -r0]
    61dc:	000ea901 	andeq	sl, lr, r1, lsl #18
    61e0:	e00df000 	and	pc, sp, r0
    61e4:	0300000e 	movweq	r0, #14
    61e8:	0ea90108 	fdveqe	f0, f1, #0.0
    61ec:	0df40000 	ldcleq	0, cr0, [r4]
    61f0:	00000a32 	andeq	r0, r0, r2, lsr sl
    61f4:	a9010903 	stmdbge	r1, {r0, r1, r8, fp}
    61f8:	f800000e 			; <UNDEFINED> instruction: 0xf800000e
    61fc:	000b810d 	andeq	r8, fp, sp, lsl #2
    6200:	010a0300 	mrseq	r0, (UNDEF: 58)
    6204:	00000ea9 	andeq	r0, r0, r9, lsr #29
    6208:	0c390ffc 	ldceq	15, cr0, [r9], #-1008	; 0xfffffc10
    620c:	0b030000 	bleq	c6214 <__bss_end+0xc3098>
    6210:	000ea901 	andeq	sl, lr, r1, lsl #18
    6214:	10010000 	andne	r0, r1, r0
    6218:	00306542 	eorseq	r6, r0, r2, asr #10
    621c:	a9010c03 	stmdbge	r1, {r0, r1, sl, fp}
    6220:	0400000e 	streq	r0, [r0], #-14
    6224:	0b3b0f01 	bleq	ec9e30 <__bss_end+0xec6cb4>
    6228:	0d030000 	stceq	0, cr0, [r3, #-0]
    622c:	000ea901 	andeq	sl, lr, r1, lsl #18
    6230:	10010800 	andne	r0, r1, r0, lsl #16
    6234:	00306546 	eorseq	r6, r0, r6, asr #10
    6238:	a9010e03 	stmdbge	r1, {r0, r1, r9, sl, fp}
    623c:	0c00000e 	stceq	0, cr0, [r0], {14}
    6240:	049c0f01 	ldreq	r0, [ip], #3841	; 0xf01
    6244:	0f030000 	svceq	0x00030000
    6248:	000ea901 	andeq	sl, lr, r1, lsl #18
    624c:	0f011000 	svceq	0x00011000
    6250:	000004a8 	andeq	r0, r0, r8, lsr #9
    6254:	a9011003 	stmdbge	r1, {r0, r1, ip}
    6258:	1400000e 	strne	r0, [r0], #-14
    625c:	05110f01 	ldreq	r0, [r1, #-3841]	; 0xfffff0ff
    6260:	11030000 	mrsne	r0, (UNDEF: 3)
    6264:	000ea901 	andeq	sl, lr, r1, lsl #18
    6268:	0f011800 	svceq	0x00011800
    626c:	000004b4 			; <UNDEFINED> instruction: 0x000004b4
    6270:	a9011203 	stmdbge	r1, {r0, r1, r9, ip}
    6274:	1c00000e 	stcne	0, cr0, [r0], {14}
    6278:	0a060f01 	beq	189e84 <__bss_end+0x186d08>
    627c:	13030000 	movwne	r0, #12288	; 0x3000
    6280:	000f3b01 	andeq	r3, pc, r1, lsl #22
    6284:	0f012000 	svceq	0x00012000
    6288:	00000519 	andeq	r0, r0, r9, lsl r5
    628c:	a9011403 	stmdbge	r1, {r0, r1, sl, ip}
    6290:	2c00000e 	stccs	0, cr0, [r0], {14}
    6294:	05510f01 	ldrbeq	r0, [r1, #-3841]	; 0xfffff0ff
    6298:	15030000 	strne	r0, [r3, #-0]
    629c:	000ea901 	andeq	sl, lr, r1, lsl #18
    62a0:	0f013000 	svceq	0x00013000
    62a4:	00000db4 			; <UNDEFINED> instruction: 0x00000db4
    62a8:	a9011603 	stmdbge	r1, {r0, r1, r9, sl, ip}
    62ac:	3400000e 	strcc	r0, [r0], #-14
    62b0:	055d0f01 	ldrbeq	r0, [sp, #-3841]	; 0xfffff0ff
    62b4:	17030000 	strne	r0, [r3, -r0]
    62b8:	000ea901 	andeq	sl, lr, r1, lsl #18
    62bc:	10013800 	andne	r3, r1, r0, lsl #16
    62c0:	03006556 	movweq	r6, #1366	; 0x556
    62c4:	0ea90118 	mcreq	1, 5, r0, cr9, cr8, {0}
    62c8:	013c0000 	teqeq	ip, r0
    62cc:	00097e0f 	andeq	r7, r9, pc, lsl #28
    62d0:	01190300 	tsteq	r9, r0, lsl #6
    62d4:	00000ea9 	andeq	r0, r0, r9, lsr #29
    62d8:	41100140 	tstmi	r0, r0, asr #2
    62dc:	03007376 	movweq	r7, #886	; 0x376
    62e0:	0ea9011a 	mcreq	1, 5, r0, cr9, cr10, {0}
    62e4:	01440000 	mrseq	r0, (UNDEF: 68)
    62e8:	0005690f 	andeq	r6, r5, pc, lsl #18
    62ec:	011b0300 	tsteq	fp, r0, lsl #6
    62f0:	00000ea9 	andeq	r0, r0, r9, lsr #29
    62f4:	110f0148 	tstne	pc, r8, asr #2
    62f8:	0300000a 	movweq	r0, #10
    62fc:	0ea9011c 	mcreq	1, 5, r0, cr9, cr12, {0}
    6300:	014c0000 	mrseq	r0, (UNDEF: 76)
    6304:	00064c0f 	andeq	r4, r6, pc, lsl #24
    6308:	011d0300 	tsteq	sp, r0, lsl #6
    630c:	00000ea9 	andeq	r0, r0, r9, lsr #29
    6310:	580f0150 	stmdapl	pc, {r4, r6, r8}	; <UNPREDICTABLE>
    6314:	03000006 	movweq	r0, #6
    6318:	0ea9011e 	mcreq	1, 5, r0, cr9, cr14, {0}
    631c:	01540000 	cmpeq	r4, r0
    6320:	0006640f 	andeq	r6, r6, pc, lsl #8
    6324:	011f0300 	tsteq	pc, r0, lsl #6
    6328:	00000ea9 	andeq	r0, r0, r9, lsr #29
    632c:	cc0f0158 	stfgts	f0, [pc], {88}	; 0x58
    6330:	03000006 	movweq	r0, #6
    6334:	0ea90120 	fdveqep	f0, f1, f0
    6338:	015c0000 	cmpeq	ip, r0
    633c:	0006700f 	andeq	r7, r6, pc
    6340:	01210300 			; <UNDEFINED> instruction: 0x01210300
    6344:	00000ea9 	andeq	r0, r0, r9, lsr #29
    6348:	1c0f0160 	stfnes	f0, [pc], {96}	; 0x60
    634c:	0300000a 	movweq	r0, #10
    6350:	0ea90122 	fdveqep	f0, f1, f2
    6354:	01640000 	cmneq	r4, r0
    6358:	0005da0f 	andeq	sp, r5, pc, lsl #20
    635c:	01230300 			; <UNDEFINED> instruction: 0x01230300
    6360:	00000ea9 	andeq	r0, r0, r9, lsr #29
    6364:	8f0f0168 	svchi	0x000f0168
    6368:	0300000f 	movweq	r0, #15
    636c:	0ea90124 	fdveqep	f0, f1, f4
    6370:	016c0000 	cmneq	ip, r0
    6374:	000a270f 	andeq	r2, sl, pc, lsl #14
    6378:	01250300 			; <UNDEFINED> instruction: 0x01250300
    637c:	00000f40 	andeq	r0, r0, r0, asr #30
    6380:	a30f0170 	movwge	r0, #61808	; 0xf170
    6384:	03000008 	movweq	r0, #8
    6388:	0ea90126 	fdveqep	f0, f1, f6
    638c:	01800000 	orreq	r0, r0, r0
    6390:	0008520f 	andeq	r5, r8, pc, lsl #4
    6394:	01270300 			; <UNDEFINED> instruction: 0x01270300
    6398:	00000ea9 	andeq	r0, r0, r9, lsr #29
    639c:	5e0f0184 	adfpl<illegal precision>	f0, f7, f4
    63a0:	03000008 	movweq	r0, #8
    63a4:	0ea90128 	fdveqep	f0, f1, #0.0
    63a8:	01880000 	orreq	r0, r8, r0
    63ac:	00086a0f 	andeq	r6, r8, pc, lsl #20
    63b0:	01290300 			; <UNDEFINED> instruction: 0x01290300
    63b4:	00000ea9 	andeq	r0, r0, r9, lsr #29
    63b8:	300f018c 	andcc	r0, pc, ip, lsl #3
    63bc:	0300000b 	movweq	r0, #11
    63c0:	0f45012a 	svceq	0x0045012a
    63c4:	01900000 	orrseq	r0, r0, r0
    63c8:	00089b0f 	andeq	r9, r8, pc, lsl #22
    63cc:	012b0300 			; <UNDEFINED> instruction: 0x012b0300
    63d0:	00000ea9 	andeq	r0, r0, r9, lsr #29
    63d4:	ca0f01a0 	bgt	3c6a5c <__bss_end+0x3c38e0>
    63d8:	03000007 	movweq	r0, #7
    63dc:	0ea9012c 	fdveqep	f0, f1, #4.0
    63e0:	01a40000 			; <UNDEFINED> instruction: 0x01a40000
    63e4:	000b8e0f 	andeq	r8, fp, pc, lsl #28
    63e8:	012d0300 			; <UNDEFINED> instruction: 0x012d0300
    63ec:	00000ea9 	andeq	r0, r0, r9, lsr #29
    63f0:	f30f01a8 	vrhadd.u8	d0, d31, d24
    63f4:	03000008 	movweq	r0, #8
    63f8:	0ea9012e 	fdveqep	f0, f1, #0.5
    63fc:	01ac0000 			; <UNDEFINED> instruction: 0x01ac0000
    6400:	73744110 	cmnvc	r4, #16, 2
    6404:	012f0300 			; <UNDEFINED> instruction: 0x012f0300
    6408:	00000ea9 	andeq	r0, r0, r9, lsr #29
    640c:	3c0f01b0 	stfccs	f0, [pc], {176}	; 0xb0
    6410:	0300000a 	movweq	r0, #10
    6414:	0f5a0130 	svceq	0x005a0130
    6418:	01b40000 			; <UNDEFINED> instruction: 0x01b40000
    641c:	0008760f 	andeq	r7, r8, pc, lsl #12
    6420:	01310300 	teqeq	r1, r0, lsl #6
    6424:	00000f5f 	andeq	r0, r0, pc, asr pc
    6428:	f70f0200 			; <UNDEFINED> instruction: 0xf70f0200
    642c:	0300000b 	movweq	r0, #11
    6430:	0ea90132 	mcreq	1, 5, r0, cr9, cr2, {1}
    6434:	02040000 	andeq	r0, r4, #0
    6438:	000fcc0f 	andeq	ip, pc, pc, lsl #24
    643c:	01330300 	teqeq	r3, r0, lsl #6
    6440:	00000f74 	andeq	r0, r0, r4, ror pc
    6444:	a40f0208 	strge	r0, [pc], #-520	; 644c <__bss_end+0x32d0>
    6448:	0300000a 	movweq	r0, #10
    644c:	0f890134 	svceq	0x00890134
    6450:	02200000 	eoreq	r0, r0, #0
    6454:	0006270f 	andeq	r2, r6, pc, lsl #14
    6458:	01350300 	teqeq	r5, r0, lsl #6
    645c:	00000ea9 	andeq	r0, r0, r9, lsr #29
    6460:	600f0224 	andvs	r0, pc, r4, lsr #4
    6464:	03000009 	movweq	r0, #9
    6468:	0ea90136 	mcreq	1, 5, r0, cr9, cr6, {1}
    646c:	02280000 	eoreq	r0, r8, #0
    6470:	000aeb0f 	andeq	lr, sl, pc, lsl #22
    6474:	01370300 	teqeq	r7, r0, lsl #6
    6478:	00000ea9 	andeq	r0, r0, r9, lsr #29
    647c:	000f022c 	andeq	r0, pc, ip, lsr #4
    6480:	0300000c 	movweq	r0, #12
    6484:	0ea90138 	mcreq	1, 5, r0, cr9, cr8, {1}
    6488:	02300000 	eorseq	r0, r0, #0
    648c:	000e470f 	andeq	r4, lr, pc, lsl #14
    6490:	01390300 	teqeq	r9, r0, lsl #6
    6494:	00000ea9 	andeq	r0, r0, r9, lsr #29
    6498:	600f0234 	andvs	r0, pc, r4, lsr r2	; <UNPREDICTABLE>
    649c:	03000007 	movweq	r0, #7
    64a0:	0ea9013a 	mcreq	1, 5, r0, cr9, cr10, {1}
    64a4:	02380000 	eorseq	r0, r8, #0
    64a8:	00079c0f 	andeq	r9, r7, pc, lsl #24
    64ac:	013b0300 	teqeq	fp, r0, lsl #6
    64b0:	00000ea9 	andeq	r0, r0, r9, lsr #29
    64b4:	ad0f023c 	sfmge	f0, 4, [pc, #-240]	; 63cc <__bss_end+0x3250>
    64b8:	0300000a 	movweq	r0, #10
    64bc:	0ea9013c 	mcreq	1, 5, r0, cr9, cr12, {1}
    64c0:	02400000 	subeq	r0, r0, #0
    64c4:	0006a20f 	andeq	sl, r6, pc, lsl #4
    64c8:	013d0300 	teqeq	sp, r0, lsl #6
    64cc:	00000ea9 	andeq	r0, r0, r9, lsr #29
    64d0:	4d0f0244 	sfmmi	f0, 4, [pc, #-272]	; 63c8 <__bss_end+0x324c>
    64d4:	0300000c 	movweq	r0, #12
    64d8:	0ea9013e 	mcreq	1, 5, r0, cr9, cr14, {1}
    64dc:	02480000 	subeq	r0, r8, #0
    64e0:	000eb10f 	andeq	fp, lr, pc, lsl #2
    64e4:	013f0300 	teqeq	pc, r0, lsl #6
    64e8:	00000ea9 	andeq	r0, r0, r9, lsr #29
    64ec:	c40f024c 	strgt	r0, [pc], #-588	; 64f4 <__bss_end+0x3378>
    64f0:	03000006 	movweq	r0, #6
    64f4:	0ea90140 	fdveqem	f0, f1, f0
    64f8:	02500000 	subseq	r0, r0, #0
    64fc:	00076c0f 	andeq	r6, r7, pc, lsl #24
    6500:	01410300 	mrseq	r0, (UNDEF: 113)
    6504:	00000f8e 	andeq	r0, r0, lr, lsl #31
    6508:	f50f0254 			; <UNDEFINED> instruction: 0xf50f0254
    650c:	0300000a 	movweq	r0, #10
    6510:	0ea90142 	fdveqem	f0, f1, f2
    6514:	02600000 	rsbeq	r0, r0, #0
    6518:	0007780f 	andeq	r7, r7, pc, lsl #16
    651c:	01430300 	mrseq	r0, (UNDEF: 115)
    6520:	00000f93 	muleq	r0, r3, pc	; <UNPREDICTABLE>
    6524:	c50f0264 	strgt	r0, [pc, #-612]	; 62c8 <__bss_end+0x314c>
    6528:	0300000a 	movweq	r0, #10
    652c:	0ea90144 	fdveqem	f0, f1, f4
    6530:	02700000 	rsbseq	r0, r0, #0
    6534:	0007840f 	andeq	r8, r7, pc, lsl #8
    6538:	01450300 	mrseq	r0, (UNDEF: 117)
    653c:	00000f98 	muleq	r0, r8, pc	; <UNPREDICTABLE>
    6540:	b90f0274 	stmdblt	pc, {r2, r4, r5, r6, r9}	; <UNPREDICTABLE>
    6544:	0300000a 	movweq	r0, #10
    6548:	0ea90146 	fdveqem	f0, f1, f6
    654c:	02800000 	addeq	r0, r0, #0
    6550:	000df00f 	andeq	pc, sp, pc
    6554:	01470300 	mrseq	r0, (UNDEF: 119)
    6558:	00000ea9 	andeq	r0, r0, r9, lsr #29
    655c:	af0f0284 	svcge	0x000f0284
    6560:	0300000f 	movweq	r0, #15
    6564:	0ea90148 	fdveqem	f0, f1, #0.0
    6568:	02880000 	addeq	r0, r8, #0
    656c:	000fbf0f 	andeq	fp, pc, pc, lsl #30
    6570:	01490300 	mrseq	r0, (UNDEF: 121)
    6574:	00000ea9 	andeq	r0, r0, r9, lsr #29
    6578:	420f028c 	andmi	r0, pc, #140, 4	; 0xc0000008
    657c:	03000004 	movweq	r0, #4
    6580:	0ea9014a 	fdveqem	f0, f1, #2.0
    6584:	02900000 	addseq	r0, r0, #0
    6588:	000e1a0f 	andeq	r1, lr, pc, lsl #20
    658c:	014b0300 	mrseq	r0, (UNDEF: 123)
    6590:	00000f9d 	muleq	r0, sp, pc	; <UNPREDICTABLE>
    6594:	d10f0294 			; <UNDEFINED> instruction: 0xd10f0294
    6598:	03000007 	movweq	r0, #7
    659c:	0ea9014c 	fdveqem	f0, f1, #4.0
    65a0:	029c0000 	addseq	r0, ip, #0
    65a4:	000a500f 	andeq	r5, sl, pc
    65a8:	014d0300 	mrseq	r0, (UNDEF: 125)
    65ac:	00000ea9 	andeq	r0, r0, r9, lsr #29
    65b0:	7c0f02a0 	sfmvc	f0, 4, [pc], {160}	; 0xa0
    65b4:	03000006 	movweq	r0, #6
    65b8:	0ea9014e 	fdveqem	f0, f1, #0.5
    65bc:	02a40000 	adceq	r0, r4, #0
    65c0:	000d9a0f 	andeq	r9, sp, pc, lsl #20
    65c4:	014f0300 	mrseq	r0, (UNDEF: 127)
    65c8:	00000ea9 	andeq	r0, r0, r9, lsr #29
    65cc:	670f02a8 	strvs	r0, [pc, -r8, lsr #5]
    65d0:	0300000f 	movweq	r0, #15
    65d4:	0ea90150 	mcreq	1, 5, r0, cr9, cr0, {2}
    65d8:	02ac0000 	adceq	r0, ip, #0
    65dc:	000f7b0f 	andeq	r7, pc, pc, lsl #22
    65e0:	01510300 	cmpeq	r1, r0, lsl #6
    65e4:	00000ea9 	andeq	r0, r0, r9, lsr #29
    65e8:	900f02b0 			; <UNDEFINED> instruction: 0x900f02b0
    65ec:	03000007 	movweq	r0, #7
    65f0:	0fa20152 	svceq	0x00a20152
    65f4:	02b40000 	adcseq	r0, r4, #0
    65f8:	000b9c0f 	andeq	r9, fp, pc, lsl #24
    65fc:	01530300 	cmpeq	r3, r0, lsl #6
    6600:	00000ea9 	andeq	r0, r0, r9, lsr #29
    6604:	a60f02c0 	strge	r0, [pc], -r0, asr #5
    6608:	0300000b 	movweq	r0, #11
    660c:	0ea90154 	mcreq	1, 5, r0, cr9, cr4, {2}
    6610:	02c40000 	sbceq	r0, r4, #0
    6614:	000bb00f 	andeq	fp, fp, pc
    6618:	01550300 	cmpeq	r5, r0, lsl #6
    661c:	00000ea9 	andeq	r0, r0, r9, lsr #29
    6620:	d50f02c8 	strle	r0, [pc, #-712]	; 6360 <__bss_end+0x31e4>
    6624:	0300000a 	movweq	r0, #10
    6628:	0ea90156 	mcreq	1, 5, r0, cr9, cr6, {2}
    662c:	02cc0000 	sbceq	r0, ip, #0
    6630:	000d100f 	andeq	r1, sp, pc
    6634:	01570300 	cmpeq	r7, r0, lsl #6
    6638:	00000ea9 	andeq	r0, r0, r9, lsr #29
    663c:	e00f02d0 	ldrd	r0, [pc], -r0	; <UNPREDICTABLE>
    6640:	0300000a 	movweq	r0, #10
    6644:	0ea90158 	mcreq	1, 5, r0, cr9, cr8, {2}
    6648:	02d40000 	sbcseq	r0, r4, #0
    664c:	0008210f 	andeq	r2, r8, pc, lsl #2
    6650:	01590300 	cmpeq	r9, r0, lsl #6
    6654:	00000ea9 	andeq	r0, r0, r9, lsr #29
    6658:	110002d8 	ldrdne	r0, [r0, -r8]
    665c:	00000169 	andeq	r0, r0, r9, ror #2
    6660:	00005e11 	andeq	r5, r0, r1, lsl lr
    6664:	02261100 	eoreq	r1, r6, #0, 2
    6668:	01110000 	tsteq	r1, r0
    666c:	11000003 	tstne	r0, r3
    6670:	000003fa 	strdeq	r0, [r0], -sl
    6674:	0004c611 	andeq	ip, r4, r1, lsl r6
    6678:	05fb1100 	ldrbeq	r1, [fp, #256]!	; 0x100
    667c:	88110000 	ldmdahi	r1, {}	; <UNPREDICTABLE>
    6680:	11000006 	tstne	r0, r6
    6684:	00000709 	andeq	r0, r0, r9, lsl #14
    6688:	00079611 	andeq	r9, r7, r1, lsl r6
    668c:	005e1200 	subseq	r1, lr, r0, lsl #4
    6690:	0ee60000 	cdpeq	0, 14, cr0, cr6, cr0, {0}
    6694:	e6130000 	ldr	r0, [r3], -r0
    6698:	0300000e 	movweq	r0, #14
    669c:	07040200 	streq	r0, [r4, -r0, lsl #4]
    66a0:	0000022d 	andeq	r0, r0, sp, lsr #4
    66a4:	000ed611 	andeq	sp, lr, r1, lsl r6
    66a8:	005e1200 	subseq	r1, lr, r0, lsl #4
    66ac:	0f020000 	svceq	0x00020000
    66b0:	e6130000 	ldr	r0, [r3], -r0
    66b4:	0100000e 	tsteq	r0, lr
    66b8:	0ef21100 	cdpeq	1, 15, cr1, cr2, cr0, {0}
    66bc:	f2110000 	vhadd.s16	d0, d1, d0
    66c0:	1100000e 	tstne	r0, lr
    66c4:	00000ef2 	strdeq	r0, [r0], -r2
    66c8:	000ef211 	andeq	pc, lr, r1, lsl r2	; <UNPREDICTABLE>
    66cc:	005e1200 	subseq	r1, lr, r0, lsl #4
    66d0:	0f260000 	svceq	0x00260000
    66d4:	e6130000 	ldr	r0, [r3], -r0
    66d8:	0600000e 	streq	r0, [r0], -lr
    66dc:	0f161100 	svceq	0x00161100
    66e0:	5e120000 	cdppl	0, 1, cr0, cr2, cr0, {0}
    66e4:	3b000000 	blcc	66ec <__bss_end+0x3570>
    66e8:	1300000f 	movwne	r0, #15
    66ec:	00000ee6 	andeq	r0, r0, r6, ror #29
    66f0:	2b110002 	blcs	446700 <__bss_end+0x443584>
    66f4:	1100000f 	tstne	r0, pc
    66f8:	00000ed6 	ldrdeq	r0, [r0], -r6
    66fc:	000ed611 	andeq	sp, lr, r1, lsl r6
    6700:	005e1200 	subseq	r1, lr, r0, lsl #4
    6704:	0f5a0000 	svceq	0x005a0000
    6708:	e6130000 	ldr	r0, [r3], -r0
    670c:	1200000e 	andne	r0, r0, #14
    6710:	0f4a1100 	svceq	0x004a1100
    6714:	cc110000 	ldcgt	0, cr0, [r1], {-0}
    6718:	12000007 	andne	r0, r0, #7
    671c:	0000005e 	andeq	r0, r0, lr, asr r0
    6720:	00000f74 	andeq	r0, r0, r4, ror pc
    6724:	000ee613 	andeq	lr, lr, r3, lsl r6
    6728:	11000500 	tstne	r0, r0, lsl #10
    672c:	00000f64 	andeq	r0, r0, r4, ror #30
    6730:	00005e12 	andeq	r5, r0, r2, lsl lr
    6734:	000f8900 	andeq	r8, pc, r0, lsl #18
    6738:	0ee61300 	cdpeq	3, 14, cr1, cr6, cr0, {0}
    673c:	00000000 	andeq	r0, r0, r0
    6740:	000f7911 	andeq	r7, pc, r1, lsl r9	; <UNPREDICTABLE>
    6744:	0f2b1100 	svceq	0x002b1100
    6748:	2b110000 	blcs	446750 <__bss_end+0x4435d4>
    674c:	1100000f 	tstne	r0, pc
    6750:	00000f2b 	andeq	r0, r0, fp, lsr #30
    6754:	000ef211 	andeq	pc, lr, r1, lsl r2	; <UNPREDICTABLE>
    6758:	0f2b1100 	svceq	0x002b1100
    675c:	94140000 	ldrls	r0, [r4], #-0
    6760:	0300000e 	movweq	r0, #14
    6764:	07d7015a 			; <UNDEFINED> instruction: 0x07d7015a
    6768:	04150000 	ldreq	r0, [r5], #-0
    676c:	00000fa7 	andeq	r0, r0, r7, lsr #31
    6770:	000c8609 	andeq	r8, ip, r9, lsl #12
    6774:	18040800 	stmdane	r4, {fp}
    6778:	00000fde 	ldrdeq	r0, [r0], -lr
    677c:	0005210b 	andeq	r2, r5, fp, lsl #2
    6780:	5e190400 	cfmulspl	mvf0, mvf9, mvf0
    6784:	00000000 	andeq	r0, r0, r0
    6788:	00082b0b 	andeq	r2, r8, fp, lsl #22
    678c:	5e1a0400 	cfmulspl	mvf0, mvf10, mvf0
    6790:	04000000 	streq	r0, [r0], #-0
    6794:	0ea60900 	cdpeq	9, 10, cr0, cr6, cr0, {0}
    6798:	04240000 	strteq	r0, [r4], #-0
    679c:	0010571d 	andseq	r5, r0, sp, lsl r7
    67a0:	0f040b00 	svceq	0x00040b00
    67a4:	1e040000 	cdpne	0, 0, cr0, cr4, cr0, {0}
    67a8:	0000005e 	andeq	r0, r0, lr, asr r0
    67ac:	0ecb0b00 	vdiveq.f64	d16, d11, d0
    67b0:	1f040000 	svcne	0x00040000
    67b4:	0000005e 	andeq	r0, r0, lr, asr r0
    67b8:	087e0b04 	ldmdaeq	lr!, {r2, r8, r9, fp}^
    67bc:	20040000 	andcs	r0, r4, r0
    67c0:	0000005e 	andeq	r0, r0, lr, asr r0
    67c4:	0b470b08 	bleq	11c93ec <__bss_end+0x11c6270>
    67c8:	22040000 	andcs	r0, r4, #0
    67cc:	0000005e 	andeq	r0, r0, lr, asr r0
    67d0:	05a50b0c 	streq	r0, [r5, #2828]!	; 0xb0c
    67d4:	23040000 	movwcs	r0, #16384	; 0x4000
    67d8:	0000005e 	andeq	r0, r0, lr, asr r0
    67dc:	09600b10 	stmdbeq	r0!, {r4, r8, r9, fp}^
    67e0:	24040000 	strcs	r0, [r4], #-0
    67e4:	0000005e 	andeq	r0, r0, lr, asr r0
    67e8:	0aeb0b14 	beq	ffac9440 <__bss_end+0xffac62c4>
    67ec:	25040000 	strcs	r0, [r4, #-0]
    67f0:	0000005e 	andeq	r0, r0, lr, asr r0
    67f4:	0faf0b18 	svceq	0x00af0b18
    67f8:	26040000 	strcs	r0, [r4], -r0
    67fc:	0000005e 	andeq	r0, r0, lr, asr r0
    6800:	0fbf0b1c 	svceq	0x00bf0b1c
    6804:	27040000 	strcs	r0, [r4, -r0]
    6808:	0000005e 	andeq	r0, r0, lr, asr r0
    680c:	3f090020 	svccc	0x00090020
    6810:	08000006 	stmdaeq	r0, {r1, r2}
    6814:	10a04a04 	adcne	r4, r0, r4, lsl #20
    6818:	480b0000 	stmdami	fp, {}	; <UNPREDICTABLE>
    681c:	04000007 	streq	r0, [r0], #-7
    6820:	00002c4b 	andeq	r2, r0, fp, asr #24
    6824:	380b0000 	stmdacc	fp, {}	; <UNPREDICTABLE>
    6828:	04000007 	streq	r0, [r0], #-7
    682c:	00002c4c 	andeq	r2, r0, ip, asr #24
    6830:	400b0100 	andmi	r0, fp, r0, lsl #2
    6834:	04000007 	streq	r0, [r0], #-7
    6838:	00002c4d 	andeq	r2, r0, sp, asr #24
    683c:	580b0200 	stmdapl	fp, {r9}
    6840:	04000007 	streq	r0, [r0], #-7
    6844:	00002c4e 	andeq	r2, r0, lr, asr #24
    6848:	500c0300 	andpl	r0, ip, r0, lsl #6
    684c:	04006c6c 	streq	r6, [r0], #-3180	; 0xfffff394
    6850:	00005e4f 	andeq	r5, r0, pc, asr #28
    6854:	09000400 	stmdbeq	r0, {sl}
    6858:	00001f05 	andeq	r1, r0, r5, lsl #30
    685c:	c5520440 	ldrbgt	r0, [r2, #-1088]	; 0xfffffbc0
    6860:	0b000010 	bleq	68a8 <__bss_end+0x372c>
    6864:	00000e27 	andeq	r0, r0, r7, lsr #28
    6868:	0fb35304 	svceq	0x00b35304
    686c:	0b000000 	bleq	6874 <__bss_end+0x36f8>
    6870:	00001ed8 	ldrdeq	r1, [r0], -r8
    6874:	10c55404 	sbcne	r5, r5, r4, lsl #8
    6878:	00040000 	andeq	r0, r4, r0
    687c:	00005e12 	andeq	r5, r0, r2, lsl lr
    6880:	0010d500 	andseq	sp, r0, r0, lsl #10
    6884:	0ee61300 	cdpeq	3, 14, cr1, cr6, cr0, {0}
    6888:	000e0000 	andeq	r0, lr, r0
    688c:	00020916 	andeq	r0, r2, r6, lsl r9
    6890:	00690400 	rsbeq	r0, r9, r0, lsl #8
    6894:	89070000 	stmdbhi	r7, {}	; <UNPREDICTABLE>
    6898:	00001164 	andeq	r1, r0, r4, ror #2
    689c:	0000d417 	andeq	sp, r0, r7, lsl r4
    68a0:	29170000 	ldmdbcs	r7, {}	; <UNPREDICTABLE>
    68a4:	01000001 	tsteq	r0, r1
    68a8:	0000e117 	andeq	lr, r0, r7, lsl r1
    68ac:	06170200 	ldreq	r0, [r7], -r0, lsl #4
    68b0:	03000001 	movweq	r0, #1
    68b4:	00025117 	andeq	r5, r2, r7, lsl r1
    68b8:	d0170400 	andsle	r0, r7, r0, lsl #8
    68bc:	05000001 	streq	r0, [r0, #-1]
    68c0:	00018917 	andeq	r8, r1, r7, lsl r9
    68c4:	f3170600 	vmax.u16	d0, d7, d0
    68c8:	07000001 	streq	r0, [r0, -r1]
    68cc:	0000c817 	andeq	ip, r0, r7, lsl r8
    68d0:	fb170800 	blx	5c88da <__bss_end+0x5c575e>
    68d4:	09000000 	stmdbeq	r0, {}	; <UNPREDICTABLE>
    68d8:	0001c517 	andeq	ip, r1, r7, lsl r5
    68dc:	6b170a00 	blvs	5c90e4 <__bss_end+0x5c5f68>
    68e0:	0b000002 	bleq	68f0 <__bss_end+0x3774>
    68e4:	00020317 	andeq	r0, r2, r7, lsl r3
    68e8:	1f170c00 	svcne	0x00170c00
    68ec:	0d000002 	stceq	0, cr0, [r0, #-8]
    68f0:	00031817 	andeq	r1, r3, r7, lsl r8
    68f4:	5d170e00 	ldcpl	14, cr0, [r7, #-0]
    68f8:	0f000002 	svceq	0x00000002
    68fc:	0002e817 	andeq	lr, r2, r7, lsl r8
    6900:	44171000 	ldrmi	r1, [r7], #-0
    6904:	11000002 	tstne	r0, r2
    6908:	00030217 	andeq	r0, r3, r7, lsl r2
    690c:	ee171200 	cdp	2, 1, cr1, cr7, cr0, {0}
    6910:	13000000 	movwne	r0, #0
    6914:	0002cd17 	andeq	ip, r2, r7, lsl sp
    6918:	02001400 	andeq	r1, r0, #0, 8
    691c:	011b0801 	tsteq	fp, r1, lsl #16
    6920:	04020000 	streq	r0, [r2], #-0
    6924:	0001e107 	andeq	lr, r1, r7, lsl #2
    6928:	05441800 	strbeq	r1, [r4, #-2048]	; 0xfffff800
    692c:	20010000 	andcs	r0, r1, r0
    6930:	00000fb3 			; <UNDEFINED> instruction: 0x00000fb3
    6934:	00002868 	andeq	r2, r0, r8, ror #16
    6938:	00000030 	andeq	r0, r0, r0, lsr r0
    693c:	119b9c01 	orrsne	r9, fp, r1, lsl #24
    6940:	e0190000 	ands	r0, r9, r0
    6944:	01000016 	tsteq	r0, r6, lsl r0
    6948:	00005e20 	andeq	r5, r0, r0, lsr #28
    694c:	00176200 	andseq	r6, r7, r0, lsl #4
    6950:	811a0000 	tsthi	sl, r0
    6954:	01000016 	tsteq	r0, r6, lsl r0
    6958:	000fb339 	andeq	fp, pc, r9, lsr r3	; <UNPREDICTABLE>
    695c:	00289800 	eoreq	r9, r8, r0, lsl #16
    6960:	00001000 	andeq	r1, r0, r0
    6964:	189c0100 	ldmne	ip, {r8}
    6968:	00001ecb 	andeq	r1, r0, fp, asr #29
    696c:	004c6001 	subeq	r6, ip, r1
    6970:	28a80000 	stmiacs	r8!, {}	; <UNPREDICTABLE>
    6974:	003c0000 	eorseq	r0, ip, r0
    6978:	9c010000 	stcls	0, cr0, [r1], {-0}
    697c:	000011d9 	ldrdeq	r1, [r0], -r9
    6980:	001f0419 	andseq	r0, pc, r9, lsl r4	; <UNPREDICTABLE>
    6984:	d9600100 	stmdble	r0!, {r8}^
    6988:	83000011 	movwhi	r0, #17
    698c:	00000017 	andeq	r0, r0, r7, lsl r0
    6990:	10a00415 	adcne	r0, r0, r5, lsl r4
    6994:	0f180000 	svceq	0x00180000
    6998:	0100001f 	tsteq	r0, pc, lsl r0
    699c:	00004c7b 	andeq	r4, r0, fp, ror ip
    69a0:	0028e400 	eoreq	lr, r8, r0, lsl #8
    69a4:	00003400 	andeq	r3, r0, r0, lsl #8
    69a8:	089c0100 	ldmeq	ip, {r8}
    69ac:	19000012 	stmdbne	r0, {r1, r4}
    69b0:	00001f04 	andeq	r1, r0, r4, lsl #30
    69b4:	11d97b01 	bicsne	r7, r9, r1, lsl #22
    69b8:	17a10000 	strne	r0, [r1, r0]!
    69bc:	18000000 	stmdane	r0, {}	; <UNPREDICTABLE>
    69c0:	00000a86 	andeq	r0, r0, r6, lsl #21
    69c4:	004c9901 	subeq	r9, ip, r1, lsl #18
    69c8:	29180000 	ldmdbcs	r8, {}	; <UNPREDICTABLE>
    69cc:	007c0000 	rsbseq	r0, ip, r0
    69d0:	9c010000 	stcls	0, cr0, [r1], {-0}
    69d4:	00001253 	andeq	r1, r0, r3, asr r2
    69d8:	0007df19 	andeq	sp, r7, r9, lsl pc
    69dc:	53990100 	orrspl	r0, r9, #0, 2
    69e0:	cd000012 	stcgt	0, cr0, [r0, #-72]	; 0xffffffb8
    69e4:	1b000017 	blne	6a48 <__bss_end+0x38cc>
    69e8:	00002970 	andeq	r2, r0, r0, ror r9
    69ec:	000013ed 	andeq	r1, r0, sp, ror #7
    69f0:	00001243 	andeq	r1, r0, r3, asr #4
    69f4:	0150011c 	cmpeq	r0, ip, lsl r1
    69f8:	841d0035 	ldrhi	r0, [sp], #-53	; 0xffffffcb
    69fc:	ed000029 	stc	0, cr0, [r0, #-164]	; 0xffffff5c
    6a00:	1c000013 	stcne	0, cr0, [r0], {19}
    6a04:	35015001 	strcc	r5, [r1, #-1]
    6a08:	04150000 	ldreq	r0, [r5], #-0
    6a0c:	00000fb9 			; <UNDEFINED> instruction: 0x00000fb9
    6a10:	001ebc18 	andseq	fp, lr, r8, lsl ip
    6a14:	4cbe0100 	ldfmis	f0, [lr]
    6a18:	94000000 	strls	r0, [r0], #-0
    6a1c:	48000029 	stmdami	r0, {r0, r3, r5}
    6a20:	01000000 	mrseq	r0, (UNDEF: 0)
    6a24:	0012829c 	mulseq	r2, ip, r2
    6a28:	07df1900 	ldrbeq	r1, [pc, r0, lsl #18]
    6a2c:	be010000 	cdplt	0, 0, cr0, cr1, cr0, {0}
    6a30:	00001253 	andeq	r1, r0, r3, asr r2
    6a34:	00001804 	andeq	r1, r0, r4, lsl #16
    6a38:	08ab1800 	stmiaeq	fp!, {fp, ip}
    6a3c:	d8010000 	stmdale	r1, {}	; <UNPREDICTABLE>
    6a40:	0000004c 	andeq	r0, r0, ip, asr #32
    6a44:	000029dc 	ldrdeq	r2, [r0], -ip
    6a48:	0000006c 	andeq	r0, r0, ip, rrx
    6a4c:	12ab9c01 	adcne	r9, fp, #256	; 0x100
    6a50:	f1190000 			; <UNDEFINED> instruction: 0xf1190000
    6a54:	0100001e 	tsteq	r0, lr, lsl r0
    6a58:	0012abd8 			; <UNDEFINED> instruction: 0x0012abd8
    6a5c:	00183800 	andseq	r3, r8, r0, lsl #16
    6a60:	04150000 	ldreq	r0, [r5], #-0
    6a64:	00001057 	andeq	r1, r0, r7, asr r0
    6a68:	001ee518 	andseq	lr, lr, r8, lsl r5
    6a6c:	4cfb0100 	ldfmie	f0, [fp]
    6a70:	48000000 	stmdami	r0, {}	; <UNPREDICTABLE>
    6a74:	5000002a 	andpl	r0, r0, sl, lsr #32
    6a78:	01000000 	mrseq	r0, (UNDEF: 0)
    6a7c:	0012da9c 	mulseq	r2, ip, sl
    6a80:	1ef11900 	cdpne	9, 15, cr1, cr1, cr0, {0}
    6a84:	fb010000 	blx	46a8e <__bss_end+0x43912>
    6a88:	000012ab 	andeq	r1, r0, fp, lsr #5
    6a8c:	00001864 	andeq	r1, r0, r4, ror #16
    6a90:	06161e00 	ldreq	r1, [r6], -r0, lsl #28
    6a94:	1b010000 	blne	46a9c <__bss_end+0x43920>
    6a98:	00004c01 	andeq	r4, r0, r1, lsl #24
    6a9c:	002a9800 	eoreq	r9, sl, r0, lsl #16
    6aa0:	00009800 	andeq	r9, r0, r0, lsl #16
    6aa4:	059c0100 	ldreq	r0, [ip, #256]	; 0x100
    6aa8:	1f000013 	svcne	0x00000013
    6aac:	00000a47 	andeq	r0, r0, r7, asr #20
    6ab0:	05011b01 	streq	r1, [r1, #-2817]	; 0xfffff4ff
    6ab4:	82000013 	andhi	r0, r0, #19
    6ab8:	00000018 	andeq	r0, r0, r8, lsl r0
    6abc:	0fde0415 	svceq	0x00de0415
    6ac0:	6c1e0000 	ldcvs	0, cr0, [lr], {-0}
    6ac4:	0100001e 	tsteq	r0, lr, lsl r0
    6ac8:	004c0162 	subeq	r0, ip, r2, ror #2
    6acc:	2b300000 	blcs	c06ad4 <__bss_end+0xc03958>
    6ad0:	00600000 	rsbeq	r0, r0, r0
    6ad4:	9c010000 	stcls	0, cr0, [r1], {-0}
    6ad8:	00001336 	andeq	r1, r0, r6, lsr r3
    6adc:	000a471f 	andeq	r4, sl, pc, lsl r7
    6ae0:	01620100 	cmneq	r2, r0, lsl #2
    6ae4:	00001305 	andeq	r1, r0, r5, lsl #6
    6ae8:	000018ae 	andeq	r1, r0, lr, lsr #17
    6aec:	132f1e00 			; <UNDEFINED> instruction: 0x132f1e00
    6af0:	c2010000 	andgt	r0, r1, #0
    6af4:	00005e01 	andeq	r5, r0, r1, lsl #28
    6af8:	002b9000 	eoreq	r9, fp, r0
    6afc:	00007c00 	andeq	r7, r0, r0, lsl #24
    6b00:	ba9c0100 	blt	fe706f08 <__bss_end+0xfe703d8c>
    6b04:	20000013 	andcs	r0, r0, r3, lsl r0
    6b08:	00000748 	andeq	r0, r0, r8, asr #14
    6b0c:	5e01c401 	cdppl	4, 0, cr12, cr1, cr1, {0}
    6b10:	cc000000 	stcgt	0, cr0, [r0], {-0}
    6b14:	20000018 	andcs	r0, r0, r8, lsl r0
    6b18:	00000738 	andeq	r0, r0, r8, lsr r7
    6b1c:	5e01c501 	cfsh32pl	mvfx12, mvfx1, #1
    6b20:	03000000 	movweq	r0, #0
    6b24:	20000019 	andcs	r0, r0, r9, lsl r0
    6b28:	00000740 	andeq	r0, r0, r0, asr #14
    6b2c:	5e01c601 	cfmadd32pl	mvax0, mvfx12, mvfx1, mvfx1
    6b30:	3f000000 	svccc	0x00000000
    6b34:	20000019 	andcs	r0, r0, r9, lsl r0
    6b38:	00000758 	andeq	r0, r0, r8, asr r7
    6b3c:	5e01c701 	cdppl	7, 0, cr12, cr1, cr1, {0}
    6b40:	76000000 	strvc	r0, [r0], -r0
    6b44:	20000019 	andcs	r0, r0, r9, lsl r0
    6b48:	00001efc 	strdeq	r1, [r0], -ip
    6b4c:	5e01c801 	cdppl	8, 0, cr12, cr1, cr1, {0}
    6b50:	ad000000 	stcge	0, cr0, [r0, #-0]
    6b54:	20000019 	andcs	r0, r0, r9, lsl r0
    6b58:	0000133b 	andeq	r1, r0, fp, lsr r3
    6b5c:	5e01c901 	cdppl	9, 0, cr12, cr1, cr1, {0}
    6b60:	ff000000 			; <UNDEFINED> instruction: 0xff000000
    6b64:	21000019 	tstcs	r0, r9, lsl r0
    6b68:	00002c04 	andeq	r2, r0, r4, lsl #24
    6b6c:	000013f8 	strdeq	r1, [r0], -r8
    6b70:	0e272200 	cdpeq	2, 2, cr2, cr7, cr0, {0}
    6b74:	0f010000 	svceq	0x00010000
    6b78:	00000fb3 			; <UNDEFINED> instruction: 0x00000fb3
    6b7c:	2f840305 	svccs	0x00840305
    6b80:	a9220000 	stmdbge	r2!, {}	; <UNPREDICTABLE>
    6b84:	0100001e 	tsteq	r0, lr, lsl r0
    6b88:	00016940 	andeq	r6, r1, r0, asr #18
    6b8c:	8c030500 	cfstr32hi	mvfx0, [r3], {-0}
    6b90:	2200002f 	andcs	r0, r0, #47	; 0x2f
    6b94:	00001f1f 	andeq	r1, r0, pc, lsl pc
    6b98:	06884101 	streq	r4, [r8], r1, lsl #2
    6b9c:	03050000 	movweq	r0, #20480	; 0x5000
    6ba0:	00002f88 	andeq	r2, r0, r8, lsl #31
    6ba4:	000f5e23 	andeq	r5, pc, r3, lsr #28
    6ba8:	000f5e00 	andeq	r5, pc, r0, lsl #28
    6bac:	231b0500 	tstcs	fp, #0, 10
    6bb0:	00001344 	andeq	r1, r0, r4, asr #6
    6bb4:	00001344 	andeq	r1, r0, r4, asr #6
    6bb8:	Address 0x0000000000006bb8 is out of bounds.


Disassembly of section .debug_abbrev:

00000000 <.debug_abbrev>:
       0:	25011101 	strcs	r1, [r1, #-257]	; 0xfffffeff
       4:	030b130e 	movweq	r1, #45838	; 0xb30e
       8:	100e1b0e 	andne	r1, lr, lr, lsl #22
       c:	02000017 	andeq	r0, r0, #23
      10:	0b0b0024 	bleq	2c00a8 <__bss_end+0x2bcf2c>
      14:	0e030b3e 	vmoveq.16	d3[0], r0
      18:	24030000 	strcs	r0, [r3], #-0
      1c:	3e0b0b00 	vmlacc.f64	d0, d11, d0
      20:	0008030b 	andeq	r0, r8, fp, lsl #6
      24:	01040400 	tsteq	r4, r0, lsl #8
      28:	0b0b0e03 	bleq	2c383c <__bss_end+0x2c06c0>
      2c:	0b3a1349 	bleq	e84d58 <__bss_end+0xe81bdc>
      30:	13010b3b 	movwne	r0, #6971	; 0x1b3b
      34:	28050000 	stmdacs	r5, {}	; <UNPREDICTABLE>
      38:	1c0e0300 	stcne	3, cr0, [lr], {-0}
      3c:	0600000b 	streq	r0, [r0], -fp
      40:	0e030113 	mcreq	1, 0, r0, cr3, cr3, {0}
      44:	0b3a0b0b 	bleq	e82c78 <__bss_end+0xe7fafc>
      48:	13010b3b 	movwne	r0, #6971	; 0x1b3b
      4c:	0d070000 	stceq	0, cr0, [r7, #-0]
      50:	3a0e0300 	bcc	380c58 <__bss_end+0x37dadc>
      54:	490b3b0b 	stmdbmi	fp, {r0, r1, r3, r8, r9, fp, ip, sp}
      58:	000b3813 	andeq	r3, fp, r3, lsl r8
      5c:	01010800 	tsteq	r1, r0, lsl #16
      60:	13011349 	movwne	r1, #4937	; 0x1349
      64:	21090000 	mrscs	r0, (UNDEF: 9)
      68:	2f134900 	svccs	0x00134900
      6c:	0a00000b 	beq	a0 <config_61+0x4>
      70:	0e030016 	mcreq	0, 0, r0, cr3, cr6, {0}
      74:	0b3b0b3a 	bleq	ec2d64 <__bss_end+0xebfbe8>
      78:	00001349 	andeq	r1, r0, r9, asr #6
      7c:	0300340b 	movweq	r3, #1035	; 0x40b
      80:	3b0b3a0e 	blcc	2ce8c0 <__bss_end+0x2cb744>
      84:	3f13490b 	svccc	0x0013490b
      88:	00180219 	andseq	r0, r8, r9, lsl r2
      8c:	00260c00 	eoreq	r0, r6, r0, lsl #24
      90:	00001349 	andeq	r1, r0, r9, asr #6
      94:	00110100 	andseq	r0, r1, r0, lsl #2
      98:	01110610 	tsteq	r1, r0, lsl r6
      9c:	08030112 	stmdaeq	r3, {r1, r4, r8}
      a0:	0825081b 	stmdaeq	r5!, {r0, r1, r3, r4, fp}
      a4:	00000513 	andeq	r0, r0, r3, lsl r5
      a8:	01110100 	tsteq	r1, r0, lsl #2
      ac:	0b130e25 	bleq	4c3948 <__bss_end+0x4c07cc>
      b0:	0e1b0e03 	cdpeq	14, 1, cr0, cr11, cr3, {0}
      b4:	06120111 			; <UNDEFINED> instruction: 0x06120111
      b8:	00001710 	andeq	r1, r0, r0, lsl r7
      bc:	0b002402 	bleq	90cc <__bss_end+0x5f50>
      c0:	030b3e0b 	movweq	r3, #48651	; 0xbe0b
      c4:	0300000e 	movweq	r0, #14
      c8:	0b0b0024 	bleq	2c0160 <__bss_end+0x2bcfe4>
      cc:	08030b3e 	stmdaeq	r3, {r1, r2, r3, r4, r5, r8, r9, fp}
      d0:	0f040000 	svceq	0x00040000
      d4:	490b0b00 	stmdbmi	fp, {r8, r9, fp}
      d8:	05000013 	streq	r0, [r0, #-19]	; 0xffffffed
      dc:	0b0b000f 	bleq	2c0120 <__bss_end+0x2bcfa4>
      e0:	2e060000 	cdpcs	0, 0, cr0, cr6, cr0, {0}
      e4:	03193f01 	tsteq	r9, #1, 30
      e8:	3b0b3a0e 	blcc	2ce928 <__bss_end+0x2cb7ac>
      ec:	1119270b 	tstne	r9, fp, lsl #14
      f0:	40061201 	andmi	r1, r6, r1, lsl #4
      f4:	19429718 	stmdbne	r2, {r3, r4, r8, r9, sl, ip, pc}^
      f8:	05070000 	streq	r0, [r7, #-0]
      fc:	3a0e0300 	bcc	380d04 <__bss_end+0x37db88>
     100:	490b3b0b 	stmdbmi	fp, {r0, r1, r3, r8, r9, fp, ip, sp}
     104:	00170213 	andseq	r0, r7, r3, lsl r2
     108:	00050800 	andeq	r0, r5, r0, lsl #16
     10c:	0b3a0803 	bleq	e82120 <__bss_end+0xe7efa4>
     110:	13490b3b 	movtne	r0, #39739	; 0x9b3b
     114:	00001702 	andeq	r1, r0, r2, lsl #14
     118:	03003409 	movweq	r3, #1033	; 0x409
     11c:	3b0b3a0e 	blcc	2ce95c <__bss_end+0x2cb7e0>
     120:	0213490b 	andseq	r4, r3, #180224	; 0x2c000
     124:	00000017 	andeq	r0, r0, r7, lsl r0
     128:	25011101 	strcs	r1, [r1, #-257]	; 0xfffffeff
     12c:	030b130e 	movweq	r1, #45838	; 0xb30e
     130:	100e1b0e 	andne	r1, lr, lr, lsl #22
     134:	02000017 	andeq	r0, r0, #23
     138:	0b0b0024 	bleq	2c01d0 <__bss_end+0x2bd054>
     13c:	0e030b3e 	vmoveq.16	d3[0], r0
     140:	24030000 	strcs	r0, [r3], #-0
     144:	3e0b0b00 	vmlacc.f64	d0, d11, d0
     148:	0008030b 	andeq	r0, r8, fp, lsl #6
     14c:	11010000 	mrsne	r0, (UNDEF: 1)
     150:	11061000 	mrsne	r1, (UNDEF: 6)
     154:	03011201 	movweq	r1, #4609	; 0x1201
     158:	25081b08 	strcs	r1, [r8, #-2824]	; 0xfffff4f8
     15c:	00051308 	andeq	r1, r5, r8, lsl #6
     160:	11010000 	mrsne	r0, (UNDEF: 1)
     164:	130e2501 	movwne	r2, #58625	; 0xe501
     168:	1b0e030b 	blne	380d9c <__bss_end+0x37dc20>
     16c:	0017100e 	andseq	r1, r7, lr
     170:	00240200 	eoreq	r0, r4, r0, lsl #4
     174:	0b3e0b0b 	bleq	f82da8 <__bss_end+0xf7fc2c>
     178:	00000e03 	andeq	r0, r0, r3, lsl #28
     17c:	0b002403 	bleq	9190 <__bss_end+0x6014>
     180:	030b3e0b 	movweq	r3, #48651	; 0xbe0b
     184:	00000008 	andeq	r0, r0, r8
     188:	25011101 	strcs	r1, [r1, #-257]	; 0xfffffeff
     18c:	030b130e 	movweq	r1, #45838	; 0xb30e
     190:	100e1b0e 	andne	r1, lr, lr, lsl #22
     194:	02000017 	andeq	r0, r0, #23
     198:	0b0b0024 	bleq	2c0230 <__bss_end+0x2bd0b4>
     19c:	0e030b3e 	vmoveq.16	d3[0], r0
     1a0:	24030000 	strcs	r0, [r3], #-0
     1a4:	3e0b0b00 	vmlacc.f64	d0, d11, d0
     1a8:	0008030b 	andeq	r0, r8, fp, lsl #6
     1ac:	11010000 	mrsne	r0, (UNDEF: 1)
     1b0:	130e2501 	movwne	r2, #58625	; 0xe501
     1b4:	1b0e030b 	blne	380de8 <__bss_end+0x37dc6c>
     1b8:	0017100e 	andseq	r1, r7, lr
     1bc:	00240200 	eoreq	r0, r4, r0, lsl #4
     1c0:	0b3e0b0b 	bleq	f82df4 <__bss_end+0xf7fc78>
     1c4:	00000e03 	andeq	r0, r0, r3, lsl #28
     1c8:	0b002403 	bleq	91dc <__bss_end+0x6060>
     1cc:	030b3e0b 	movweq	r3, #48651	; 0xbe0b
     1d0:	00000008 	andeq	r0, r0, r8
     1d4:	25011101 	strcs	r1, [r1, #-257]	; 0xfffffeff
     1d8:	030b130e 	movweq	r1, #45838	; 0xb30e
     1dc:	110e1b0e 	tstne	lr, lr, lsl #22
     1e0:	10061201 	andne	r1, r6, r1, lsl #4
     1e4:	02000017 	andeq	r0, r0, #23
     1e8:	0b0b0024 	bleq	2c0280 <__bss_end+0x2bd104>
     1ec:	0e030b3e 	vmoveq.16	d3[0], r0
     1f0:	16030000 	strne	r0, [r3], -r0
     1f4:	3a0e0300 	bcc	380dfc <__bss_end+0x37dc80>
     1f8:	490b3b0b 	stmdbmi	fp, {r0, r1, r3, r8, r9, fp, ip, sp}
     1fc:	04000013 	streq	r0, [r0], #-19	; 0xffffffed
     200:	0b0b0024 	bleq	2c0298 <__bss_end+0x2bd11c>
     204:	08030b3e 	stmdaeq	r3, {r1, r2, r3, r4, r5, r8, r9, fp}
     208:	13050000 	movwne	r0, #20480	; 0x5000
     20c:	3a0b0b01 	bcc	2c2e18 <__bss_end+0x2bfc9c>
     210:	010b3b0b 	tsteq	fp, fp, lsl #22
     214:	06000013 			; <UNDEFINED> instruction: 0x06000013
     218:	0e03000d 	cdpeq	0, 0, cr0, cr3, cr13, {0}
     21c:	0b3b0b3a 	bleq	ec2f0c <__bss_end+0xebfd90>
     220:	0b0b1349 	bleq	2c4f4c <__bss_end+0x2c1dd0>
     224:	0b0c0b0d 	bleq	302e60 <__bss_end+0x2ffce4>
     228:	00000b38 	andeq	r0, r0, r8, lsr fp
     22c:	0b011707 	bleq	45e50 <__bss_end+0x42cd4>
     230:	3b0b3a0b 	blcc	2cea64 <__bss_end+0x2cb8e8>
     234:	0013010b 	andseq	r0, r3, fp, lsl #2
     238:	000d0800 	andeq	r0, sp, r0, lsl #16
     23c:	0b3a0e03 	bleq	e83a50 <__bss_end+0xe808d4>
     240:	13490b3b 	movtne	r0, #39739	; 0x9b3b
     244:	13090000 	movwne	r0, #36864	; 0x9000
     248:	0b0e0301 	bleq	380e54 <__bss_end+0x37dcd8>
     24c:	3b0b3a0b 	blcc	2cea80 <__bss_end+0x2cb904>
     250:	0013010b 	andseq	r0, r3, fp, lsl #2
     254:	01130a00 	tsteq	r3, r0, lsl #20
     258:	050b0e03 	streq	r0, [fp, #-3587]	; 0xfffff1fd
     25c:	0b3b0b3a 	bleq	ec2f4c <__bss_end+0xebfdd0>
     260:	00001301 	andeq	r1, r0, r1, lsl #6
     264:	03000d0b 	movweq	r0, #3339	; 0xd0b
     268:	3b0b3a0e 	blcc	2ceaa8 <__bss_end+0x2cb92c>
     26c:	3813490b 	ldmdacc	r3, {r0, r1, r3, r8, fp, lr}
     270:	0c00000b 	stceq	0, cr0, [r0], {11}
     274:	0803000d 	stmdaeq	r3, {r0, r2, r3}
     278:	0b3b0b3a 	bleq	ec2f68 <__bss_end+0xebfdec>
     27c:	0b381349 	bleq	e04fa8 <__bss_end+0xe01e2c>
     280:	0d0d0000 	stceq	0, cr0, [sp, #-0]
     284:	3a0e0300 	bcc	380e8c <__bss_end+0x37dd10>
     288:	49053b0b 	stmdbmi	r5, {r0, r1, r3, r8, r9, fp, ip, sp}
     28c:	000b3813 	andeq	r3, fp, r3, lsl r8
     290:	000d0e00 	andeq	r0, sp, r0, lsl #28
     294:	0b3a0803 	bleq	e822a8 <__bss_end+0xe7f12c>
     298:	1349053b 	movtne	r0, #38203	; 0x953b
     29c:	00000b38 	andeq	r0, r0, r8, lsr fp
     2a0:	03000d0f 	movweq	r0, #3343	; 0xd0f
     2a4:	3b0b3a0e 	blcc	2ceae4 <__bss_end+0x2cb968>
     2a8:	38134905 	ldmdacc	r3, {r0, r2, r8, fp, lr}
     2ac:	10000005 	andne	r0, r0, r5
     2b0:	0803000d 	stmdaeq	r3, {r0, r2, r3}
     2b4:	053b0b3a 	ldreq	r0, [fp, #-2874]!	; 0xfffff4c6
     2b8:	05381349 	ldreq	r1, [r8, #-841]!	; 0xfffffcb7
     2bc:	35110000 	ldrcc	r0, [r1, #-0]
     2c0:	00134900 	andseq	r4, r3, r0, lsl #18
     2c4:	01011200 	mrseq	r1, R9_usr
     2c8:	13011349 	movwne	r1, #4937	; 0x1349
     2cc:	21130000 	tstcs	r3, r0
     2d0:	2f134900 	svccs	0x00134900
     2d4:	1400000b 	strne	r0, [r0], #-11
     2d8:	0e030016 	mcreq	0, 0, r0, cr3, cr6, {0}
     2dc:	053b0b3a 	ldreq	r0, [fp, #-2874]!	; 0xfffff4c6
     2e0:	00001349 	andeq	r1, r0, r9, asr #6
     2e4:	0b000f15 	bleq	3f40 <__bss_end+0xdc4>
     2e8:	0013490b 	andseq	r4, r3, fp, lsl #18
     2ec:	01041600 	tsteq	r4, r0, lsl #12
     2f0:	0b0b0e03 	bleq	2c3b04 <__bss_end+0x2c0988>
     2f4:	0b3a1349 	bleq	e85020 <__bss_end+0xe81ea4>
     2f8:	13010b3b 	movwne	r0, #6971	; 0x1b3b
     2fc:	28170000 	ldmdacs	r7, {}	; <UNPREDICTABLE>
     300:	1c0e0300 	stcne	3, cr0, [lr], {-0}
     304:	1800000b 	stmdane	r0, {r0, r1, r3}
     308:	0b0b0104 	bleq	2c0720 <__bss_end+0x2bd5a4>
     30c:	0b3a1349 	bleq	e85038 <__bss_end+0xe81ebc>
     310:	13010b3b 	movwne	r0, #6971	; 0x1b3b
     314:	28190000 	ldmdacs	r9, {}	; <UNPREDICTABLE>
     318:	1c0e0300 	stcne	3, cr0, [lr], {-0}
     31c:	1a000005 	bne	338 <set_pll+0xb8>
     320:	0b0b000f 	bleq	2c0364 <__bss_end+0x2bd1e8>
     324:	151b0000 	ldrne	r0, [fp, #-0]
     328:	49192700 	ldmdbmi	r9, {r8, r9, sl, sp}
     32c:	1c000013 	stcne	0, cr0, [r0], {19}
     330:	193f012e 	ldmdbne	pc!, {r1, r2, r3, r5, r8}	; <UNPREDICTABLE>
     334:	0b3a0e03 	bleq	e83b48 <__bss_end+0xe809cc>
     338:	19270b3b 	stmdbne	r7!, {r0, r1, r3, r4, r5, r8, r9, fp}
     33c:	01111349 	tsteq	r1, r9, asr #6
     340:	18400612 	stmdane	r0, {r1, r4, r9, sl}^
     344:	01194297 			; <UNDEFINED> instruction: 0x01194297
     348:	1d000013 	stcne	0, cr0, [r0, #-76]	; 0xffffffb4
     34c:	01018289 	smlabbeq	r1, r9, r2, r8
     350:	13310111 	teqne	r1, #1073741828	; 0x40000004
     354:	00001301 	andeq	r1, r0, r1, lsl #6
     358:	01828a1e 	orreq	r8, r2, lr, lsl sl
     35c:	91180200 	tstls	r8, r0, lsl #4
     360:	00001842 	andeq	r1, r0, r2, asr #16
     364:	0182891f 	orreq	r8, r2, pc, lsl r9
     368:	31011100 	mrscc	r1, (UNDEF: 17)
     36c:	20000013 	andcs	r0, r0, r3, lsl r0
     370:	01018289 	smlabbeq	r1, r9, r2, r8
     374:	13310111 	teqne	r1, #1073741828	; 0x40000004
     378:	2e210000 	cdpcs	0, 2, cr0, cr1, cr0, {0}
     37c:	03193f01 	tsteq	r9, #1, 30
     380:	3b0b3a0e 	blcc	2cebc0 <__bss_end+0x2cba44>
     384:	1119270b 	tstne	r9, fp, lsl #14
     388:	40061201 	andmi	r1, r6, r1, lsl #4
     38c:	19429718 	stmdbne	r2, {r3, r4, r8, r9, sl, ip, pc}^
     390:	00001301 	andeq	r1, r0, r1, lsl #6
     394:	03003422 	movweq	r3, #1058	; 0x422
     398:	3b0b3a0e 	blcc	2cebd8 <__bss_end+0x2cba5c>
     39c:	0213490b 	andseq	r4, r3, #180224	; 0x2c000
     3a0:	23000017 	movwcs	r0, #23
     3a4:	0e030034 	mcreq	0, 0, r0, cr3, cr4, {1}
     3a8:	0b3b0b3a 	bleq	ec3098 <__bss_end+0xebff1c>
     3ac:	0b1c1349 	bleq	7050d8 <__bss_end+0x701f5c>
     3b0:	89240000 	stmdbhi	r4!, {}	; <UNPREDICTABLE>
     3b4:	11010182 	smlabbne	r1, r2, r1, r0
     3b8:	19429501 	stmdbne	r2, {r0, r8, sl, ip, pc}^
     3bc:	13011331 	movwne	r1, #4913	; 0x1331
     3c0:	34250000 	strtcc	r0, [r5], #-0
     3c4:	3a0e0300 	bcc	380fcc <__bss_end+0x37de50>
     3c8:	490b3b0b 	stmdbmi	fp, {r0, r1, r3, r8, r9, fp, ip, sp}
     3cc:	26000013 			; <UNDEFINED> instruction: 0x26000013
     3d0:	0e030034 	mcreq	0, 0, r0, cr3, cr4, {1}
     3d4:	0b3b0b3a 	bleq	ec30c4 <__bss_end+0xebff48>
     3d8:	18021349 	stmdane	r2, {r0, r3, r6, r8, r9, ip}
     3dc:	34270000 	strtcc	r0, [r7], #-0
     3e0:	3a0e0300 	bcc	380fe8 <__bss_end+0x37de6c>
     3e4:	490b3b0b 	stmdbmi	fp, {r0, r1, r3, r8, r9, fp, ip, sp}
     3e8:	02193f13 	andseq	r3, r9, #19, 30	; 0x4c
     3ec:	28000018 	stmdacs	r0, {r3, r4}
     3f0:	0e030034 	mcreq	0, 0, r0, cr3, cr4, {1}
     3f4:	0b3b0b3a 	bleq	ec30e4 <__bss_end+0xebff68>
     3f8:	193f1349 	ldmdbne	pc!, {r0, r3, r6, r8, r9, ip}	; <UNPREDICTABLE>
     3fc:	0000193c 	andeq	r1, r0, ip, lsr r9
     400:	3f002e29 	svccc	0x00002e29
     404:	6e193c19 	mrcvs	12, 0, r3, cr9, cr9, {0}
     408:	3a0e030e 	bcc	381048 <__bss_end+0x37decc>
     40c:	000b3b0b 	andeq	r3, fp, fp, lsl #22
     410:	11010000 	mrsne	r0, (UNDEF: 1)
     414:	130e2501 	movwne	r2, #58625	; 0xe501
     418:	1b0e030b 	blne	38104c <__bss_end+0x37ded0>
     41c:	1201110e 	andne	r1, r1, #-2147483645	; 0x80000003
     420:	00171006 	andseq	r1, r7, r6
     424:	00240200 	eoreq	r0, r4, r0, lsl #4
     428:	0b3e0b0b 	bleq	f8305c <__bss_end+0xf7fee0>
     42c:	00000e03 	andeq	r0, r0, r3, lsl #28
     430:	0b002403 	bleq	9444 <__bss_end+0x62c8>
     434:	030b3e0b 	movweq	r3, #48651	; 0xbe0b
     438:	04000008 	streq	r0, [r0], #-8
     43c:	0e030016 	mcreq	0, 0, r0, cr3, cr6, {0}
     440:	0b3b0b3a 	bleq	ec3130 <__bss_end+0xebffb4>
     444:	00001349 	andeq	r1, r0, r9, asr #6
     448:	49003505 	stmdbmi	r0, {r0, r2, r8, sl, ip, sp}
     44c:	06000013 			; <UNDEFINED> instruction: 0x06000013
     450:	0e030104 	adfeqs	f0, f3, f4
     454:	13490b0b 	movtne	r0, #39691	; 0x9b0b
     458:	0b3b0b3a 	bleq	ec3148 <__bss_end+0xebffcc>
     45c:	00001301 	andeq	r1, r0, r1, lsl #6
     460:	03002807 	movweq	r2, #2055	; 0x807
     464:	000b1c0e 	andeq	r1, fp, lr, lsl #24
     468:	012e0800 			; <UNDEFINED> instruction: 0x012e0800
     46c:	0e03193f 	mcreq	9, 0, r1, cr3, cr15, {1}
     470:	0b3b0b3a 	bleq	ec3160 <__bss_end+0xebffe4>
     474:	01111927 	tsteq	r1, r7, lsr #18
     478:	18400612 	stmdane	r0, {r1, r4, r9, sl}^
     47c:	01194297 			; <UNDEFINED> instruction: 0x01194297
     480:	09000013 	stmdbeq	r0, {r0, r1, r4}
     484:	0e030034 	mcreq	0, 0, r0, cr3, cr4, {1}
     488:	0b3b0b3a 	bleq	ec3178 <__bss_end+0xebfffc>
     48c:	18021349 	stmdane	r2, {r0, r3, r6, r8, r9, ip}
     490:	340a0000 	strcc	r0, [sl], #-0
     494:	3a080300 	bcc	20109c <__bss_end+0x1fdf20>
     498:	490b3b0b 	stmdbmi	fp, {r0, r1, r3, r8, r9, fp, ip, sp}
     49c:	00170213 	andseq	r0, r7, r3, lsl r2
     4a0:	002e0b00 	eoreq	r0, lr, r0, lsl #22
     4a4:	0e03193f 	mcreq	9, 0, r1, cr3, cr15, {1}
     4a8:	0b3b0b3a 	bleq	ec3198 <__bss_end+0xec001c>
     4ac:	0b201927 	bleq	806950 <__bss_end+0x8037d4>
     4b0:	2e0c0000 	cdpcs	0, 0, cr0, cr12, cr0, {0}
     4b4:	11133100 	tstne	r3, r0, lsl #2
     4b8:	40061201 	andmi	r1, r6, r1, lsl #4
     4bc:	19429718 	stmdbne	r2, {r3, r4, r8, r9, sl, ip, pc}^
     4c0:	050d0000 	streq	r0, [sp, #-0]
     4c4:	3a080300 	bcc	2010cc <__bss_end+0x1fdf50>
     4c8:	490b3b0b 	stmdbmi	fp, {r0, r1, r3, r8, r9, fp, ip, sp}
     4cc:	00180213 	andseq	r0, r8, r3, lsl r2
     4d0:	002e0e00 	eoreq	r0, lr, r0, lsl #28
     4d4:	0e03193f 	mcreq	9, 0, r1, cr3, cr15, {1}
     4d8:	0b3b0b3a 	bleq	ec31c8 <__bss_end+0xec004c>
     4dc:	13491927 	movtne	r1, #39207	; 0x9927
     4e0:	06120111 			; <UNDEFINED> instruction: 0x06120111
     4e4:	42971840 	addsmi	r1, r7, #64, 16	; 0x400000
     4e8:	0f000019 	svceq	0x00000019
     4ec:	01018289 	smlabbeq	r1, r9, r2, r8
     4f0:	13310111 	teqne	r1, #1073741828	; 0x40000004
     4f4:	8a100000 	bhi	4004fc <__bss_end+0x3fd380>
     4f8:	02000182 	andeq	r0, r0, #-2147483616	; 0x80000020
     4fc:	18429118 	stmdane	r2, {r3, r4, r8, ip, pc}^
     500:	2e110000 	cdpcs	0, 1, cr0, cr1, cr0, {0}
     504:	03193f00 	tsteq	r9, #0, 30
     508:	3b0b3a0e 	blcc	2ced48 <__bss_end+0x2cbbcc>
     50c:	11192705 	tstne	r9, r5, lsl #14
     510:	40061201 	andmi	r1, r6, r1, lsl #4
     514:	19429718 	stmdbne	r2, {r3, r4, r8, r9, sl, ip, pc}^
     518:	2e120000 	cdpcs	0, 1, cr0, cr2, cr0, {0}
     51c:	03193f01 	tsteq	r9, #1, 30
     520:	3b0b3a0e 	blcc	2ced60 <__bss_end+0x2cbbe4>
     524:	11192705 	tstne	r9, r5, lsl #14
     528:	40061201 	andmi	r1, r6, r1, lsl #4
     52c:	19429718 	stmdbne	r2, {r3, r4, r8, r9, sl, ip, pc}^
     530:	00001301 	andeq	r1, r0, r1, lsl #6
     534:	03003413 	movweq	r3, #1043	; 0x413
     538:	3b0b3a0e 	blcc	2ced78 <__bss_end+0x2cbbfc>
     53c:	02134905 	andseq	r4, r3, #81920	; 0x14000
     540:	14000018 	strne	r0, [r0], #-24	; 0xffffffe8
     544:	08030005 	stmdaeq	r3, {r0, r2}
     548:	053b0b3a 	ldreq	r0, [fp, #-2874]!	; 0xfffff4c6
     54c:	17021349 	strne	r1, [r2, -r9, asr #6]
     550:	34150000 	ldrcc	r0, [r5], #-0
     554:	3a0e0300 	bcc	38115c <__bss_end+0x37dfe0>
     558:	490b3b0b 	stmdbmi	fp, {r0, r1, r3, r8, r9, fp, ip, sp}
     55c:	02193f13 	andseq	r3, r9, #19, 30	; 0x4c
     560:	16000018 			; <UNDEFINED> instruction: 0x16000018
     564:	193f002e 	ldmdbne	pc!, {r1, r2, r3, r5}	; <UNPREDICTABLE>
     568:	0e6e193c 	mcreq	9, 3, r1, cr14, cr12, {1}
     56c:	0b3a0e03 	bleq	e83d80 <__bss_end+0xe80c04>
     570:	00000b3b 	andeq	r0, r0, fp, lsr fp
     574:	01110100 	tsteq	r1, r0, lsl #2
     578:	0b130e25 	bleq	4c3e14 <__bss_end+0x4c0c98>
     57c:	0e1b0e03 	cdpeq	14, 1, cr0, cr11, cr3, {0}
     580:	06120111 			; <UNDEFINED> instruction: 0x06120111
     584:	00001710 	andeq	r1, r0, r0, lsl r7
     588:	0b002402 	bleq	9598 <__bss_end+0x641c>
     58c:	030b3e0b 	movweq	r3, #48651	; 0xbe0b
     590:	0300000e 	movweq	r0, #14
     594:	0e030016 	mcreq	0, 0, r0, cr3, cr6, {0}
     598:	0b3b0b3a 	bleq	ec3288 <__bss_end+0xec010c>
     59c:	00001349 	andeq	r1, r0, r9, asr #6
     5a0:	0b002404 	bleq	95b8 <__bss_end+0x643c>
     5a4:	030b3e0b 	movweq	r3, #48651	; 0xbe0b
     5a8:	05000008 	streq	r0, [r0, #-8]
     5ac:	0e030104 	adfeqs	f0, f3, f4
     5b0:	13490b0b 	movtne	r0, #39691	; 0x9b0b
     5b4:	0b3b0b3a 	bleq	ec32a4 <__bss_end+0xec0128>
     5b8:	00001301 	andeq	r1, r0, r1, lsl #6
     5bc:	03002806 	movweq	r2, #2054	; 0x806
     5c0:	000b1c0e 	andeq	r1, fp, lr, lsl #24
     5c4:	012e0700 			; <UNDEFINED> instruction: 0x012e0700
     5c8:	0e03193f 	mcreq	9, 0, r1, cr3, cr15, {1}
     5cc:	0b3b0b3a 	bleq	ec32bc <__bss_end+0xec0140>
     5d0:	13491927 	movtne	r1, #39207	; 0x9927
     5d4:	13010b20 	movwne	r0, #6944	; 0x1b20
     5d8:	34080000 	strcc	r0, [r8], #-0
     5dc:	3a0e0300 	bcc	3811e4 <__bss_end+0x37e068>
     5e0:	490b3b0b 	stmdbmi	fp, {r0, r1, r3, r8, r9, fp, ip, sp}
     5e4:	09000013 	stmdbeq	r0, {r0, r1, r4}
     5e8:	193f012e 	ldmdbne	pc!, {r1, r2, r3, r5, r8}	; <UNPREDICTABLE>
     5ec:	0b3a0e03 	bleq	e83e00 <__bss_end+0xe80c84>
     5f0:	19270b3b 	stmdbne	r7!, {r0, r1, r3, r4, r5, r8, r9, fp}
     5f4:	13010b20 	movwne	r0, #6944	; 0x1b20
     5f8:	050a0000 	streq	r0, [sl, #-0]
     5fc:	3a0e0300 	bcc	381204 <__bss_end+0x37e088>
     600:	490b3b0b 	stmdbmi	fp, {r0, r1, r3, r8, r9, fp, ip, sp}
     604:	0b000013 	bleq	658 <delay_us+0x40>
     608:	0e03012e 	adfeqsp	f0, f3, #0.5
     60c:	0b3b0b3a 	bleq	ec32fc <__bss_end+0xec0180>
     610:	13491927 	movtne	r1, #39207	; 0x9927
     614:	13010b20 	movwne	r0, #6944	; 0x1b20
     618:	2e0c0000 	cdpcs	0, 0, cr0, cr12, cr0, {0}
     61c:	11133101 	tstne	r3, r1, lsl #2
     620:	40061201 	andmi	r1, r6, r1, lsl #4
     624:	19429718 	stmdbne	r2, {r3, r4, r8, r9, sl, ip, pc}^
     628:	00001301 	andeq	r1, r0, r1, lsl #6
     62c:	3100050d 	tstcc	r0, sp, lsl #10
     630:	00180213 	andseq	r0, r8, r3, lsl r2
     634:	00340e00 	eorseq	r0, r4, r0, lsl #28
     638:	17021331 	smladxne	r2, r1, r3, r1
     63c:	2e0f0000 	cdpcs	0, 0, cr0, cr15, cr0, {0}
     640:	03193f00 	tsteq	r9, #0, 30
     644:	3b0b3a0e 	blcc	2cee84 <__bss_end+0x2cbd08>
     648:	1119270b 	tstne	r9, fp, lsl #14
     64c:	40061201 	andmi	r1, r6, r1, lsl #4
     650:	19429718 	stmdbne	r2, {r3, r4, r8, r9, sl, ip, pc}^
     654:	34100000 	ldrcc	r0, [r0], #-0
     658:	02133100 	andseq	r3, r3, #0, 2
     65c:	11000018 	tstne	r0, r8, lsl r0
     660:	193f012e 	ldmdbne	pc!, {r1, r2, r3, r5, r8}	; <UNPREDICTABLE>
     664:	0b3a0e03 	bleq	e83e78 <__bss_end+0xe80cfc>
     668:	19270b3b 	stmdbne	r7!, {r0, r1, r3, r4, r5, r8, r9, fp}
     66c:	06120111 			; <UNDEFINED> instruction: 0x06120111
     670:	42971840 	addsmi	r1, r7, #64, 16	; 0x400000
     674:	00130119 	andseq	r0, r3, r9, lsl r1
     678:	00341200 	eorseq	r1, r4, r0, lsl #4
     67c:	0b3a0e03 	bleq	e83e90 <__bss_end+0xe80d14>
     680:	13490b3b 	movtne	r0, #39739	; 0x9b3b
     684:	00001702 	andeq	r1, r0, r2, lsl #14
     688:	03003413 	movweq	r3, #1043	; 0x413
     68c:	3b0b3a08 	blcc	2ceeb4 <__bss_end+0x2cbd38>
     690:	0213490b 	andseq	r4, r3, #180224	; 0x2c000
     694:	14000017 	strne	r0, [r0], #-23	; 0xffffffe9
     698:	1331011d 	teqne	r1, #1073741831	; 0x40000007
     69c:	06120111 			; <UNDEFINED> instruction: 0x06120111
     6a0:	0b590b58 	bleq	1643408 <__bss_end+0x164028c>
     6a4:	00001301 	andeq	r1, r0, r1, lsl #6
     6a8:	11010b15 	tstne	r1, r5, lsl fp
     6ac:	00061201 	andeq	r1, r6, r1, lsl #4
     6b0:	82891600 	addhi	r1, r9, #0, 12
     6b4:	01110001 	tsteq	r1, r1
     6b8:	00001331 	andeq	r1, r0, r1, lsr r3
     6bc:	03000517 	movweq	r0, #1303	; 0x517
     6c0:	3b0b3a08 	blcc	2ceee8 <__bss_end+0x2cbd6c>
     6c4:	0213490b 	andseq	r4, r3, #180224	; 0x2c000
     6c8:	18000017 	stmdane	r0, {r0, r1, r2, r4}
     6cc:	0803000a 	stmdaeq	r3, {r1, r3}
     6d0:	0b3b0b3a 	bleq	ec33c0 <__bss_end+0xec0244>
     6d4:	00000111 	andeq	r0, r0, r1, lsl r1
     6d8:	31003419 	tstcc	r0, r9, lsl r4
     6dc:	1a000013 	bne	730 <set_event_counter+0x24>
     6e0:	13310005 	teqne	r1, #5
     6e4:	00001702 	andeq	r1, r0, r2, lsl #14
     6e8:	0182891b 	orreq	r8, r2, fp, lsl r9
     6ec:	31011101 	tstcc	r1, r1, lsl #2
     6f0:	1c000013 	stcne	0, cr0, [r0], {19}
     6f4:	0001828a 	andeq	r8, r1, sl, lsl #5
     6f8:	42911802 	addsmi	r1, r1, #131072	; 0x20000
     6fc:	1d000018 	stcne	0, cr0, [r0, #-96]	; 0xffffffa0
     700:	01018289 	smlabbeq	r1, r9, r2, r8
     704:	13310111 	teqne	r1, #1073741828	; 0x40000004
     708:	00001301 	andeq	r1, r0, r1, lsl #6
     70c:	0182891e 	orreq	r8, r2, lr, lsl r9
     710:	95011100 	strls	r1, [r1, #-256]	; 0xffffff00
     714:	13311942 	teqne	r1, #1081344	; 0x108000
     718:	051f0000 	ldreq	r0, [pc, #-0]	; 720 <set_event_counter+0x14>
     71c:	3a0e0300 	bcc	381324 <__bss_end+0x37e1a8>
     720:	490b3b0b 	stmdbmi	fp, {r0, r1, r3, r8, r9, fp, ip, sp}
     724:	00180213 	andseq	r0, r8, r3, lsl r2
     728:	012e2000 			; <UNDEFINED> instruction: 0x012e2000
     72c:	0e03193f 	mcreq	9, 0, r1, cr3, cr15, {1}
     730:	053b0b3a 	ldreq	r0, [fp, #-2874]!	; 0xfffff4c6
     734:	13491927 	movtne	r1, #39207	; 0x9927
     738:	06120111 			; <UNDEFINED> instruction: 0x06120111
     73c:	42971840 	addsmi	r1, r7, #64, 16	; 0x400000
     740:	00130119 	andseq	r0, r3, r9, lsl r1
     744:	00052100 	andeq	r2, r5, r0, lsl #2
     748:	0b3a0e03 	bleq	e83f5c <__bss_end+0xe80de0>
     74c:	1349053b 	movtne	r0, #38203	; 0x953b
     750:	00001702 	andeq	r1, r0, r2, lsl #14
     754:	03003422 	movweq	r3, #1058	; 0x422
     758:	3b0b3a0e 	blcc	2cef98 <__bss_end+0x2cbe1c>
     75c:	02134905 	andseq	r4, r3, #81920	; 0x14000
     760:	23000017 	movwcs	r0, #23
     764:	0e030034 	mcreq	0, 0, r0, cr3, cr4, {1}
     768:	0b3b0b3a 	bleq	ec3458 <__bss_end+0xec02dc>
     76c:	18021349 	stmdane	r2, {r0, r3, r6, r8, r9, ip}
     770:	2e240000 	cdpcs	0, 2, cr0, cr4, cr0, {0}
     774:	3c193f00 	ldccc	15, cr3, [r9], {-0}
     778:	030e6e19 	movweq	r6, #60953	; 0xee19
     77c:	3b0b3a0e 	blcc	2cefbc <__bss_end+0x2cbe40>
     780:	0000000b 	andeq	r0, r0, fp
     784:	25011101 	strcs	r1, [r1, #-257]	; 0xfffffeff
     788:	030b130e 	movweq	r1, #45838	; 0xb30e
     78c:	110e1b0e 	tstne	lr, lr, lsl #22
     790:	10061201 	andne	r1, r6, r1, lsl #4
     794:	02000017 	andeq	r0, r0, #23
     798:	0b0b0024 	bleq	2c0830 <__bss_end+0x2bd6b4>
     79c:	0e030b3e 	vmoveq.16	d3[0], r0
     7a0:	24030000 	strcs	r0, [r3], #-0
     7a4:	3e0b0b00 	vmlacc.f64	d0, d11, d0
     7a8:	0008030b 	andeq	r0, r8, fp, lsl #6
     7ac:	00160400 	andseq	r0, r6, r0, lsl #8
     7b0:	0b3a0e03 	bleq	e83fc4 <__bss_end+0xe80e48>
     7b4:	13490b3b 	movtne	r0, #39739	; 0x9b3b
     7b8:	13050000 	movwne	r0, #20480	; 0x5000
     7bc:	0b0e0301 	bleq	3813c8 <__bss_end+0x37e24c>
     7c0:	3b0b3a0b 	blcc	2ceff4 <__bss_end+0x2cbe78>
     7c4:	0013010b 	andseq	r0, r3, fp, lsl #2
     7c8:	000d0600 	andeq	r0, sp, r0, lsl #12
     7cc:	0b3a0e03 	bleq	e83fe0 <__bss_end+0xe80e64>
     7d0:	13490b3b 	movtne	r0, #39739	; 0x9b3b
     7d4:	00000b38 	andeq	r0, r0, r8, lsr fp
     7d8:	03000d07 	movweq	r0, #3335	; 0xd07
     7dc:	3b0b3a08 	blcc	2cf004 <__bss_end+0x2cbe88>
     7e0:	3813490b 	ldmdacc	r3, {r0, r1, r3, r8, fp, lr}
     7e4:	0800000b 	stmdaeq	r0, {r0, r1, r3}
     7e8:	193f012e 	ldmdbne	pc!, {r1, r2, r3, r5, r8}	; <UNPREDICTABLE>
     7ec:	0b3a0e03 	bleq	e84000 <__bss_end+0xe80e84>
     7f0:	19270b3b 	stmdbne	r7!, {r0, r1, r3, r4, r5, r8, r9, fp}
     7f4:	06120111 			; <UNDEFINED> instruction: 0x06120111
     7f8:	42971840 	addsmi	r1, r7, #64, 16	; 0x400000
     7fc:	00130119 	andseq	r0, r3, r9, lsl r1
     800:	00050900 	andeq	r0, r5, r0, lsl #18
     804:	0b3a0e03 	bleq	e84018 <__bss_end+0xe80e9c>
     808:	13490b3b 	movtne	r0, #39739	; 0x9b3b
     80c:	00001802 	andeq	r1, r0, r2, lsl #16
     810:	0b000f0a 	bleq	4440 <__bss_end+0x12c4>
     814:	0013490b 	andseq	r4, r3, fp, lsl #18
     818:	012e0b00 			; <UNDEFINED> instruction: 0x012e0b00
     81c:	0e03193f 	mcreq	9, 0, r1, cr3, cr15, {1}
     820:	0b3b0b3a 	bleq	ec3510 <__bss_end+0xec0394>
     824:	01111927 	tsteq	r1, r7, lsr #18
     828:	18400612 	stmdane	r0, {r1, r4, r9, sl}^
     82c:	00194297 	mulseq	r9, r7, r2
     830:	11010000 	mrsne	r0, (UNDEF: 1)
     834:	11061000 	mrsne	r1, (UNDEF: 6)
     838:	03011201 	movweq	r1, #4609	; 0x1201
     83c:	25081b08 	strcs	r1, [r8, #-2824]	; 0xfffff4f8
     840:	00051308 	andeq	r1, r5, r8, lsl #6
     844:	11010000 	mrsne	r0, (UNDEF: 1)
     848:	130e2501 	movwne	r2, #58625	; 0xe501
     84c:	1b0e030b 	blne	381480 <__bss_end+0x37e304>
     850:	1201110e 	andne	r1, r1, #-2147483645	; 0x80000003
     854:	00171006 	andseq	r1, r7, r6
     858:	00240200 	eoreq	r0, r4, r0, lsl #4
     85c:	0b3e0b0b 	bleq	f83490 <__bss_end+0xf80314>
     860:	00000e03 	andeq	r0, r0, r3, lsl #28
     864:	0b002403 	bleq	9878 <__bss_end+0x66fc>
     868:	030b3e0b 	movweq	r3, #48651	; 0xbe0b
     86c:	04000008 	streq	r0, [r0], #-8
     870:	0e030016 	mcreq	0, 0, r0, cr3, cr6, {0}
     874:	0b3b0b3a 	bleq	ec3564 <__bss_end+0xec03e8>
     878:	00001349 	andeq	r1, r0, r9, asr #6
     87c:	03011305 	movweq	r1, #4869	; 0x1305
     880:	3a0b0b0e 	bcc	2c34c0 <__bss_end+0x2c0344>
     884:	010b3b0b 	tsteq	fp, fp, lsl #22
     888:	06000013 			; <UNDEFINED> instruction: 0x06000013
     88c:	0e03000d 	cdpeq	0, 0, cr0, cr3, cr13, {0}
     890:	0b3b0b3a 	bleq	ec3580 <__bss_end+0xec0404>
     894:	0b381349 	bleq	e055c0 <__bss_end+0xe02444>
     898:	0d070000 	stceq	0, cr0, [r7, #-0]
     89c:	3a080300 	bcc	2014a4 <__bss_end+0x1fe328>
     8a0:	490b3b0b 	stmdbmi	fp, {r0, r1, r3, r8, r9, fp, ip, sp}
     8a4:	000b3813 	andeq	r3, fp, r3, lsl r8
     8a8:	01040800 	tsteq	r4, r0, lsl #16
     8ac:	0b0b0e03 	bleq	2c40c0 <__bss_end+0x2c0f44>
     8b0:	0b3a1349 	bleq	e855dc <__bss_end+0xe82460>
     8b4:	13010b3b 	movwne	r0, #6971	; 0x1b3b
     8b8:	28090000 	stmdacs	r9, {}	; <UNPREDICTABLE>
     8bc:	1c0e0300 	stcne	3, cr0, [lr], {-0}
     8c0:	0a00000b 	beq	8f4 <inv_loop2>
     8c4:	193f012e 	ldmdbne	pc!, {r1, r2, r3, r5, r8}	; <UNPREDICTABLE>
     8c8:	0b3a0e03 	bleq	e840dc <__bss_end+0xe80f60>
     8cc:	19270b3b 	stmdbne	r7!, {r0, r1, r3, r4, r5, r8, r9, fp}
     8d0:	06120111 			; <UNDEFINED> instruction: 0x06120111
     8d4:	42971840 	addsmi	r1, r7, #64, 16	; 0x400000
     8d8:	00130119 	andseq	r0, r3, r9, lsl r1
     8dc:	00050b00 	andeq	r0, r5, r0, lsl #22
     8e0:	0b3a0e03 	bleq	e840f4 <__bss_end+0xe80f78>
     8e4:	13490b3b 	movtne	r0, #39739	; 0x9b3b
     8e8:	00001802 	andeq	r1, r0, r2, lsl #16
     8ec:	0b000f0c 	bleq	4524 <__bss_end+0x13a8>
     8f0:	0013490b 	andseq	r4, r3, fp, lsl #18
     8f4:	012e0d00 			; <UNDEFINED> instruction: 0x012e0d00
     8f8:	0e03193f 	mcreq	9, 0, r1, cr3, cr15, {1}
     8fc:	053b0b3a 	ldreq	r0, [fp, #-2874]!	; 0xfffff4c6
     900:	01111927 	tsteq	r1, r7, lsr #18
     904:	18400612 	stmdane	r0, {r1, r4, r9, sl}^
     908:	01194297 			; <UNDEFINED> instruction: 0x01194297
     90c:	0e000013 	mcreq	0, 0, r0, cr0, cr3, {0}
     910:	0e030005 	cdpeq	0, 0, cr0, cr3, cr5, {0}
     914:	053b0b3a 	ldreq	r0, [fp, #-2874]!	; 0xfffff4c6
     918:	18021349 	stmdane	r2, {r0, r3, r6, r8, r9, ip}
     91c:	340f0000 	strcc	r0, [pc], #-0	; 924 <inv_finished+0x4>
     920:	3a080300 	bcc	201528 <__bss_end+0x1fe3ac>
     924:	49053b0b 	stmdbmi	r5, {r0, r1, r3, r8, r9, fp, ip, sp}
     928:	00170213 	andseq	r0, r7, r3, lsl r2
     92c:	00341000 	eorseq	r1, r4, r0
     930:	0b3a0e03 	bleq	e84144 <__bss_end+0xe80fc8>
     934:	1349053b 	movtne	r0, #38203	; 0x953b
     938:	00001802 	andeq	r1, r0, r2, lsl #16
     93c:	01828911 	orreq	r8, r2, r1, lsl r9
     940:	95011101 	strls	r1, [r1, #-257]	; 0xfffffeff
     944:	13311942 	teqne	r1, #1081344	; 0x108000
     948:	8a120000 	bhi	480950 <__bss_end+0x47d7d4>
     94c:	02000182 	andeq	r0, r0, #-2147483616	; 0x80000020
     950:	18429118 	stmdane	r2, {r3, r4, r8, ip, pc}^
     954:	2e130000 	cdpcs	0, 1, cr0, cr3, cr0, {0}
     958:	03193f00 	tsteq	r9, #0, 30
     95c:	3b0b3a0e 	blcc	2cf19c <__bss_end+0x2cc020>
     960:	11192705 	tstne	r9, r5, lsl #14
     964:	40061201 	andmi	r1, r6, r1, lsl #4
     968:	19429718 	stmdbne	r2, {r3, r4, r8, r9, sl, ip, pc}^
     96c:	34140000 	ldrcc	r0, [r4], #-0
     970:	3a0e0300 	bcc	381578 <__bss_end+0x37e3fc>
     974:	490b3b0b 	stmdbmi	fp, {r0, r1, r3, r8, r9, fp, ip, sp}
     978:	00180213 	andseq	r0, r8, r3, lsl r2
     97c:	00341500 	eorseq	r1, r4, r0, lsl #10
     980:	0b3a0e03 	bleq	e84194 <__bss_end+0xe81018>
     984:	13490b3b 	movtne	r0, #39739	; 0x9b3b
     988:	00000a1c 	andeq	r0, r0, ip, lsl sl
     98c:	49002616 	stmdbmi	r0, {r1, r2, r4, r9, sl, sp}
     990:	17000013 	smladne	r0, r3, r0, r0
     994:	13490101 	movtne	r0, #37121	; 0x9101
     998:	00001301 	andeq	r1, r0, r1, lsl #6
     99c:	49002118 	stmdbmi	r0, {r3, r4, r8, sp}
     9a0:	000b2f13 	andeq	r2, fp, r3, lsl pc
     9a4:	00341900 	eorseq	r1, r4, r0, lsl #18
     9a8:	0b3a0e03 	bleq	e841bc <__bss_end+0xe81040>
     9ac:	13490b3b 	movtne	r0, #39739	; 0x9b3b
     9b0:	1802193f 	stmdane	r2, {r0, r1, r2, r3, r4, r5, r8, fp, ip}
     9b4:	01000000 	mrseq	r0, (UNDEF: 0)
     9b8:	0e250111 	mcreq	1, 1, r0, cr5, cr1, {0}
     9bc:	0e030b13 	vmoveq.32	d3[0], r0
     9c0:	01110e1b 	tsteq	r1, fp, lsl lr
     9c4:	17100612 			; <UNDEFINED> instruction: 0x17100612
     9c8:	24020000 	strcs	r0, [r2], #-0
     9cc:	3e0b0b00 	vmlacc.f64	d0, d11, d0
     9d0:	000e030b 	andeq	r0, lr, fp, lsl #6
     9d4:	00160300 	andseq	r0, r6, r0, lsl #6
     9d8:	0b3a0e03 	bleq	e841ec <__bss_end+0xe81070>
     9dc:	13490b3b 	movtne	r0, #39739	; 0x9b3b
     9e0:	24040000 	strcs	r0, [r4], #-0
     9e4:	3e0b0b00 	vmlacc.f64	d0, d11, d0
     9e8:	0008030b 	andeq	r0, r8, fp, lsl #6
     9ec:	01130500 	tsteq	r3, r0, lsl #10
     9f0:	0b3a0b0b 	bleq	e83624 <__bss_end+0xe804a8>
     9f4:	13010b3b 	movwne	r0, #6971	; 0x1b3b
     9f8:	0d060000 	stceq	0, cr0, [r6, #-0]
     9fc:	3a0e0300 	bcc	381604 <__bss_end+0x37e488>
     a00:	490b3b0b 	stmdbmi	fp, {r0, r1, r3, r8, r9, fp, ip, sp}
     a04:	0d0b0b13 	vstreq	d0, [fp, #-76]	; 0xffffffb4
     a08:	380b0c0b 	stmdacc	fp, {r0, r1, r3, sl, fp}
     a0c:	0700000b 	streq	r0, [r0, -fp]
     a10:	0b0b0117 	bleq	2c0e74 <__bss_end+0x2bdcf8>
     a14:	0b3b0b3a 	bleq	ec3704 <__bss_end+0xec0588>
     a18:	00001301 	andeq	r1, r0, r1, lsl #6
     a1c:	03000d08 	movweq	r0, #3336	; 0xd08
     a20:	3b0b3a0e 	blcc	2cf260 <__bss_end+0x2cc0e4>
     a24:	0013490b 	andseq	r4, r3, fp, lsl #18
     a28:	01130900 	tsteq	r3, r0, lsl #18
     a2c:	0b0b0e03 	bleq	2c4240 <__bss_end+0x2c10c4>
     a30:	0b3b0b3a 	bleq	ec3720 <__bss_end+0xec05a4>
     a34:	00001301 	andeq	r1, r0, r1, lsl #6
     a38:	0301130a 	movweq	r1, #4874	; 0x130a
     a3c:	3a050b0e 	bcc	14367c <__bss_end+0x140500>
     a40:	010b3b0b 	tsteq	fp, fp, lsl #22
     a44:	0b000013 	bleq	a98 <enable_cache+0x18>
     a48:	0e03000d 	cdpeq	0, 0, cr0, cr3, cr13, {0}
     a4c:	0b3b0b3a 	bleq	ec373c <__bss_end+0xec05c0>
     a50:	0b381349 	bleq	e0577c <__bss_end+0xe02600>
     a54:	0d0c0000 	stceq	0, cr0, [ip, #-0]
     a58:	3a080300 	bcc	201660 <__bss_end+0x1fe4e4>
     a5c:	490b3b0b 	stmdbmi	fp, {r0, r1, r3, r8, r9, fp, ip, sp}
     a60:	000b3813 	andeq	r3, fp, r3, lsl r8
     a64:	000d0d00 	andeq	r0, sp, r0, lsl #26
     a68:	0b3a0e03 	bleq	e8427c <__bss_end+0xe81100>
     a6c:	1349053b 	movtne	r0, #38203	; 0x953b
     a70:	00000b38 	andeq	r0, r0, r8, lsr fp
     a74:	03000d0e 	movweq	r0, #3342	; 0xd0e
     a78:	3b0b3a08 	blcc	2cf2a0 <__bss_end+0x2cc124>
     a7c:	38134905 	ldmdacc	r3, {r0, r2, r8, fp, lr}
     a80:	0f00000b 	svceq	0x0000000b
     a84:	0e03000d 	cdpeq	0, 0, cr0, cr3, cr13, {0}
     a88:	053b0b3a 	ldreq	r0, [fp, #-2874]!	; 0xfffff4c6
     a8c:	05381349 	ldreq	r1, [r8, #-841]!	; 0xfffffcb7
     a90:	0d100000 	ldceq	0, cr0, [r0, #-0]
     a94:	3a080300 	bcc	20169c <__bss_end+0x1fe520>
     a98:	49053b0b 	stmdbmi	r5, {r0, r1, r3, r8, r9, fp, ip, sp}
     a9c:	00053813 	andeq	r3, r5, r3, lsl r8
     aa0:	00351100 	eorseq	r1, r5, r0, lsl #2
     aa4:	00001349 	andeq	r1, r0, r9, asr #6
     aa8:	49010112 	stmdbmi	r1, {r1, r4, r8}
     aac:	00130113 	andseq	r0, r3, r3, lsl r1
     ab0:	00211300 	eoreq	r1, r1, r0, lsl #6
     ab4:	0b2f1349 	bleq	bc57e0 <__bss_end+0xbc2664>
     ab8:	16140000 	ldrne	r0, [r4], -r0
     abc:	3a0e0300 	bcc	3816c4 <__bss_end+0x37e548>
     ac0:	49053b0b 	stmdbmi	r5, {r0, r1, r3, r8, r9, fp, ip, sp}
     ac4:	15000013 	strne	r0, [r0, #-19]	; 0xffffffed
     ac8:	0b0b000f 	bleq	2c0b0c <__bss_end+0x2bd990>
     acc:	00001349 	andeq	r1, r0, r9, asr #6
     ad0:	03010416 	movweq	r0, #5142	; 0x1416
     ad4:	490b0b0e 	stmdbmi	fp, {r1, r2, r3, r8, r9, fp}
     ad8:	3b0b3a13 	blcc	2cf32c <__bss_end+0x2cc1b0>
     adc:	0013010b 	andseq	r0, r3, fp, lsl #2
     ae0:	00281700 	eoreq	r1, r8, r0, lsl #14
     ae4:	0b1c0e03 	bleq	7042f8 <__bss_end+0x70117c>
     ae8:	2e180000 	cdpcs	0, 1, cr0, cr8, cr0, {0}
     aec:	3a0e0301 	bcc	3816f8 <__bss_end+0x37e57c>
     af0:	27053b0b 	strcs	r3, [r5, -fp, lsl #22]
     af4:	010b2019 	tsteq	fp, r9, lsl r0
     af8:	19000013 	stmdbne	r0, {r0, r1, r4}
     afc:	0e030005 	cdpeq	0, 0, cr0, cr3, cr5, {0}
     b00:	053b0b3a 	ldreq	r0, [fp, #-2874]!	; 0xfffff4c6
     b04:	00001349 	andeq	r1, r0, r9, asr #6
     b08:	0300341a 	movweq	r3, #1050	; 0x41a
     b0c:	3b0b3a0e 	blcc	2cf34c <__bss_end+0x2cc1d0>
     b10:	00134905 	andseq	r4, r3, r5, lsl #18
     b14:	00341b00 	eorseq	r1, r4, r0, lsl #22
     b18:	0b3a0803 	bleq	e82b2c <__bss_end+0xe7f9b0>
     b1c:	1349053b 	movtne	r0, #38203	; 0x953b
     b20:	2e1c0000 	cdpcs	0, 1, cr0, cr12, cr0, {0}
     b24:	3a0e0301 	bcc	381730 <__bss_end+0x37e5b4>
     b28:	270b3b0b 	strcs	r3, [fp, -fp, lsl #22]
     b2c:	20134919 	andscs	r4, r3, r9, lsl r9
     b30:	0013010b 	andseq	r0, r3, fp, lsl #2
     b34:	00051d00 	andeq	r1, r5, r0, lsl #26
     b38:	0b3a0e03 	bleq	e8434c <__bss_end+0xe811d0>
     b3c:	13490b3b 	movtne	r0, #39739	; 0x9b3b
     b40:	341e0000 	ldrcc	r0, [lr], #-0
     b44:	3a0e0300 	bcc	38174c <__bss_end+0x37e5d0>
     b48:	490b3b0b 	stmdbmi	fp, {r0, r1, r3, r8, r9, fp, ip, sp}
     b4c:	1f000013 	svcne	0x00000013
     b50:	08030034 	stmdaeq	r3, {r2, r4, r5}
     b54:	0b3b0b3a 	bleq	ec3844 <__bss_end+0xec06c8>
     b58:	00001349 	andeq	r1, r0, r9, asr #6
     b5c:	03000520 	movweq	r0, #1312	; 0x520
     b60:	3b0b3a08 	blcc	2cf388 <__bss_end+0x2cc20c>
     b64:	00134905 	andseq	r4, r3, r5, lsl #18
     b68:	012e2100 			; <UNDEFINED> instruction: 0x012e2100
     b6c:	0b3a0e03 	bleq	e84380 <__bss_end+0xe81204>
     b70:	1927053b 	stmdbne	r7!, {r0, r1, r3, r4, r5, r8, sl}
     b74:	0b201349 	bleq	8058a0 <__bss_end+0x802724>
     b78:	00001301 	andeq	r1, r0, r1, lsl #6
     b7c:	3f002e22 	svccc	0x00002e22
     b80:	3a0e0319 	bcc	3817ec <__bss_end+0x37e670>
     b84:	27053b0b 	strcs	r3, [r5, -fp, lsl #22]
     b88:	000b2019 	andeq	r2, fp, r9, lsl r0
     b8c:	012e2300 			; <UNDEFINED> instruction: 0x012e2300
     b90:	01111331 	tsteq	r1, r1, lsr r3
     b94:	18400612 	stmdane	r0, {r1, r4, r9, sl}^
     b98:	01194296 			; <UNDEFINED> instruction: 0x01194296
     b9c:	24000013 	strcs	r0, [r0], #-19	; 0xffffffed
     ba0:	13310005 	teqne	r1, #5
     ba4:	00001702 	andeq	r1, r0, r2, lsl #14
     ba8:	31003425 	tstcc	r0, r5, lsr #8
     bac:	00170213 	andseq	r0, r7, r3, lsl r2
     bb0:	00342600 	eorseq	r2, r4, r0, lsl #12
     bb4:	0b1c1331 	bleq	705880 <__bss_end+0x702704>
     bb8:	0b270000 	bleq	9c0bc0 <__bss_end+0x9bda44>
     bbc:	01175501 	tsteq	r7, r1, lsl #10
     bc0:	28000013 	stmdacs	r0, {r0, r1, r4}
     bc4:	13310005 	teqne	r1, #5
     bc8:	00001802 	andeq	r1, r0, r2, lsl #16
     bcc:	55010b29 	strpl	r0, [r1, #-2857]	; 0xfffff4d7
     bd0:	2a000017 	bcs	c34 <mem_preload_tlb+0x104>
     bd4:	13310034 	teqne	r1, #52	; 0x34
     bd8:	342b0000 	strtcc	r0, [fp], #-0
     bdc:	1c133100 	ldfnes	f3, [r3], {-0}
     be0:	2c00000d 	stccs	0, cr0, [r0], {13}
     be4:	00018289 	andeq	r8, r1, r9, lsl #5
     be8:	13310111 	teqne	r1, #1073741828	; 0x40000004
     bec:	892d0000 	pushhi	{}	; <UNPREDICTABLE>
     bf0:	11010182 	smlabbne	r1, r2, r1, r0
     bf4:	00133101 	andseq	r3, r3, r1, lsl #2
     bf8:	828a2e00 	addhi	r2, sl, #0, 28
     bfc:	18020001 	stmdane	r2, {r0}
     c00:	00184291 	mulseq	r8, r1, r2
     c04:	012e2f00 			; <UNDEFINED> instruction: 0x012e2f00
     c08:	0e03193f 	mcreq	9, 0, r1, cr3, cr15, {1}
     c0c:	053b0b3a 	ldreq	r0, [fp, #-2874]!	; 0xfffff4c6
     c10:	01111927 	tsteq	r1, r7, lsr #18
     c14:	18400612 	stmdane	r0, {r1, r4, r9, sl}^
     c18:	01194297 			; <UNDEFINED> instruction: 0x01194297
     c1c:	30000013 	andcc	r0, r0, r3, lsl r0
     c20:	1331001d 	teqne	r1, #29
     c24:	17550152 			; <UNDEFINED> instruction: 0x17550152
     c28:	05590b58 	ldrbeq	r0, [r9, #-2904]	; 0xfffff4a8
     c2c:	05310000 	ldreq	r0, [r1, #-0]!
     c30:	3a0e0300 	bcc	381838 <__bss_end+0x37e6bc>
     c34:	49053b0b 	stmdbmi	r5, {r0, r1, r3, r8, r9, fp, ip, sp}
     c38:	00170213 	andseq	r0, r7, r3, lsl r2
     c3c:	00343200 	eorseq	r3, r4, r0, lsl #4
     c40:	0b3a0803 	bleq	e82c54 <__bss_end+0xe7fad8>
     c44:	1349053b 	movtne	r0, #38203	; 0x953b
     c48:	00001702 	andeq	r1, r0, r2, lsl #14
     c4c:	03003433 	movweq	r3, #1075	; 0x433
     c50:	3b0b3a0e 	blcc	2cf490 <__bss_end+0x2cc314>
     c54:	02134905 	andseq	r4, r3, #81920	; 0x14000
     c58:	34000017 	strcc	r0, [r0], #-23	; 0xffffffe9
     c5c:	1331011d 	teqne	r1, #1073741831	; 0x40000007
     c60:	17550152 			; <UNDEFINED> instruction: 0x17550152
     c64:	05590b58 	ldrbeq	r0, [r9, #-2904]	; 0xfffff4a8
     c68:	00001301 	andeq	r1, r0, r1, lsl #6
     c6c:	31000535 	tstcc	r0, r5, lsr r5
     c70:	000b1c13 	andeq	r1, fp, r3, lsl ip
     c74:	00343600 	eorseq	r3, r4, r0, lsl #12
     c78:	061c1331 			; <UNDEFINED> instruction: 0x061c1331
     c7c:	2e370000 	cdpcs	0, 3, cr0, cr7, cr0, {0}
     c80:	03193f01 	tsteq	r9, #1, 30
     c84:	3b0b3a0e 	blcc	2cf4c4 <__bss_end+0x2cc348>
     c88:	49192705 	ldmdbmi	r9, {r0, r2, r8, r9, sl, sp}
     c8c:	12011113 	andne	r1, r1, #-1073741820	; 0xc0000004
     c90:	97184006 	ldrls	r4, [r8, -r6]
     c94:	13011942 	movwne	r1, #6466	; 0x1942
     c98:	05380000 	ldreq	r0, [r8, #-0]!
     c9c:	00133100 	andseq	r3, r3, r0, lsl #2
     ca0:	011d3900 	tsteq	sp, r0, lsl #18
     ca4:	01111331 	tsteq	r1, r1, lsr r3
     ca8:	0b580612 	bleq	16024f8 <__bss_end+0x15ff37c>
     cac:	00000559 	andeq	r0, r0, r9, asr r5
     cb0:	4900263a 	stmdbmi	r0, {r1, r3, r4, r5, r9, sl, sp}
     cb4:	3b000013 	blcc	d08 <jump_to_resume0_nommu+0x8>
     cb8:	08030005 	stmdaeq	r3, {r0, r2}
     cbc:	053b0b3a 	ldreq	r0, [fp, #-2874]!	; 0xfffff4c6
     cc0:	17021349 	strne	r1, [r2, -r9, asr #6]
     cc4:	053c0000 	ldreq	r0, [ip, #-0]!
     cc8:	3a080300 	bcc	2018d0 <__bss_end+0x1fe754>
     ccc:	49053b0b 	stmdbmi	r5, {r0, r1, r3, r8, r9, fp, ip, sp}
     cd0:	00180213 	andseq	r0, r8, r3, lsl r2
     cd4:	011d3d00 	tsteq	sp, r0, lsl #26
     cd8:	01521331 	cmpeq	r2, r1, lsr r3
     cdc:	0b581755 	bleq	1606a38 <__bss_end+0x16038bc>
     ce0:	00000559 	andeq	r0, r0, r9, asr r5
     ce4:	31002e3e 	tstcc	r0, lr, lsr lr
     ce8:	12011113 	andne	r1, r1, #-1073741820	; 0xc0000004
     cec:	97184006 	ldrls	r4, [r8, -r6]
     cf0:	00001942 	andeq	r1, r0, r2, asr #18
     cf4:	31001d3f 	tstcc	r0, pc, lsr sp
     cf8:	12011113 	andne	r1, r1, #-1073741820	; 0xc0000004
     cfc:	590b5806 	stmdbpl	fp, {r1, r2, fp, ip, lr}
     d00:	40000005 	andmi	r0, r0, r5
     d04:	0e030034 	mcreq	0, 0, r0, cr3, cr4, {1}
     d08:	0b3b0b3a 	bleq	ec39f8 <__bss_end+0xec087c>
     d0c:	18021349 	stmdane	r2, {r0, r3, r6, r8, r9, ip}
     d10:	2e410000 	cdpcs	0, 4, cr0, cr1, cr0, {0}
     d14:	3c193f00 	ldccc	15, cr3, [r9], {-0}
     d18:	030e6e19 	movweq	r6, #60953	; 0xee19
     d1c:	3b0b3a0e 	blcc	2cf55c <__bss_end+0x2cc3e0>
     d20:	0000000b 	andeq	r0, r0, fp
     d24:	25011101 	strcs	r1, [r1, #-257]	; 0xfffffeff
     d28:	030b130e 	movweq	r1, #45838	; 0xb30e
     d2c:	110e1b0e 	tstne	lr, lr, lsl #22
     d30:	10061201 	andne	r1, r6, r1, lsl #4
     d34:	02000017 	andeq	r0, r0, #23
     d38:	0b0b0024 	bleq	2c0dd0 <__bss_end+0x2bdc54>
     d3c:	0e030b3e 	vmoveq.16	d3[0], r0
     d40:	16030000 	strne	r0, [r3], -r0
     d44:	3a0e0300 	bcc	38194c <__bss_end+0x37e7d0>
     d48:	490b3b0b 	stmdbmi	fp, {r0, r1, r3, r8, r9, fp, ip, sp}
     d4c:	04000013 	streq	r0, [r0], #-19	; 0xffffffed
     d50:	0b0b0024 	bleq	2c0de8 <__bss_end+0x2bdc6c>
     d54:	08030b3e 	stmdaeq	r3, {r1, r2, r3, r4, r5, r8, r9, fp}
     d58:	04050000 	streq	r0, [r5], #-0
     d5c:	0b0e0301 	bleq	381968 <__bss_end+0x37e7ec>
     d60:	3a13490b 	bcc	4d3194 <__bss_end+0x4d0018>
     d64:	010b3b0b 	tsteq	fp, fp, lsl #22
     d68:	06000013 			; <UNDEFINED> instruction: 0x06000013
     d6c:	0e030028 	cdpeq	0, 0, cr0, cr3, cr8, {1}
     d70:	00000b1c 	andeq	r0, r0, ip, lsl fp
     d74:	0b000f07 	bleq	4998 <__bss_end+0x181c>
     d78:	0800000b 	stmdaeq	r0, {r0, r1, r3}
     d7c:	0e030113 	mcreq	1, 0, r0, cr3, cr3, {0}
     d80:	0b3a0b0b 	bleq	e839b4 <__bss_end+0xe80838>
     d84:	13010b3b 	movwne	r0, #6971	; 0x1b3b
     d88:	0d090000 	stceq	0, cr0, [r9, #-0]
     d8c:	490e0300 	stmdbmi	lr, {r8, r9}
     d90:	340b3813 	strcc	r3, [fp], #-2067	; 0xfffff7ed
     d94:	0a000019 	beq	e00 <__save_processor_state+0x50>
     d98:	0e03012e 	adfeqsp	f0, f3, #0.5
     d9c:	0b3b0b3a 	bleq	ec3a8c <__bss_end+0xec0910>
     da0:	13491927 	movtne	r1, #39207	; 0x9927
     da4:	13010b20 	movwne	r0, #6944	; 0x1b20
     da8:	050b0000 	streq	r0, [fp, #-0]
     dac:	3a0e0300 	bcc	3819b4 <__bss_end+0x37e838>
     db0:	490b3b0b 	stmdbmi	fp, {r0, r1, r3, r8, r9, fp, ip, sp}
     db4:	0c000013 	stceq	0, cr0, [r0], {19}
     db8:	08030005 	stmdaeq	r3, {r0, r2}
     dbc:	0b3b0b3a 	bleq	ec3aac <__bss_end+0xec0930>
     dc0:	00001349 	andeq	r1, r0, r9, asr #6
     dc4:	0300340d 	movweq	r3, #1037	; 0x40d
     dc8:	3b0b3a08 	blcc	2cf5f0 <__bss_end+0x2cc474>
     dcc:	0013490b 	andseq	r4, r3, fp, lsl #18
     dd0:	000f0e00 	andeq	r0, pc, r0, lsl #28
     dd4:	13490b0b 	movtne	r0, #39691	; 0x9b0b
     dd8:	260f0000 	strcs	r0, [pc], -r0
     ddc:	00134900 	andseq	r4, r3, r0, lsl #18
     de0:	00341000 	eorseq	r1, r4, r0
     de4:	0b3a0e03 	bleq	e845f8 <__bss_end+0xe8147c>
     de8:	13490b3b 	movtne	r0, #39739	; 0x9b3b
     dec:	01110000 	tsteq	r1, r0
     df0:	01134901 	tsteq	r3, r1, lsl #18
     df4:	12000013 	andne	r0, r0, #19
     df8:	13490021 	movtne	r0, #36897	; 0x9021
     dfc:	00000b2f 	andeq	r0, r0, pc, lsr #22
     e00:	03012e13 	movweq	r2, #7699	; 0x1e13
     e04:	3b0b3a0e 	blcc	2cf644 <__bss_end+0x2cc4c8>
     e08:	4919270b 	ldmdbmi	r9, {r0, r1, r3, r8, r9, sl, sp}
     e0c:	12011113 	andne	r1, r1, #-1073741820	; 0xc0000004
     e10:	96184006 	ldrls	r4, [r8], -r6
     e14:	13011942 	movwne	r1, #6466	; 0x1942
     e18:	05140000 	ldreq	r0, [r4, #-0]
     e1c:	3a0e0300 	bcc	381a24 <__bss_end+0x37e8a8>
     e20:	490b3b0b 	stmdbmi	fp, {r0, r1, r3, r8, r9, fp, ip, sp}
     e24:	00170213 	andseq	r0, r7, r3, lsl r2
     e28:	00341500 	eorseq	r1, r4, r0, lsl #10
     e2c:	0b3a0e03 	bleq	e84640 <__bss_end+0xe814c4>
     e30:	13490b3b 	movtne	r0, #39739	; 0x9b3b
     e34:	00001802 	andeq	r1, r0, r2, lsl #16
     e38:	03003416 	movweq	r3, #1046	; 0x416
     e3c:	3b0b3a08 	blcc	2cf664 <__bss_end+0x2cc4e8>
     e40:	0213490b 	andseq	r4, r3, #180224	; 0x2c000
     e44:	17000017 	smladne	r0, r7, r0, r0
     e48:	0e03012e 	adfeqsp	f0, f3, #0.5
     e4c:	053b0b3a 	ldreq	r0, [fp, #-2874]!	; 0xfffff4c6
     e50:	13491927 	movtne	r1, #39207	; 0x9927
     e54:	06120111 			; <UNDEFINED> instruction: 0x06120111
     e58:	42971840 	addsmi	r1, r7, #64, 16	; 0x400000
     e5c:	00130119 	andseq	r0, r3, r9, lsl r1
     e60:	00051800 	andeq	r1, r5, r0, lsl #16
     e64:	0b3a0e03 	bleq	e84678 <__bss_end+0xe814fc>
     e68:	1349053b 	movtne	r0, #38203	; 0x953b
     e6c:	00001702 	andeq	r1, r0, r2, lsl #14
     e70:	03000519 	movweq	r0, #1305	; 0x519
     e74:	3b0b3a08 	blcc	2cf69c <__bss_end+0x2cc520>
     e78:	02134905 	andseq	r4, r3, #81920	; 0x14000
     e7c:	1a000017 	bne	ee0 <__save_processor_state+0x130>
     e80:	0e030034 	mcreq	0, 0, r0, cr3, cr4, {1}
     e84:	053b0b3a 	ldreq	r0, [fp, #-2874]!	; 0xfffff4c6
     e88:	18021349 	stmdane	r2, {r0, r3, r6, r8, r9, ip}
     e8c:	1d1b0000 	ldcne	0, cr0, [fp, #-0]
     e90:	52133101 	andspl	r3, r3, #1073741824	; 0x40000000
     e94:	58175501 	ldmdapl	r7, {r0, r8, sl, ip, lr}
     e98:	0005590b 	andeq	r5, r5, fp, lsl #18
     e9c:	00051c00 	andeq	r1, r5, r0, lsl #24
     ea0:	17021331 	smladxne	r2, r1, r3, r1
     ea4:	0b1d0000 	bleq	740eac <__bss_end+0x73dd30>
     ea8:	00175501 	andseq	r5, r7, r1, lsl #10
     eac:	00341e00 	eorseq	r1, r4, r0, lsl #28
     eb0:	17021331 	smladxne	r2, r1, r3, r1
     eb4:	2e1f0000 	cdpcs	0, 1, cr0, cr15, cr0, {0}
     eb8:	11133101 	tstne	r3, r1, lsl #2
     ebc:	40061201 	andmi	r1, r6, r1, lsl #4
     ec0:	19429718 	stmdbne	r2, {r3, r4, r8, r9, sl, ip, pc}^
     ec4:	00001301 	andeq	r1, r0, r1, lsl #6
     ec8:	31003420 	tstcc	r0, r0, lsr #8
     ecc:	00180213 	andseq	r0, r8, r3, lsl r2
     ed0:	00052100 	andeq	r2, r5, r0, lsl #2
     ed4:	0b1c1331 	bleq	705ba0 <__bss_end+0x702a24>
     ed8:	2e220000 	cdpcs	0, 2, cr0, cr2, cr0, {0}
     edc:	03193f01 	tsteq	r9, #1, 30
     ee0:	3b0b3a0e 	blcc	2cf720 <__bss_end+0x2cc5a4>
     ee4:	49192705 	ldmdbmi	r9, {r0, r2, r8, r9, sl, sp}
     ee8:	12011113 	andne	r1, r1, #-1073741820	; 0xc0000004
     eec:	97184006 	ldrls	r4, [r8, -r6]
     ef0:	13011942 	movwne	r1, #6466	; 0x1942
     ef4:	18230000 	stmdane	r3!, {}	; <UNPREDICTABLE>
     ef8:	24000000 	strcs	r0, [r0], #-0
     efc:	0e030034 	mcreq	0, 0, r0, cr3, cr4, {1}
     f00:	053b0b3a 	ldreq	r0, [fp, #-2874]!	; 0xfffff4c6
     f04:	17021349 	strne	r1, [r2, -r9, asr #6]
     f08:	34250000 	strtcc	r0, [r5], #-0
     f0c:	3a080300 	bcc	201b14 <__bss_end+0x1fe998>
     f10:	49053b0b 	stmdbmi	r5, {r0, r1, r3, r8, r9, fp, ip, sp}
     f14:	00170213 	andseq	r0, r7, r3, lsl r2
     f18:	011d2600 	tsteq	sp, r0, lsl #12
     f1c:	01521331 	cmpeq	r2, r1, lsr r3
     f20:	0b581755 	bleq	1606c7c <__bss_end+0x1603b00>
     f24:	13010559 	movwne	r0, #5465	; 0x1559
     f28:	1d270000 	stcne	0, cr0, [r7, #-0]
     f2c:	11133101 	tstne	r3, r1, lsl #2
     f30:	58061201 	stmdapl	r6, {r0, r9, ip}
     f34:	0105590b 	tsteq	r5, fp, lsl #18
     f38:	28000013 	stmdacs	r0, {r0, r1, r4}
     f3c:	13310005 	teqne	r1, #5
     f40:	0b290000 	bleq	a40f48 <__bss_end+0xa3ddcc>
     f44:	12011101 	andne	r1, r1, #1073741824	; 0x40000000
     f48:	2a000006 	bcs	f68 <__save_processor_state+0x1b8>
     f4c:	13310034 	teqne	r1, #52	; 0x34
     f50:	892b0000 	stmdbhi	fp!, {}	; <UNPREDICTABLE>
     f54:	11010182 	smlabbne	r1, r2, r1, r0
     f58:	01133101 	tsteq	r3, r1, lsl #2
     f5c:	2c000013 	stccs	0, cr0, [r0], {19}
     f60:	0001828a 	andeq	r8, r1, sl, lsl #5
     f64:	42911802 	addsmi	r1, r1, #131072	; 0x20000
     f68:	2d000018 	stccs	0, cr0, [r0, #-96]	; 0xffffffa0
     f6c:	01018289 	smlabbeq	r1, r9, r2, r8
     f70:	13310111 	teqne	r1, #1073741828	; 0x40000004
     f74:	2e2e0000 	cdpcs	0, 2, cr0, cr14, cr0, {0}
     f78:	3c193f00 	ldccc	15, cr3, [r9], {-0}
     f7c:	030e6e19 	movweq	r6, #60953	; 0xee19
     f80:	3b0b3a0e 	blcc	2cf7c0 <__bss_end+0x2cc644>
     f84:	0000000b 	andeq	r0, r0, fp
     f88:	10001101 	andne	r1, r0, r1, lsl #2
     f8c:	12011106 	andne	r1, r1, #-2147483647	; 0x80000001
     f90:	1b080301 	blne	201b9c <__bss_end+0x1fea20>
     f94:	13082508 	movwne	r2, #34056	; 0x8508
     f98:	00000005 	andeq	r0, r0, r5
     f9c:	25011101 	strcs	r1, [r1, #-257]	; 0xfffffeff
     fa0:	030b130e 	movweq	r1, #45838	; 0xb30e
     fa4:	110e1b0e 	tstne	lr, lr, lsl #22
     fa8:	10061201 	andne	r1, r6, r1, lsl #4
     fac:	02000017 	andeq	r0, r0, #23
     fb0:	0b0b0024 	bleq	2c1048 <__bss_end+0x2bdecc>
     fb4:	0e030b3e 	vmoveq.16	d3[0], r0
     fb8:	16030000 	strne	r0, [r3], -r0
     fbc:	3a0e0300 	bcc	381bc4 <__bss_end+0x37ea48>
     fc0:	490b3b0b 	stmdbmi	fp, {r0, r1, r3, r8, r9, fp, ip, sp}
     fc4:	04000013 	streq	r0, [r0], #-19	; 0xffffffed
     fc8:	0b0b0024 	bleq	2c1060 <__bss_end+0x2bdee4>
     fcc:	08030b3e 	stmdaeq	r3, {r1, r2, r3, r4, r5, r8, r9, fp}
     fd0:	2e050000 	cdpcs	0, 0, cr0, cr5, cr0, {0}
     fd4:	03193f01 	tsteq	r9, #1, 30
     fd8:	3b0b3a0e 	blcc	2cf818 <__bss_end+0x2cc69c>
     fdc:	1119270b 	tstne	r9, fp, lsl #14
     fe0:	40061201 	andmi	r1, r6, r1, lsl #4
     fe4:	19429718 	stmdbne	r2, {r3, r4, r8, r9, sl, ip, pc}^
     fe8:	00001301 	andeq	r1, r0, r1, lsl #6
     fec:	01828906 	orreq	r8, r2, r6, lsl #18
     ff0:	95011101 	strls	r1, [r1, #-257]	; 0xfffffeff
     ff4:	13311942 	teqne	r1, #1081344	; 0x108000
     ff8:	8a070000 	bhi	1c1000 <__bss_end+0x1bde84>
     ffc:	02000182 	andeq	r0, r0, #-2147483616	; 0x80000020
    1000:	18429118 	stmdane	r2, {r3, r4, r8, ip, pc}^
    1004:	2e080000 	cdpcs	0, 0, cr0, cr8, cr0, {0}
    1008:	03193f01 	tsteq	r9, #1, 30
    100c:	3b0b3a0e 	blcc	2cf84c <__bss_end+0x2cc6d0>
    1010:	4919270b 	ldmdbmi	r9, {r0, r1, r3, r8, r9, sl, sp}
    1014:	12011113 	andne	r1, r1, #-1073741820	; 0xc0000004
    1018:	97184006 	ldrls	r4, [r8, -r6]
    101c:	13011942 	movwne	r1, #6466	; 0x1942
    1020:	05090000 	streq	r0, [r9, #-0]
    1024:	3a0e0300 	bcc	381c2c <__bss_end+0x37eab0>
    1028:	490b3b0b 	stmdbmi	fp, {r0, r1, r3, r8, r9, fp, ip, sp}
    102c:	00170213 	andseq	r0, r7, r3, lsl r2
    1030:	00340a00 	eorseq	r0, r4, r0, lsl #20
    1034:	0b3a0e03 	bleq	e84848 <__bss_end+0xe816cc>
    1038:	13490b3b 	movtne	r0, #39739	; 0x9b3b
    103c:	00001702 	andeq	r1, r0, r2, lsl #14
    1040:	3f002e0b 	svccc	0x00002e0b
    1044:	6e193c19 	mrcvs	12, 0, r3, cr9, cr9, {0}
    1048:	3a0e030e 	bcc	381c88 <__bss_end+0x37eb0c>
    104c:	000b3b0b 	andeq	r3, fp, fp, lsl #22
    1050:	11010000 	mrsne	r0, (UNDEF: 1)
    1054:	130e2501 	movwne	r2, #58625	; 0xe501
    1058:	1b0e030b 	blne	381c8c <__bss_end+0x37eb10>
    105c:	1201110e 	andne	r1, r1, #-2147483645	; 0x80000003
    1060:	00171006 	andseq	r1, r7, r6
    1064:	00240200 	eoreq	r0, r4, r0, lsl #4
    1068:	0b3e0b0b 	bleq	f83c9c <__bss_end+0xf80b20>
    106c:	00000e03 	andeq	r0, r0, r3, lsl #28
    1070:	03001603 	movweq	r1, #1539	; 0x603
    1074:	3b0b3a0e 	blcc	2cf8b4 <__bss_end+0x2cc738>
    1078:	0013490b 	andseq	r4, r3, fp, lsl #18
    107c:	00240400 	eoreq	r0, r4, r0, lsl #8
    1080:	0b3e0b0b 	bleq	f83cb4 <__bss_end+0xf80b38>
    1084:	00000803 	andeq	r0, r0, r3, lsl #16
    1088:	49003505 	stmdbmi	r0, {r0, r2, r8, sl, ip, sp}
    108c:	06000013 			; <UNDEFINED> instruction: 0x06000013
    1090:	0e030104 	adfeqs	f0, f3, f4
    1094:	13490b0b 	movtne	r0, #39691	; 0x9b0b
    1098:	0b3b0b3a 	bleq	ec3d88 <__bss_end+0xec0c0c>
    109c:	00001301 	andeq	r1, r0, r1, lsl #6
    10a0:	03002807 	movweq	r2, #2055	; 0x807
    10a4:	000b1c0e 	andeq	r1, fp, lr, lsl #24
    10a8:	000f0800 	andeq	r0, pc, r0, lsl #16
    10ac:	00000b0b 	andeq	r0, r0, fp, lsl #22
    10b0:	3f012e09 	svccc	0x00012e09
    10b4:	3a0e0319 	bcc	381d20 <__bss_end+0x37eba4>
    10b8:	270b3b0b 	strcs	r3, [fp, -fp, lsl #22]
    10bc:	11134919 	tstne	r3, r9, lsl r9
    10c0:	40061201 	andmi	r1, r6, r1, lsl #4
    10c4:	19429718 	stmdbne	r2, {r3, r4, r8, r9, sl, ip, pc}^
    10c8:	00001301 	andeq	r1, r0, r1, lsl #6
    10cc:	0300340a 	movweq	r3, #1034	; 0x40a
    10d0:	3b0b3a08 	blcc	2cf8f8 <__bss_end+0x2cc77c>
    10d4:	0213490b 	andseq	r4, r3, #180224	; 0x2c000
    10d8:	0b000017 	bleq	113c <__save_processor_state+0x38c>
    10dc:	01018289 	smlabbeq	r1, r9, r2, r8
    10e0:	13310111 	teqne	r1, #1073741828	; 0x40000004
    10e4:	8a0c0000 	bhi	3010ec <__bss_end+0x2fdf70>
    10e8:	02000182 	andeq	r0, r0, #-2147483616	; 0x80000020
    10ec:	18429118 	stmdane	r2, {r3, r4, r8, ip, pc}^
    10f0:	340d0000 	strcc	r0, [sp], #-0
    10f4:	3a0e0300 	bcc	381cfc <__bss_end+0x37eb80>
    10f8:	490b3b0b 	stmdbmi	fp, {r0, r1, r3, r8, r9, fp, ip, sp}
    10fc:	00180213 	andseq	r0, r8, r3, lsl r2
    1100:	00050e00 	andeq	r0, r5, r0, lsl #28
    1104:	0b3a0803 	bleq	e83118 <__bss_end+0xe7ff9c>
    1108:	13490b3b 	movtne	r0, #39739	; 0x9b3b
    110c:	00001702 	andeq	r1, r0, r2, lsl #14
    1110:	0300340f 	movweq	r3, #1039	; 0x40f
    1114:	3b0b3a0e 	blcc	2cf954 <__bss_end+0x2cc7d8>
    1118:	0213490b 	andseq	r4, r3, #180224	; 0x2c000
    111c:	10000017 	andne	r0, r0, r7, lsl r0
    1120:	0e030034 	mcreq	0, 0, r0, cr3, cr4, {1}
    1124:	0b3b0b3a 	bleq	ec3e14 <__bss_end+0xec0c98>
    1128:	00001349 	andeq	r1, r0, r9, asr #6
    112c:	3f002e11 	svccc	0x00002e11
    1130:	6e193c19 	mrcvs	12, 0, r3, cr9, cr9, {0}
    1134:	3a0e030e 	bcc	381d74 <__bss_end+0x37ebf8>
    1138:	000b3b0b 	andeq	r3, fp, fp, lsl #22
    113c:	11010000 	mrsne	r0, (UNDEF: 1)
    1140:	130e2501 	movwne	r2, #58625	; 0xe501
    1144:	1b0e030b 	blne	381d78 <__bss_end+0x37ebfc>
    1148:	1201110e 	andne	r1, r1, #-2147483645	; 0x80000003
    114c:	00171006 	andseq	r1, r7, r6
    1150:	00240200 	eoreq	r0, r4, r0, lsl #4
    1154:	0b3e0b0b 	bleq	f83d88 <__bss_end+0xf80c0c>
    1158:	00000e03 	andeq	r0, r0, r3, lsl #28
    115c:	03001603 	movweq	r1, #1539	; 0x603
    1160:	3b0b3a0e 	blcc	2cf9a0 <__bss_end+0x2cc824>
    1164:	0013490b 	andseq	r4, r3, fp, lsl #18
    1168:	00240400 	eoreq	r0, r4, r0, lsl #8
    116c:	0b3e0b0b 	bleq	f83da0 <__bss_end+0xf80c24>
    1170:	00000803 	andeq	r0, r0, r3, lsl #16
    1174:	03011305 	movweq	r1, #4869	; 0x1305
    1178:	3a050b0e 	bcc	143db8 <__bss_end+0x140c3c>
    117c:	010b3b0b 	tsteq	fp, fp, lsl #22
    1180:	06000013 			; <UNDEFINED> instruction: 0x06000013
    1184:	0e03000d 	cdpeq	0, 0, cr0, cr3, cr13, {0}
    1188:	0b3b0b3a 	bleq	ec3e78 <__bss_end+0xec0cfc>
    118c:	0b381349 	bleq	e05eb8 <__bss_end+0xe02d3c>
    1190:	01070000 	mrseq	r0, (UNDEF: 7)
    1194:	01134901 	tsteq	r3, r1, lsl #18
    1198:	08000013 	stmdaeq	r0, {r0, r1, r4}
    119c:	13490021 	movtne	r0, #36897	; 0x9021
    11a0:	00000b2f 	andeq	r0, r0, pc, lsr #22
    11a4:	3f012e09 	svccc	0x00012e09
    11a8:	3a0e0319 	bcc	381e14 <__bss_end+0x37ec98>
    11ac:	270b3b0b 	strcs	r3, [fp, -fp, lsl #22]
    11b0:	11134919 	tstne	r3, r9, lsl r9
    11b4:	40061201 	andmi	r1, r6, r1, lsl #4
    11b8:	19429718 	stmdbne	r2, {r3, r4, r8, r9, sl, ip, pc}^
    11bc:	00001301 	andeq	r1, r0, r1, lsl #6
    11c0:	0300050a 	movweq	r0, #1290	; 0x50a
    11c4:	3b0b3a0e 	blcc	2cfa04 <__bss_end+0x2cc888>
    11c8:	0213490b 	andseq	r4, r3, #180224	; 0x2c000
    11cc:	0b000017 	bleq	1230 <__restore_processor_state+0x7c>
    11d0:	08030034 	stmdaeq	r3, {r2, r4, r5}
    11d4:	0b3b0b3a 	bleq	ec3ec4 <__bss_end+0xec0d48>
    11d8:	17021349 	strne	r1, [r2, -r9, asr #6]
    11dc:	0f0c0000 	svceq	0x000c0000
    11e0:	490b0b00 	stmdbmi	fp, {r8, r9, fp}
    11e4:	0d000013 	stceq	0, cr0, [r0, #-76]	; 0xffffffb4
    11e8:	193f012e 	ldmdbne	pc!, {r1, r2, r3, r5, r8}	; <UNPREDICTABLE>
    11ec:	0b3a0e03 	bleq	e84a00 <__bss_end+0xe81884>
    11f0:	19270b3b 	stmdbne	r7!, {r0, r1, r3, r4, r5, r8, r9, fp}
    11f4:	01111349 	tsteq	r1, r9, asr #6
    11f8:	18400612 	stmdane	r0, {r1, r4, r9, sl}^
    11fc:	00194297 	mulseq	r9, r7, r2
    1200:	11010000 	mrsne	r0, (UNDEF: 1)
    1204:	130e2501 	movwne	r2, #58625	; 0xe501
    1208:	1b0e030b 	blne	381e3c <__bss_end+0x37ecc0>
    120c:	1201110e 	andne	r1, r1, #-2147483645	; 0x80000003
    1210:	00171006 	andseq	r1, r7, r6
    1214:	00240200 	eoreq	r0, r4, r0, lsl #4
    1218:	0b3e0b0b 	bleq	f83e4c <__bss_end+0xf80cd0>
    121c:	00000e03 	andeq	r0, r0, r3, lsl #28
    1220:	03001603 	movweq	r1, #1539	; 0x603
    1224:	3b0b3a0e 	blcc	2cfa64 <__bss_end+0x2cc8e8>
    1228:	0013490b 	andseq	r4, r3, fp, lsl #18
    122c:	00240400 	eoreq	r0, r4, r0, lsl #8
    1230:	0b3e0b0b 	bleq	f83e64 <__bss_end+0xf80ce8>
    1234:	00000803 	andeq	r0, r0, r3, lsl #16
    1238:	49003505 	stmdbmi	r0, {r0, r2, r8, sl, ip, sp}
    123c:	06000013 			; <UNDEFINED> instruction: 0x06000013
    1240:	13490101 	movtne	r0, #37121	; 0x9101
    1244:	00001301 	andeq	r1, r0, r1, lsl #6
    1248:	49002107 	stmdbmi	r0, {r0, r1, r2, r8, sp}
    124c:	000b2f13 	andeq	r2, fp, r3, lsl pc
    1250:	01130800 	tsteq	r3, r0, lsl #16
    1254:	0b0b0e03 	bleq	2c4a68 <__bss_end+0x2c18ec>
    1258:	0b3b0b3a 	bleq	ec3f48 <__bss_end+0xec0dcc>
    125c:	00001301 	andeq	r1, r0, r1, lsl #6
    1260:	03000d09 	movweq	r0, #3337	; 0xd09
    1264:	3b0b3a0e 	blcc	2cfaa4 <__bss_end+0x2cc928>
    1268:	3813490b 	ldmdacc	r3, {r0, r1, r3, r8, fp, lr}
    126c:	0a00000b 	beq	12a0 <__restore_processor_state+0xec>
    1270:	0e030104 	adfeqs	f0, f3, f4
    1274:	13490b0b 	movtne	r0, #39691	; 0x9b0b
    1278:	0b3b0b3a 	bleq	ec3f68 <__bss_end+0xec0dec>
    127c:	00001301 	andeq	r1, r0, r1, lsl #6
    1280:	0300280b 	movweq	r2, #2059	; 0x80b
    1284:	000b1c0e 	andeq	r1, fp, lr, lsl #24
    1288:	012e0c00 			; <UNDEFINED> instruction: 0x012e0c00
    128c:	0e03193f 	mcreq	9, 0, r1, cr3, cr15, {1}
    1290:	0b3b0b3a 	bleq	ec3f80 <__bss_end+0xec0e04>
    1294:	13491927 	movtne	r1, #39207	; 0x9927
    1298:	06120111 			; <UNDEFINED> instruction: 0x06120111
    129c:	42971840 	addsmi	r1, r7, #64, 16	; 0x400000
    12a0:	00130119 	andseq	r0, r3, r9, lsl r1
    12a4:	00050d00 	andeq	r0, r5, r0, lsl #26
    12a8:	0b3a0e03 	bleq	e84abc <__bss_end+0xe81940>
    12ac:	13490b3b 	movtne	r0, #39739	; 0x9b3b
    12b0:	00001702 	andeq	r1, r0, r2, lsl #14
    12b4:	0b000f0e 	bleq	4ef4 <__bss_end+0x1d78>
    12b8:	0013490b 	andseq	r4, r3, fp, lsl #18
    12bc:	002e0f00 	eoreq	r0, lr, r0, lsl #30
    12c0:	0e03193f 	mcreq	9, 0, r1, cr3, cr15, {1}
    12c4:	0b3b0b3a 	bleq	ec3fb4 <__bss_end+0xec0e38>
    12c8:	13491927 	movtne	r1, #39207	; 0x9927
    12cc:	06120111 			; <UNDEFINED> instruction: 0x06120111
    12d0:	42971840 	addsmi	r1, r7, #64, 16	; 0x400000
    12d4:	10000019 	andne	r0, r0, r9, lsl r0
    12d8:	193f002e 	ldmdbne	pc!, {r1, r2, r3, r5}	; <UNPREDICTABLE>
    12dc:	0b3a0e03 	bleq	e84af0 <__bss_end+0xe81974>
    12e0:	19270b3b 	stmdbne	r7!, {r0, r1, r3, r4, r5, r8, r9, fp}
    12e4:	06120111 			; <UNDEFINED> instruction: 0x06120111
    12e8:	42971840 	addsmi	r1, r7, #64, 16	; 0x400000
    12ec:	11000019 	tstne	r0, r9, lsl r0
    12f0:	0e030034 	mcreq	0, 0, r0, cr3, cr4, {1}
    12f4:	0b3b0b3a 	bleq	ec3fe4 <__bss_end+0xec0e68>
    12f8:	18021349 	stmdane	r2, {r0, r3, r6, r8, r9, ip}
    12fc:	01000000 	mrseq	r0, (UNDEF: 0)
    1300:	0e250111 	mcreq	1, 1, r0, cr5, cr1, {0}
    1304:	0e030b13 	vmoveq.32	d3[0], r0
    1308:	17100e1b 			; <UNDEFINED> instruction: 0x17100e1b
    130c:	24020000 	strcs	r0, [r2], #-0
    1310:	3e0b0b00 	vmlacc.f64	d0, d11, d0
    1314:	000e030b 	andeq	r0, lr, fp, lsl #6
    1318:	00240300 	eoreq	r0, r4, r0, lsl #6
    131c:	0b3e0b0b 	bleq	f83f50 <__bss_end+0xf80dd4>
    1320:	00000803 	andeq	r0, r0, r3, lsl #16
    1324:	01110100 	tsteq	r1, r0, lsl #2
    1328:	0b130e25 	bleq	4c4bc4 <__bss_end+0x4c1a48>
    132c:	0e1b0e03 	cdpeq	14, 1, cr0, cr11, cr3, {0}
    1330:	00001710 	andeq	r1, r0, r0, lsl r7
    1334:	0b002402 	bleq	a344 <__bss_end+0x71c8>
    1338:	030b3e0b 	movweq	r3, #48651	; 0xbe0b
    133c:	0300000e 	movweq	r0, #14
    1340:	0b0b0024 	bleq	2c13d8 <__bss_end+0x2be25c>
    1344:	08030b3e 	stmdaeq	r3, {r1, r2, r3, r4, r5, r8, r9, fp}
    1348:	01000000 	mrseq	r0, (UNDEF: 0)
    134c:	0e250111 	mcreq	1, 1, r0, cr5, cr1, {0}
    1350:	0e030b13 	vmoveq.32	d3[0], r0
    1354:	01110e1b 	tsteq	r1, fp, lsl lr
    1358:	17100612 			; <UNDEFINED> instruction: 0x17100612
    135c:	24020000 	strcs	r0, [r2], #-0
    1360:	3e0b0b00 	vmlacc.f64	d0, d11, d0
    1364:	000e030b 	andeq	r0, lr, fp, lsl #6
    1368:	00160300 	andseq	r0, r6, r0, lsl #6
    136c:	0b3a0e03 	bleq	e84b80 <__bss_end+0xe81a04>
    1370:	13490b3b 	movtne	r0, #39739	; 0x9b3b
    1374:	24040000 	strcs	r0, [r4], #-0
    1378:	3e0b0b00 	vmlacc.f64	d0, d11, d0
    137c:	0008030b 	andeq	r0, r8, fp, lsl #6
    1380:	01130500 	tsteq	r3, r0, lsl #10
    1384:	0b3a0b0b 	bleq	e83fb8 <__bss_end+0xe80e3c>
    1388:	13010b3b 	movwne	r0, #6971	; 0x1b3b
    138c:	0d060000 	stceq	0, cr0, [r6, #-0]
    1390:	3a0e0300 	bcc	381f98 <__bss_end+0x37ee1c>
    1394:	490b3b0b 	stmdbmi	fp, {r0, r1, r3, r8, r9, fp, ip, sp}
    1398:	0d0b0b13 	vstreq	d0, [fp, #-76]	; 0xffffffb4
    139c:	380b0c0b 	stmdacc	fp, {r0, r1, r3, sl, fp}
    13a0:	0700000b 	streq	r0, [r0, -fp]
    13a4:	0b0b0117 	bleq	2c1808 <__bss_end+0x2be68c>
    13a8:	0b3b0b3a 	bleq	ec4098 <__bss_end+0xec0f1c>
    13ac:	00001301 	andeq	r1, r0, r1, lsl #6
    13b0:	03000d08 	movweq	r0, #3336	; 0xd08
    13b4:	3b0b3a0e 	blcc	2cfbf4 <__bss_end+0x2cca78>
    13b8:	0013490b 	andseq	r4, r3, fp, lsl #18
    13bc:	01130900 	tsteq	r3, r0, lsl #18
    13c0:	0b0b0e03 	bleq	2c4bd4 <__bss_end+0x2c1a58>
    13c4:	0b3b0b3a 	bleq	ec40b4 <__bss_end+0xec0f38>
    13c8:	00001301 	andeq	r1, r0, r1, lsl #6
    13cc:	0301130a 	movweq	r1, #4874	; 0x130a
    13d0:	3a050b0e 	bcc	144010 <__bss_end+0x140e94>
    13d4:	010b3b0b 	tsteq	fp, fp, lsl #22
    13d8:	0b000013 	bleq	142c <__restore_processor_state+0x278>
    13dc:	0e03000d 	cdpeq	0, 0, cr0, cr3, cr13, {0}
    13e0:	0b3b0b3a 	bleq	ec40d0 <__bss_end+0xec0f54>
    13e4:	0b381349 	bleq	e06110 <__bss_end+0xe02f94>
    13e8:	0d0c0000 	stceq	0, cr0, [ip, #-0]
    13ec:	3a080300 	bcc	201ff4 <__bss_end+0x1fee78>
    13f0:	490b3b0b 	stmdbmi	fp, {r0, r1, r3, r8, r9, fp, ip, sp}
    13f4:	000b3813 	andeq	r3, fp, r3, lsl r8
    13f8:	000d0d00 	andeq	r0, sp, r0, lsl #26
    13fc:	0b3a0e03 	bleq	e84c10 <__bss_end+0xe81a94>
    1400:	1349053b 	movtne	r0, #38203	; 0x953b
    1404:	00000b38 	andeq	r0, r0, r8, lsr fp
    1408:	03000d0e 	movweq	r0, #3342	; 0xd0e
    140c:	3b0b3a08 	blcc	2cfc34 <__bss_end+0x2ccab8>
    1410:	38134905 	ldmdacc	r3, {r0, r2, r8, fp, lr}
    1414:	0f00000b 	svceq	0x0000000b
    1418:	0e03000d 	cdpeq	0, 0, cr0, cr3, cr13, {0}
    141c:	053b0b3a 	ldreq	r0, [fp, #-2874]!	; 0xfffff4c6
    1420:	05381349 	ldreq	r1, [r8, #-841]!	; 0xfffffcb7
    1424:	0d100000 	ldceq	0, cr0, [r0, #-0]
    1428:	3a080300 	bcc	202030 <__bss_end+0x1feeb4>
    142c:	49053b0b 	stmdbmi	r5, {r0, r1, r3, r8, r9, fp, ip, sp}
    1430:	00053813 	andeq	r3, r5, r3, lsl r8
    1434:	00351100 	eorseq	r1, r5, r0, lsl #2
    1438:	00001349 	andeq	r1, r0, r9, asr #6
    143c:	49010112 	stmdbmi	r1, {r1, r4, r8}
    1440:	00130113 	andseq	r0, r3, r3, lsl r1
    1444:	00211300 	eoreq	r1, r1, r0, lsl #6
    1448:	0b2f1349 	bleq	bc6174 <__bss_end+0xbc2ff8>
    144c:	16140000 	ldrne	r0, [r4], -r0
    1450:	3a0e0300 	bcc	382058 <__bss_end+0x37eedc>
    1454:	49053b0b 	stmdbmi	r5, {r0, r1, r3, r8, r9, fp, ip, sp}
    1458:	15000013 	strne	r0, [r0, #-19]	; 0xffffffed
    145c:	0b0b000f 	bleq	2c14a0 <__bss_end+0x2be324>
    1460:	00001349 	andeq	r1, r0, r9, asr #6
    1464:	03010416 	movweq	r0, #5142	; 0x1416
    1468:	490b0b0e 	stmdbmi	fp, {r1, r2, r3, r8, r9, fp}
    146c:	3b0b3a13 	blcc	2cfcc0 <__bss_end+0x2ccb44>
    1470:	0013010b 	andseq	r0, r3, fp, lsl #2
    1474:	00281700 	eoreq	r1, r8, r0, lsl #14
    1478:	0b1c0e03 	bleq	704c8c <__bss_end+0x701b10>
    147c:	2e180000 	cdpcs	0, 1, cr0, cr8, cr0, {0}
    1480:	03193f01 	tsteq	r9, #1, 30
    1484:	3b0b3a0e 	blcc	2cfcc4 <__bss_end+0x2ccb48>
    1488:	4919270b 	ldmdbmi	r9, {r0, r1, r3, r8, r9, sl, sp}
    148c:	12011113 	andne	r1, r1, #-1073741820	; 0xc0000004
    1490:	97184006 	ldrls	r4, [r8, -r6]
    1494:	13011942 	movwne	r1, #6466	; 0x1942
    1498:	05190000 	ldreq	r0, [r9, #-0]
    149c:	3a0e0300 	bcc	3820a4 <__bss_end+0x37ef28>
    14a0:	490b3b0b 	stmdbmi	fp, {r0, r1, r3, r8, r9, fp, ip, sp}
    14a4:	00170213 	andseq	r0, r7, r3, lsl r2
    14a8:	002e1a00 	eoreq	r1, lr, r0, lsl #20
    14ac:	0e03193f 	mcreq	9, 0, r1, cr3, cr15, {1}
    14b0:	0b3b0b3a 	bleq	ec41a0 <__bss_end+0xec1024>
    14b4:	13491927 	movtne	r1, #39207	; 0x9927
    14b8:	06120111 			; <UNDEFINED> instruction: 0x06120111
    14bc:	42971840 	addsmi	r1, r7, #64, 16	; 0x400000
    14c0:	1b000019 	blne	152c <restore_processor_state>
    14c4:	01018289 	smlabbeq	r1, r9, r2, r8
    14c8:	13310111 	teqne	r1, #1073741828	; 0x40000004
    14cc:	00001301 	andeq	r1, r0, r1, lsl #6
    14d0:	01828a1c 	orreq	r8, r2, ip, lsl sl
    14d4:	91180200 	tstls	r8, r0, lsl #4
    14d8:	00001842 	andeq	r1, r0, r2, asr #16
    14dc:	0182891d 	orreq	r8, r2, sp, lsl r9
    14e0:	31011101 	tstcc	r1, r1, lsl #2
    14e4:	1e000013 	mcrne	0, 0, r0, cr0, cr3, {0}
    14e8:	193f012e 	ldmdbne	pc!, {r1, r2, r3, r5, r8}	; <UNPREDICTABLE>
    14ec:	0b3a0e03 	bleq	e84d00 <__bss_end+0xe81b84>
    14f0:	1927053b 	stmdbne	r7!, {r0, r1, r3, r4, r5, r8, sl}
    14f4:	01111349 	tsteq	r1, r9, asr #6
    14f8:	18400612 	stmdane	r0, {r1, r4, r9, sl}^
    14fc:	01194297 			; <UNDEFINED> instruction: 0x01194297
    1500:	1f000013 	svcne	0x00000013
    1504:	0e030005 	cdpeq	0, 0, cr0, cr3, cr5, {0}
    1508:	053b0b3a 	ldreq	r0, [fp, #-2874]!	; 0xfffff4c6
    150c:	17021349 	strne	r1, [r2, -r9, asr #6]
    1510:	34200000 	strtcc	r0, [r0], #-0
    1514:	3a0e0300 	bcc	38211c <__bss_end+0x37efa0>
    1518:	49053b0b 	stmdbmi	r5, {r0, r1, r3, r8, r9, fp, ip, sp}
    151c:	00170213 	andseq	r0, r7, r3, lsl r2
    1520:	82892100 	addhi	r2, r9, #0, 2
    1524:	01110001 	tsteq	r1, r1
    1528:	31194295 			; <UNDEFINED> instruction: 0x31194295
    152c:	22000013 	andcs	r0, r0, #19
    1530:	0e030034 	mcreq	0, 0, r0, cr3, cr4, {1}
    1534:	0b3b0b3a 	bleq	ec4224 <__bss_end+0xec10a8>
    1538:	18021349 	stmdane	r2, {r0, r3, r6, r8, r9, ip}
    153c:	2e230000 	cdpcs	0, 2, cr0, cr3, cr0, {0}
    1540:	3c193f00 	ldccc	15, cr3, [r9], {-0}
    1544:	030e6e19 	movweq	r6, #60953	; 0xee19
    1548:	3b0b3a0e 	blcc	2cfd88 <__bss_end+0x2ccc0c>
    154c:	0000000b 	andeq	r0, r0, fp

Disassembly of section .debug_aranges:

00000000 <.debug_aranges>:
   0:	00000014 	andeq	r0, r0, r4, lsl r0
   4:	00000002 	andeq	r0, r0, r2
   8:	00040000 	andeq	r0, r4, r0
	...
  18:	0000001c 	andeq	r0, r0, ip, lsl r0
  1c:	01c00002 	biceq	r0, r0, r2
  20:	00040000 	andeq	r0, r4, r0
  24:	00000000 	andeq	r0, r0, r0
  28:	00000030 	andeq	r0, r0, r0, lsr r0
  2c:	000000b0 	strheq	r0, [r0], -r0	; <UNPREDICTABLE>
	...
  38:	0000001c 	andeq	r0, r0, ip, lsl r0
  3c:	024b0002 	subeq	r0, fp, #2
  40:	00040000 	andeq	r0, r4, r0
  44:	00000000 	andeq	r0, r0, r0
  48:	000000e0 	andeq	r0, r0, r0, ror #1
  4c:	0000002c 	andeq	r0, r0, ip, lsr #32
	...
  58:	00000014 	andeq	r0, r0, r4, lsl r0
  5c:	03210002 			; <UNDEFINED> instruction: 0x03210002
  60:	00040000 	andeq	r0, r4, r0
	...
  70:	0000001c 	andeq	r0, r0, ip, lsl r0
  74:	038c0002 	orreq	r0, ip, #2
  78:	00040000 	andeq	r0, r4, r0
  7c:	00000000 	andeq	r0, r0, r0
  80:	0000010c 	andeq	r0, r0, ip, lsl #2
  84:	00000028 	andeq	r0, r0, r8, lsr #32
	...
  90:	00000014 	andeq	r0, r0, r4, lsl r0
  94:	04140002 	ldreq	r0, [r4], #-2
  98:	00040000 	andeq	r0, r4, r0
	...
  a8:	00000014 	andeq	r0, r0, r4, lsl r0
  ac:	047f0002 	ldrbteq	r0, [pc], #-2	; b4 <config_end+0x8>
  b0:	00040000 	andeq	r0, r4, r0
	...
  c0:	00000014 	andeq	r0, r0, r4, lsl r0
  c4:	04ea0002 	strbteq	r0, [sl], #2
  c8:	00040000 	andeq	r0, r4, r0
	...
  d8:	0000001c 	andeq	r0, r0, ip, lsl r0
  dc:	05550002 	ldrbeq	r0, [r5, #-2]
  e0:	00040000 	andeq	r0, r4, r0
  e4:	00000000 	andeq	r0, r0, r0
  e8:	00000134 	andeq	r0, r0, r4, lsr r1
  ec:	000002b8 			; <UNDEFINED> instruction: 0x000002b8
	...
  f8:	0000001c 	andeq	r0, r0, ip, lsl r0
  fc:	1d0a0002 	stcne	0, cr0, [sl, #-8]
 100:	00040000 	andeq	r0, r4, r0
 104:	00000000 	andeq	r0, r0, r0
 108:	000003ec 	andeq	r0, r0, ip, ror #7
 10c:	00000178 	andeq	r0, r0, r8, ror r1
	...
 118:	0000001c 	andeq	r0, r0, ip, lsl r0
 11c:	20020002 	andcs	r0, r2, r2
 120:	00040000 	andeq	r0, r4, r0
 124:	00000000 	andeq	r0, r0, r0
 128:	00000564 	andeq	r0, r0, r4, ror #10
 12c:	00000200 	andeq	r0, r0, r0, lsl #4
	...
 138:	0000001c 	andeq	r0, r0, ip, lsl r0
 13c:	25230002 	strcs	r0, [r3, #-2]!
 140:	00040000 	andeq	r0, r4, r0
 144:	00000000 	andeq	r0, r0, r0
 148:	00000780 	andeq	r0, r0, r0, lsl #15
 14c:	000000e0 	andeq	r0, r0, r0, ror #1
	...
 158:	0000001c 	andeq	r0, r0, ip, lsl r0
 15c:	26840002 	strcs	r0, [r4], r2
 160:	00040000 	andeq	r0, r4, r0
 164:	00000000 	andeq	r0, r0, r0
 168:	00000860 	andeq	r0, r0, r0, ror #16
 16c:	00000550 	andeq	r0, r0, r0, asr r5
	...
 178:	0000001c 	andeq	r0, r0, ip, lsl r0
 17c:	270c0002 	strcs	r0, [ip, -r2]
 180:	00040000 	andeq	r0, r4, r0
 184:	00000000 	andeq	r0, r0, r0
 188:	00000db0 			; <UNDEFINED> instruction: 0x00000db0
 18c:	000007ac 	andeq	r0, r0, ip, lsr #15
	...
 198:	0000001c 	andeq	r0, r0, ip, lsl r0
 19c:	2d220002 	stccs	0, cr0, [r2, #-8]!
 1a0:	00040000 	andeq	r0, r4, r0
 1a4:	00000000 	andeq	r0, r0, r0
 1a8:	0000155c 	andeq	r1, r0, ip, asr r5
 1ac:	000004c8 	andeq	r0, r0, r8, asr #9
	...
 1b8:	0000001c 	andeq	r0, r0, ip, lsl r0
 1bc:	43320002 	teqmi	r2, #2
 1c0:	00040000 	andeq	r0, r4, r0
 1c4:	00000000 	andeq	r0, r0, r0
 1c8:	00001a24 	andeq	r1, r0, r4, lsr #20
 1cc:	00000850 	andeq	r0, r0, r0, asr r8
	...
 1d8:	0000001c 	andeq	r0, r0, ip, lsl r0
 1dc:	4cd00002 	ldclmi	0, cr0, [r0], {2}
 1e0:	00040000 	andeq	r0, r4, r0
 1e4:	00000000 	andeq	r0, r0, r0
 1e8:	00002274 	andeq	r2, r0, r4, ror r2
 1ec:	000001dc 	ldrdeq	r0, [r0], -ip
	...
 1f8:	0000001c 	andeq	r0, r0, ip, lsl r0
 1fc:	4d540002 	ldclmi	0, cr0, [r4, #-8]
 200:	00040000 	andeq	r0, r4, r0
 204:	00000000 	andeq	r0, r0, r0
 208:	00002450 	andeq	r2, r0, r0, asr r4
 20c:	00000060 	andeq	r0, r0, r0, rrx
	...
 218:	0000001c 	andeq	r0, r0, ip, lsl r0
 21c:	4e760002 	cdpmi	0, 7, cr0, cr6, cr2, {0}
 220:	00040000 	andeq	r0, r4, r0
 224:	00000000 	andeq	r0, r0, r0
 228:	000024b0 			; <UNDEFINED> instruction: 0x000024b0
 22c:	00000180 	andeq	r0, r0, r0, lsl #3
	...
 238:	0000001c 	andeq	r0, r0, ip, lsl r0
 23c:	51750002 	cmnpl	r5, r2
 240:	00040000 	andeq	r0, r4, r0
 244:	00000000 	andeq	r0, r0, r0
 248:	00002630 	andeq	r2, r0, r0, lsr r6
 24c:	00000058 	andeq	r0, r0, r8, asr r0
	...
 258:	0000001c 	andeq	r0, r0, ip, lsl r0
 25c:	52960002 	addspl	r0, r6, #2
 260:	00040000 	andeq	r0, r4, r0
 264:	00000000 	andeq	r0, r0, r0
 268:	00002688 	andeq	r2, r0, r8, lsl #13
 26c:	000001e0 	andeq	r0, r0, r0, ror #3
	...
 278:	00000014 	andeq	r0, r0, r4, lsl r0
 27c:	56e10002 	strbtpl	r0, [r1], r2
 280:	00040000 	andeq	r0, r4, r0
	...
 290:	00000014 	andeq	r0, r0, r4, lsl r0
 294:	574c0002 	strbpl	r0, [ip, -r2]
 298:	00040000 	andeq	r0, r4, r0
	...
 2a8:	0000001c 	andeq	r0, r0, ip, lsl r0
 2ac:	57b70002 	ldrpl	r0, [r7, r2]!
 2b0:	00040000 	andeq	r0, r4, r0
 2b4:	00000000 	andeq	r0, r0, r0
 2b8:	00002868 	andeq	r2, r0, r8, ror #16
 2bc:	000003a4 	andeq	r0, r0, r4, lsr #7
	...

Disassembly of section .debug_line:

00000000 <.debug_line>:
       0:	000000b8 	strheq	r0, [r0], -r8
       4:	00b20002 	adcseq	r0, r2, r2
       8:	01020000 	mrseq	r0, (UNDEF: 2)
       c:	000d0efb 	strdeq	r0, [sp], -fp
      10:	01010101 	tsteq	r1, r1, lsl #2
      14:	01000000 	mrseq	r0, (UNDEF: 0)
      18:	61010000 	mrsvs	r0, (UNDEF: 1)
      1c:	2f686372 	svccs	0x00686372
      20:	2f6d7261 	svccs	0x006d7261
      24:	6863616d 	stmdavs	r3!, {r0, r2, r3, r5, r6, r8, sp, lr}^
      28:	6e75732d 	cdpvs	3, 7, cr7, cr5, cr13, {1}
      2c:	702f6978 	eorvc	r6, pc, r8, ror r9	; <UNPREDICTABLE>
      30:	74732f6d 	ldrbtvc	r2, [r3], #-3949	; 0xfffff093
      34:	62646e61 	rsbvs	r6, r4, #1552	; 0x610
      38:	75732f79 	ldrbvc	r2, [r3, #-3961]!	; 0xfffff087
      3c:	2f726570 	svccs	0x00726570
      40:	75736572 	ldrbvc	r6, [r3, #-1394]!	; 0xfffffa8e
      44:	2e2f656d 	cfsh64cs	mvdx6, mvdx15, #61
      48:	002e2e2f 	eoreq	r2, lr, pc, lsr #28
      4c:	6c636e69 	stclvs	14, cr6, [r3], #-420	; 0xfffffe5c
      50:	2f656475 	svccs	0x00656475
      54:	756e696c 	strbvc	r6, [lr, #-2412]!	; 0xfffff694
      58:	6f702f78 	svcvs	0x00702f78
      5c:	00726577 	rsbseq	r6, r2, r7, ror r5
      60:	68637261 	stmdavs	r3!, {r0, r5, r6, r9, ip, sp, lr}^
      64:	6d72612f 	ldfvse	f6, [r2, #-188]!	; 0xffffff44
      68:	63616d2f 	cmnvs	r1, #3008	; 0xbc0
      6c:	75732d68 	ldrbvc	r2, [r3, #-3432]!	; 0xfffff298
      70:	2f69786e 	svccs	0x0069786e
      74:	732f6d70 			; <UNDEFINED> instruction: 0x732f6d70
      78:	646e6174 	strbtvs	r6, [lr], #-372	; 0xfffffe8c
      7c:	732f7962 			; <UNDEFINED> instruction: 0x732f7962
      80:	72657075 	rsbvc	r7, r5, #117	; 0x75
      84:	7365722f 	cmnvc	r5, #-268435454	; 0xf0000002
      88:	00656d75 	rsbeq	r6, r5, r5, ror sp
      8c:	70757300 	rsbsvc	r7, r5, r0, lsl #6
      90:	695f7265 	ldmdbvs	pc, {r0, r2, r5, r6, r9, ip, sp, lr}^	; <UNPREDICTABLE>
      94:	0100682e 	tsteq	r0, lr, lsr #16
      98:	78610000 	stmdavc	r1!, {}^	; <UNPREDICTABLE>
      9c:	65645f70 	strbvs	r5, [r4, #-3952]!	; 0xfffff090
      a0:	646e6570 	strbtvs	r6, [lr], #-1392	; 0xfffffa90
      a4:	0200682e 	andeq	r6, r0, #3014656	; 0x2e0000
      a8:	65720000 	ldrbvs	r0, [r2, #-0]!
      ac:	656d7573 	strbvs	r7, [sp, #-1395]!	; 0xfffffa8d
      b0:	6165685f 	cmnvs	r5, pc, asr r8
      b4:	00632e64 	rsbeq	r2, r3, r4, ror #28
      b8:	00000003 	andeq	r0, r0, r3
      bc:	00000091 	muleq	r0, r1, r0
      c0:	004c0002 	subeq	r0, ip, r2
      c4:	01020000 	mrseq	r0, (UNDEF: 2)
      c8:	000d0efb 	strdeq	r0, [sp], -fp
      cc:	01010101 	tsteq	r1, r1, lsl #2
      d0:	01000000 	mrseq	r0, (UNDEF: 0)
      d4:	61010000 	mrsvs	r0, (UNDEF: 1)
      d8:	2f686372 	svccs	0x00686372
      dc:	2f6d7261 	svccs	0x006d7261
      e0:	6863616d 	stmdavs	r3!, {r0, r2, r3, r5, r6, r8, sp, lr}^
      e4:	6e75732d 	cdpvs	3, 7, cr7, cr5, cr13, {1}
      e8:	702f6978 	eorvc	r6, pc, r8, ror r9	; <UNPREDICTABLE>
      ec:	74732f6d 	ldrbtvc	r2, [r3], #-3949	; 0xfffff093
      f0:	62646e61 	rsbvs	r6, r4, #1552	; 0x610
      f4:	75732f79 	ldrbvc	r2, [r3, #-3961]!	; 0xfffff087
      f8:	2f726570 	svccs	0x00726570
      fc:	75736572 	ldrbvc	r6, [r3, #-1394]!	; 0xfffffa8e
     100:	0000656d 	andeq	r6, r0, sp, ror #10
     104:	75736572 	ldrbvc	r6, [r3, #-1394]!	; 0xfffffa8e
     108:	2e31656d 	cdpcs	5, 3, cr6, cr1, cr13, {3}
     10c:	00010053 	andeq	r0, r1, r3, asr r0
     110:	05000000 	streq	r0, [r0, #-0]
     114:	00003002 	andeq	r3, r0, r2
     118:	00c30300 	sbceq	r0, r3, r0, lsl #6
     11c:	2f2f2f01 	svccs	0x002f2f01
     120:	2f332f2f 	svccs	0x00332f2f
     124:	302f2f2f 	eorcc	r2, pc, pc, lsr #30
     128:	2e21032f 	cdpcs	3, 2, cr0, cr1, cr15, {1}
     12c:	302f302f 	eorcc	r3, pc, pc, lsr #32
     130:	2f2f2f2f 	svccs	0x002f2f2f
     134:	2f2f2f32 	svccs	0x002f2f32
     138:	2f2f322f 	svccs	0x002f322f
     13c:	302f342f 	eorcc	r3, pc, pc, lsr #8
     140:	2f2f2f2f 	svccs	0x002f2f2f
     144:	03302f31 	teqeq	r0, #49, 30	; 0xc4
     148:	34362e54 	ldrtcc	r2, [r6], #-3668	; 0xfffff1ac
     14c:	01000202 	tsteq	r0, r2, lsl #4
     150:	00006f01 	andeq	r6, r0, r1, lsl #30
     154:	44000200 	strmi	r0, [r0], #-512	; 0xfffffe00
     158:	02000000 	andeq	r0, r0, #0
     15c:	0d0efb01 	vstreq	d15, [lr, #-4]
     160:	01010100 	mrseq	r0, (UNDEF: 17)
     164:	00000001 	andeq	r0, r0, r1
     168:	01000001 	tsteq	r0, r1
     16c:	68637261 	stmdavs	r3!, {r0, r5, r6, r9, ip, sp, lr}^
     170:	6d72612f 	ldfvse	f6, [r2, #-188]!	; 0xffffff44
     174:	63616d2f 	cmnvs	r1, #3008	; 0xbc0
     178:	75732d68 	ldrbvc	r2, [r3, #-3432]!	; 0xfffff298
     17c:	2f69786e 	svccs	0x0069786e
     180:	732f6d70 			; <UNDEFINED> instruction: 0x732f6d70
     184:	646e6174 	strbtvs	r6, [lr], #-372	; 0xfffffe8c
     188:	732f7962 			; <UNDEFINED> instruction: 0x732f7962
     18c:	72657075 	rsbvc	r7, r5, #117	; 0x75
     190:	6f630000 	svcvs	0x00630000
     194:	6e6f6d6d 	cdpvs	13, 6, cr6, cr15, cr13, {3}
     198:	0100632e 	tsteq	r0, lr, lsr #6
     19c:	00000000 	andeq	r0, r0, r0
     1a0:	00e00205 	rsceq	r0, r0, r5, lsl #4
     1a4:	23030000 	movwcs	r0, #12288	; 0x3000
     1a8:	004c1501 	subeq	r1, ip, r1, lsl #10
     1ac:	83020402 	movwhi	r0, #9218	; 0x2402
     1b0:	02040200 	andeq	r0, r4, #0, 4
     1b4:	0402002d 	streq	r0, [r2], #-45	; 0xffffffd3
     1b8:	02002f02 	andeq	r2, r0, #2, 30
     1bc:	022d0204 	eoreq	r0, sp, #4, 4	; 0x40000000
     1c0:	01010004 	tsteq	r1, r4
     1c4:	00000019 	andeq	r0, r0, r9, lsl r0
     1c8:	00130002 	andseq	r0, r3, r2
     1cc:	01020000 	mrseq	r0, (UNDEF: 2)
     1d0:	000d0efb 	strdeq	r0, [sp], -fp
     1d4:	01010101 	tsteq	r1, r1, lsl #2
     1d8:	01000000 	mrseq	r0, (UNDEF: 0)
     1dc:	00010000 	andeq	r0, r1, r0
     1e0:	00006700 	andeq	r6, r0, r0, lsl #14
     1e4:	49000200 	stmdbmi	r0, {r9}
     1e8:	02000000 	andeq	r0, r0, #0
     1ec:	0d0efb01 	vstreq	d15, [lr, #-4]
     1f0:	01010100 	mrseq	r0, (UNDEF: 17)
     1f4:	00000001 	andeq	r0, r0, r1
     1f8:	01000001 	tsteq	r0, r1
     1fc:	68637261 	stmdavs	r3!, {r0, r5, r6, r9, ip, sp, lr}^
     200:	6d72612f 	ldfvse	f6, [r2, #-188]!	; 0xffffff44
     204:	63616d2f 	cmnvs	r1, #3008	; 0xbc0
     208:	75732d68 	ldrbvc	r2, [r3, #-3432]!	; 0xfffff298
     20c:	2f69786e 	svccs	0x0069786e
     210:	732f6d70 			; <UNDEFINED> instruction: 0x732f6d70
     214:	646e6174 	strbtvs	r6, [lr], #-372	; 0xfffffe8c
     218:	732f7962 			; <UNDEFINED> instruction: 0x732f7962
     21c:	72657075 	rsbvc	r7, r5, #117	; 0x75
     220:	75730000 	ldrbvc	r0, [r3, #-0]!
     224:	5f726570 	svcpl	0x00726570
     228:	616c6564 	cmnvs	ip, r4, ror #10
     22c:	00532e79 	subseq	r2, r3, r9, ror lr
     230:	00000001 	andeq	r0, r0, r1
     234:	0c020500 	cfstr32eq	mvfx0, [r2], {-0}
     238:	03000001 	movweq	r0, #1
     23c:	2f2f010d 	svccs	0x002f010d
     240:	2f2f2f30 	svccs	0x002f2f30
     244:	022f302f 	eoreq	r3, pc, #47	; 0x2f
     248:	01010002 	tsteq	r1, r2
     24c:	00000019 	andeq	r0, r0, r9, lsl r0
     250:	00130002 	andseq	r0, r3, r2
     254:	01020000 	mrseq	r0, (UNDEF: 2)
     258:	000d0efb 	strdeq	r0, [sp], -fp
     25c:	01010101 	tsteq	r1, r1, lsl #2
     260:	01000000 	mrseq	r0, (UNDEF: 0)
     264:	00010000 	andeq	r0, r1, r0
     268:	00001900 	andeq	r1, r0, r0, lsl #18
     26c:	13000200 	movwne	r0, #512	; 0x200
     270:	02000000 	andeq	r0, r0, #0
     274:	0d0efb01 	vstreq	d15, [lr, #-4]
     278:	01010100 	mrseq	r0, (UNDEF: 17)
     27c:	00000001 	andeq	r0, r0, r1
     280:	01000001 	tsteq	r0, r1
     284:	00190000 	andseq	r0, r9, r0
     288:	00020000 	andeq	r0, r2, r0
     28c:	00000013 	andeq	r0, r0, r3, lsl r0
     290:	0efb0102 	cdpeq	1, 15, cr0, cr11, cr2, {0}
     294:	0101000d 	tsteq	r1, sp
     298:	00000101 	andeq	r0, r0, r1, lsl #2
     29c:	00000100 	andeq	r0, r0, r0, lsl #2
     2a0:	13000001 	movwne	r0, #1
     2a4:	02000002 	andeq	r0, r0, #2
     2a8:	00017100 	andeq	r7, r1, r0, lsl #2
     2ac:	fb010200 	blx	40ab6 <__bss_end+0x3d93a>
     2b0:	01000d0e 	tsteq	r0, lr, lsl #26
     2b4:	00010101 	andeq	r0, r1, r1, lsl #2
     2b8:	00010000 	andeq	r0, r1, r0
     2bc:	72610100 	rsbvc	r0, r1, #0, 2
     2c0:	612f6863 			; <UNDEFINED> instruction: 0x612f6863
     2c4:	6d2f6d72 	stcvs	13, cr6, [pc, #-456]!	; 104 <mem_memcpy+0x24>
     2c8:	2d686361 	stclcs	3, cr6, [r8, #-388]!	; 0xfffffe7c
     2cc:	786e7573 	stmdavc	lr!, {r0, r1, r4, r5, r6, r8, sl, ip, sp, lr}^
     2d0:	6d702f69 	ldclvs	15, cr2, [r0, #-420]!	; 0xfffffe5c
     2d4:	6174732f 	cmnvs	r4, pc, lsr #6
     2d8:	7962646e 	stmdbvc	r2!, {r1, r2, r3, r5, r6, sl, sp, lr}^
     2dc:	7075732f 	rsbsvc	r7, r5, pc, lsr #6
     2e0:	722f7265 	eorvc	r7, pc, #1342177286	; 0x50000006
     2e4:	6d757365 	ldclvs	3, cr7, [r5, #-404]!	; 0xfffffe6c
     2e8:	72610065 	rsbvc	r0, r1, #101	; 0x65
     2ec:	612f6863 			; <UNDEFINED> instruction: 0x612f6863
     2f0:	6d2f6d72 	stcvs	13, cr6, [pc, #-456]!	; 130 <loop2+0x18>
     2f4:	2d686361 	stclcs	3, cr6, [r8, #-388]!	; 0xfffffe7c
     2f8:	786e7573 	stmdavc	lr!, {r0, r1, r4, r5, r6, r8, sl, ip, sp, lr}^
     2fc:	6d702f69 	ldclvs	15, cr2, [r0, #-420]!	; 0xfffffe5c
     300:	6174732f 	cmnvs	r4, pc, lsr #6
     304:	7962646e 	stmdbvc	r2!, {r1, r2, r3, r5, r6, sl, sp, lr}^
     308:	7075732f 	rsbsvc	r7, r5, pc, lsr #6
     30c:	722f7265 	eorvc	r7, pc, #1342177286	; 0x50000006
     310:	6d757365 	ldclvs	3, cr7, [r5, #-404]!	; 0xfffffe6c
     314:	2f2e2f65 	svccs	0x002e2f65
     318:	2e2f2e2e 	cdpcs	14, 2, cr2, cr15, cr14, {1}
     31c:	2e2e2f2e 	cdpcs	15, 2, cr2, cr14, cr14, {1}
     320:	63726100 	cmnvs	r2, #0, 2
     324:	72612f68 	rsbvc	r2, r1, #104, 30	; 0x1a0
     328:	616d2f6d 	cmnvs	sp, sp, ror #30
     32c:	732d6863 			; <UNDEFINED> instruction: 0x732d6863
     330:	69786e75 	ldmdbvs	r8!, {r0, r2, r4, r5, r6, r9, sl, fp, sp, lr}^
     334:	2f6d702f 	svccs	0x006d702f
     338:	6e617473 	mcrvs	4, 3, r7, cr1, cr3, {3}
     33c:	2f796264 	svccs	0x00796264
     340:	65707573 	ldrbvs	r7, [r0, #-1395]!	; 0xfffffa8d
     344:	65722f72 	ldrbvs	r2, [r2, #-3954]!	; 0xfffff08e
     348:	656d7573 	strbvs	r7, [sp, #-1395]!	; 0xfffffa8d
     34c:	2e2f2e2f 	cdpcs	14, 2, cr2, cr15, cr15, {1}
     350:	6e69002e 	cdpvs	0, 6, cr0, cr9, cr14, {1}
     354:	64756c63 	ldrbtvs	r6, [r5], #-3171	; 0xfffff39d
     358:	696c2f65 	stmdbvs	ip!, {r0, r2, r5, r6, r8, r9, sl, fp, sp}^
     35c:	2f78756e 	svccs	0x0078756e
     360:	65776f70 	ldrbvs	r6, [r7, #-3952]!	; 0xfffff090
     364:	72000072 	andvc	r0, r0, #114	; 0x72
     368:	6d757365 	ldclvs	3, cr7, [r5, #-404]!	; 0xfffffe6c
     36c:	635f3165 	cmpvs	pc, #1073741849	; 0x40000019
     370:	7261705f 	rsbvc	r7, r1, #95	; 0x5f
     374:	00632e74 	rsbeq	r2, r3, r4, ror lr
     378:	70000001 	andvc	r0, r0, r1
     37c:	79745f6d 	ldmdbvc	r4!, {r0, r2, r3, r5, r6, r8, r9, sl, fp, ip, lr}^
     380:	2e736570 	mrccs	5, 3, r6, cr3, cr0, {3}
     384:	00020068 	andeq	r0, r2, r8, rrx
     388:	6d656d00 	stclvs	13, cr6, [r5, #-0]
     38c:	6d63635f 	stclvs	3, cr6, [r3, #-380]!	; 0xfffffe84
     390:	75732d75 	ldrbvc	r2, [r3, #-3445]!	; 0xfffff28b
     394:	7769386e 	strbvc	r3, [r9, -lr, ror #16]!
     398:	2e317035 	mrccs	0, 1, r7, cr1, cr5, {1}
     39c:	00020068 	andeq	r0, r2, r8, rrx
     3a0:	6d656d00 	stclvs	13, cr6, [r5, #-0]
     3a4:	6b6c635f 	blvs	1b19128 <__bss_end+0x1b15fac>
     3a8:	0200682e 	andeq	r6, r0, #3014656	; 0x2e0000
     3ac:	6d700000 	ldclvs	0, cr0, [r0, #-0]
     3b0:	0200682e 	andeq	r6, r0, #3014656	; 0x2e0000
     3b4:	6d700000 	ldclvs	0, cr0, [r0, #-0]
     3b8:	6265645f 	rsbvs	r6, r5, #1593835520	; 0x5f000000
     3bc:	682e6775 	stmdavs	lr!, {r0, r2, r4, r5, r6, r8, r9, sl, sp, lr}
     3c0:	00000200 	andeq	r0, r0, r0, lsl #4
     3c4:	5f6d656d 	svcpl	0x006d656d
     3c8:	2e757063 	cdpcs	0, 7, cr7, cr5, cr3, {3}
     3cc:	00020068 	andeq	r0, r2, r8, rrx
     3d0:	6d656d00 	stclvs	13, cr6, [r5, #-0]
     3d4:	6d69745f 	cfstrdvs	mvd7, [r9, #-380]!	; 0xfffffe84
     3d8:	2e676e69 	cdpcs	14, 6, cr6, cr7, cr9, {3}
     3dc:	00020068 	andeq	r0, r2, r8, rrx
     3e0:	6d656d00 	stclvs	13, cr6, [r5, #-0]
     3e4:	7265735f 	rsbvc	r7, r5, #2080374785	; 0x7c000001
     3e8:	2e6c6169 	powcsez	f6, f4, #1.0
     3ec:	00020068 	andeq	r0, r2, r8, rrx
     3f0:	6d656d00 	stclvs	13, cr6, [r5, #-0]
     3f4:	6972705f 	ldmdbvs	r2!, {r0, r1, r2, r3, r4, r6, ip, sp, lr}^
     3f8:	2e6b746e 	cdpcs	4, 6, cr7, cr11, cr14, {3}
     3fc:	00020068 	andeq	r0, r2, r8, rrx
     400:	6d6f6300 	stclvs	3, cr6, [pc, #-0]	; 408 <busy_waiting+0x1c>
     404:	2e6e6f6d 	cdpcs	15, 6, cr6, cr14, cr13, {3}
     408:	00030068 	andeq	r0, r3, r8, rrx
     40c:	70786100 	rsbsvc	r6, r8, r0, lsl #2
     410:	7065645f 	rsbvc	r6, r5, pc, asr r4
     414:	2e646e65 	cdpcs	14, 6, cr6, cr4, cr5, {3}
     418:	00040068 	andeq	r0, r4, r8, rrx
     41c:	05000000 	streq	r0, [r0, #-0]
     420:	00013402 	andeq	r3, r1, r2, lsl #8
     424:	013e0300 	teqeq	lr, r0, lsl #6
     428:	4a100330 	bmi	4010f0 <__bss_end+0x3fdf74>
     42c:	032e7103 			; <UNDEFINED> instruction: 0x032e7103
     430:	03342e09 	teqeq	r4, #9, 28	; 0x90
     434:	4b312e7a 	blmi	c4be24 <__bss_end+0xc48ca8>
     438:	6b4c2f4b 	blvs	130c16c <__bss_end+0x1308ff0>
     43c:	032e1503 			; <UNDEFINED> instruction: 0x032e1503
     440:	4b322e6b 	blmi	c8bdf4 <__bss_end+0xc88c78>
     444:	4a0a0350 	bmi	28118c <__bss_end+0x27e010>
     448:	362e7703 	strtcc	r7, [lr], -r3, lsl #14
     44c:	660c034b 	strvs	r0, [ip], -fp, asr #6
     450:	5703694b 	strpl	r6, [r3, -fp, asr #18]
     454:	821a034a 	andshi	r0, sl, #671088641	; 0x28000001
     458:	83839f67 	orrhi	r9, r3, #412	; 0x19c
     45c:	f42f2d4b 			; <UNDEFINED> instruction: 0xf42f2d4b
     460:	3c081403 	cfstrscc	mvf1, [r8], {3}
     464:	302e1303 	eorcc	r1, lr, r3, lsl #6
     468:	01040200 	mrseq	r0, R12_usr
     46c:	0b036dd8 	bleq	dbbd4 <__bss_end+0xd8a58>
     470:	4a750366 	bmi	1d41210 <__bss_end+0x1d3e094>
     474:	2a513030 	bcs	144c53c <__bss_end+0x14493c0>
     478:	68322a32 	ldmdavs	r2!, {r1, r4, r5, r9, fp, sp}
     47c:	660a034e 	strvs	r0, [sl], -lr, asr #6
     480:	0351524b 	cmpeq	r1, #-1342177276	; 0xb0000004
     484:	03352e79 	teqeq	r5, #1936	; 0x790
     488:	2f672e2a 	svccs	0x00672e2a
     48c:	00f9034d 	rscseq	r0, r9, sp, asr #6
     490:	2b315166 	blcs	c54a30 <__bss_end+0xc518b4>
     494:	2e090369 	cdpcs	3, 0, cr0, cr9, cr9, {3}
     498:	2e2d032f 	cdpcs	3, 2, cr0, cr13, cr15, {1}
     49c:	032e5303 			; <UNDEFINED> instruction: 0x032e5303
     4a0:	4b2e7efa 	blmi	ba0090 <__bss_end+0xb9cf14>
     4a4:	032fa031 			; <UNDEFINED> instruction: 0x032fa031
     4a8:	034b4a74 	movteq	r4, #47732	; 0xba74
     4ac:	2f827fb6 	svccs	0x00827fb6
     4b0:	2c302c68 	ldccs	12, cr2, [r0], #-416	; 0xfffffe60
     4b4:	00060230 	andeq	r0, r6, r0, lsr r2
     4b8:	00ec0101 	rsceq	r0, ip, r1, lsl #2
     4bc:	00020000 	andeq	r0, r2, r0
     4c0:	00000095 	muleq	r0, r5, r0
     4c4:	0efb0102 	cdpeq	1, 15, cr0, cr11, cr2, {0}
     4c8:	0101000d 	tsteq	r1, sp
     4cc:	00000101 	andeq	r0, r0, r1, lsl #2
     4d0:	00000100 	andeq	r0, r0, r0, lsl #2
     4d4:	63726101 	cmnvs	r2, #1073741824	; 0x40000000
     4d8:	72612f68 	rsbvc	r2, r1, #104, 30	; 0x1a0
     4dc:	616d2f6d 	cmnvs	sp, sp, ror #30
     4e0:	732d6863 			; <UNDEFINED> instruction: 0x732d6863
     4e4:	69786e75 	ldmdbvs	r8!, {r0, r2, r4, r5, r6, r9, sl, fp, sp, lr}^
     4e8:	2f6d702f 	svccs	0x006d702f
     4ec:	6e617473 	mcrvs	4, 3, r7, cr1, cr3, {3}
     4f0:	2f796264 	svccs	0x00796264
     4f4:	69002e2e 	stmdbvs	r0, {r1, r2, r3, r5, r9, sl, fp, sp}
     4f8:	756c636e 	strbvc	r6, [ip, #-878]!	; 0xfffffc92
     4fc:	6c2f6564 	cfstr32vs	mvfx6, [pc], #-400	; 374 <set_pll+0xf4>
     500:	78756e69 	ldmdavc	r5!, {r0, r3, r5, r6, r9, sl, fp, sp, lr}^
     504:	776f702f 	strbvc	r7, [pc, -pc, lsr #32]!
     508:	00007265 	andeq	r7, r0, r5, ror #4
     50c:	645f6d70 	ldrbvs	r6, [pc], #-3440	; 514 <io_init_high+0x14>
     510:	67756265 	ldrbvs	r6, [r5, -r5, ror #4]!
     514:	0100632e 	tsteq	r0, lr, lsr #6
     518:	656d0000 	strbvs	r0, [sp, #-0]!
     51c:	72705f6d 	rsbsvc	r5, r0, #436	; 0x1b4
     520:	6b746e69 	blvs	1d1becc <__bss_end+0x1d18d50>
     524:	0100682e 	tsteq	r0, lr, lsr #16
     528:	656d0000 	strbvs	r0, [sp, #-0]!
     52c:	69745f6d 	ldmdbvs	r4!, {r0, r2, r3, r5, r6, r8, r9, sl, fp, ip, lr}^
     530:	676e696d 	strbvs	r6, [lr, -sp, ror #18]!
     534:	0100682e 	tsteq	r0, lr, lsr #16
     538:	6d700000 	ldclvs	0, cr0, [r0, #-0]
     53c:	7079745f 	rsbsvc	r7, r9, pc, asr r4
     540:	682e7365 	stmdavs	lr!, {r0, r2, r5, r6, r8, r9, ip, sp, lr}
     544:	00000100 	andeq	r0, r0, r0, lsl #2
     548:	5f707861 	svcpl	0x00707861
     54c:	65706564 	ldrbvs	r6, [r0, #-1380]!	; 0xfffffa9c
     550:	682e646e 	stmdavs	lr!, {r1, r2, r3, r5, r6, sl, sp, lr}
     554:	00000200 	andeq	r0, r0, r0, lsl #4
     558:	02050000 	andeq	r0, r5, #0
     55c:	000003ec 	andeq	r0, r0, ip, ror #7
     560:	30011603 	andcc	r1, r1, r3, lsl #12
     564:	01040200 	mrseq	r0, R12_usr
     568:	aa036a4b 	bge	dae9c <__bss_end+0xd7d20>
     56c:	fa16ba01 	blx	5aed78 <__bss_end+0x5abbfc>
     570:	492f0133 	stmdbmi	pc!, {r0, r1, r4, r5, r8}	; <UNPREDICTABLE>
     574:	302f4b2f 	eorcc	r4, pc, pc, lsr #22
     578:	3167134d 	cmncc	r7, sp, asr #6
     57c:	312b312e 			; <UNDEFINED> instruction: 0x312b312e
     580:	314fb92f 	cmpcc	pc, pc, lsr #18
     584:	4c2f2d2f 	stcmi	13, cr2, [pc], #-188	; 4d0 <save_cpux_mem_status_nommu+0x4>
     588:	2f2d2f4d 	svccs	0x002d2f4d
     58c:	4a09034c 	bmi	2412c4 <__bss_end+0x23e148>
     590:	6716c014 			; <UNDEFINED> instruction: 0x6716c014
     594:	6815502f 	ldmdavs	r5, {r0, r1, r2, r3, r5, ip, lr}
     598:	4a09032f 	bmi	24125c <__bss_end+0x23e0e0>
     59c:	32484c30 	subcc	r4, r8, #48, 24	; 0x3000
     5a0:	302f2f2c 	eorcc	r2, pc, ip, lsr #30
     5a4:	0004022f 	andeq	r0, r4, pc, lsr #4
     5a8:	013f0101 	teqeq	pc, r1, lsl #2
     5ac:	00020000 	andeq	r0, r2, r0
     5b0:	000000c7 	andeq	r0, r0, r7, asr #1
     5b4:	0efb0102 	cdpeq	1, 15, cr0, cr11, cr2, {0}
     5b8:	0101000d 	tsteq	r1, sp
     5bc:	00000101 	andeq	r0, r0, r1, lsl #2
     5c0:	00000100 	andeq	r0, r0, r0, lsl #2
     5c4:	63726101 	cmnvs	r2, #1073741824	; 0x40000000
     5c8:	72612f68 	rsbvc	r2, r1, #104, 30	; 0x1a0
     5cc:	616d2f6d 	cmnvs	sp, sp, ror #30
     5d0:	732d6863 			; <UNDEFINED> instruction: 0x732d6863
     5d4:	69786e75 	ldmdbvs	r8!, {r0, r2, r4, r5, r6, r9, sl, fp, sp, lr}^
     5d8:	2f6d702f 	svccs	0x006d702f
     5dc:	6e617473 	mcrvs	4, 3, r7, cr1, cr3, {3}
     5e0:	2f796264 	svccs	0x00796264
     5e4:	61002e2e 	tstvs	r0, lr, lsr #28
     5e8:	2f686372 	svccs	0x00686372
     5ec:	2f6d7261 	svccs	0x006d7261
     5f0:	6863616d 	stmdavs	r3!, {r0, r2, r3, r5, r6, r8, sp, lr}^
     5f4:	6e75732d 	cdpvs	3, 7, cr7, cr5, cr13, {1}
     5f8:	702f6978 	eorvc	r6, pc, r8, ror r9	; <UNPREDICTABLE>
     5fc:	74732f6d 	ldrbtvc	r2, [r3], #-3949	; 0xfffff093
     600:	62646e61 	rsbvs	r6, r4, #1552	; 0x610
     604:	2e2e2f79 	mcrcs	15, 1, r2, cr14, cr9, {3}
     608:	69002e2f 	stmdbvs	r0, {r0, r1, r2, r3, r5, r9, sl, fp, sp}
     60c:	756c636e 	strbvc	r6, [ip, #-878]!	; 0xfffffc92
     610:	6c2f6564 	cfstr32vs	mvfx6, [pc], #-400	; 488 <show_mem_status+0x10>
     614:	78756e69 	ldmdavc	r5!, {r0, r3, r5, r6, r9, sl, fp, sp, lr}^
     618:	776f702f 	strbvc	r7, [pc, -pc, lsr #32]!
     61c:	00007265 	andeq	r7, r0, r5, ror #4
     620:	5f6d656d 	svcpl	0x006d656d
     624:	696d6974 	stmdbvs	sp!, {r2, r4, r5, r6, r8, fp, sp, lr}^
     628:	632e676e 			; <UNDEFINED> instruction: 0x632e676e
     62c:	00000100 	andeq	r0, r0, r0, lsl #2
     630:	745f6d70 	ldrbvc	r6, [pc], #-3440	; 638 <delay_us+0x20>
     634:	73657079 	cmnvc	r5, #121	; 0x79
     638:	0100682e 	tsteq	r0, lr, lsr #16
     63c:	6d700000 	ldclvs	0, cr0, [r0, #-0]
     640:	6265645f 	rsbvs	r6, r5, #1593835520	; 0x5f000000
     644:	682e6775 	stmdavs	lr!, {r0, r2, r4, r5, r6, r8, r9, sl, sp, lr}
     648:	00000200 	andeq	r0, r0, r0, lsl #4
     64c:	5f707861 	svcpl	0x00707861
     650:	65706564 	ldrbvs	r6, [r0, #-1380]!	; 0xfffffa9c
     654:	682e646e 	stmdavs	lr!, {r1, r2, r3, r5, r6, sl, sp, lr}
     658:	00000300 	andeq	r0, r0, r0, lsl #6
     65c:	5f6d656d 	svcpl	0x006d656d
     660:	2e6b6c63 	cdpcs	12, 6, cr6, cr11, cr3, {3}
     664:	00020068 	andeq	r0, r2, r8, rrx
     668:	6d656d00 	stclvs	13, cr6, [r5, #-0]
     66c:	7669645f 			; <UNDEFINED> instruction: 0x7669645f
     670:	6362696c 	cmnvs	r2, #108, 18	; 0x1b0000
     674:	0200682e 	andeq	r6, r0, #3014656	; 0x2e0000
     678:	00000000 	andeq	r0, r0, r0
     67c:	05640205 	strbeq	r0, [r4, #-517]!	; 0xfffffdfb
     680:	17030000 	strne	r0, [r3, -r0]
     684:	2f691a01 	svccs	0x00691a01
     688:	2f4d4e33 	svccs	0x004d4e33
     68c:	8514502f 	ldrhi	r5, [r4, #-47]	; 0xffffffd1
     690:	6b85156b 	blvs	fe145c44 <__bss_end+0xfe142ac8>
     694:	15313015 	ldrne	r3, [r1, #-21]!	; 0xffffffeb
     698:	70036a32 	andvc	r6, r3, r2, lsr sl
     69c:	4a19032e 	bmi	64135c <__bss_end+0x63e1e0>
     6a0:	03366dbc 	teqeq	r6, #188, 26	; 0x2f00
     6a4:	2f2f9e32 	svccs	0x002f9e32
     6a8:	034a4d03 	movteq	r4, #44291	; 0xad03
     6ac:	32036655 	andcc	r6, r3, #89128960	; 0x5500000
     6b0:	032f852e 			; <UNDEFINED> instruction: 0x032f852e
     6b4:	4e667fa3 	cdpmi	15, 6, cr7, cr6, cr3, {5}
     6b8:	032f2f4d 			; <UNDEFINED> instruction: 0x032f2f4d
     6bc:	032e00d8 			; <UNDEFINED> instruction: 0x032e00d8
     6c0:	3a036646 	bcc	d9fe0 <__bss_end+0xd6e64>
     6c4:	822b032e 	eorhi	r0, fp, #-1207959552	; 0xb8000000
     6c8:	2f2e2d13 	svccs	0x002e2d13
     6cc:	4f492d30 	svcmi	0x00492d30
     6d0:	20032c4c 	andcs	r2, r3, ip, asr #24
     6d4:	2f691a2e 	svccs	0x00691a2e
     6d8:	504d4e33 	subpl	r4, sp, r3, lsr lr
     6dc:	30316c66 	eorscc	r6, r1, r6, ror #24
     6e0:	6c66512f 	stfvse	f5, [r6], #-188	; 0xffffff44
     6e4:	312f3031 			; <UNDEFINED> instruction: 0x312f3031
     6e8:	01000202 	tsteq	r0, r2, lsl #4
     6ec:	0000b801 	andeq	fp, r0, r1, lsl #16
     6f0:	7f000200 	svcvc	0x00000200
     6f4:	02000000 	andeq	r0, r0, #0
     6f8:	0d0efb01 	vstreq	d15, [lr, #-4]
     6fc:	01010100 	mrseq	r0, (UNDEF: 17)
     700:	00000001 	andeq	r0, r0, r1
     704:	01000001 	tsteq	r0, r1
     708:	68637261 	stmdavs	r3!, {r0, r5, r6, r9, ip, sp, lr}^
     70c:	6d72612f 	ldfvse	f6, [r2, #-188]!	; 0xffffff44
     710:	63616d2f 	cmnvs	r1, #3008	; 0xbc0
     714:	75732d68 	ldrbvc	r2, [r3, #-3432]!	; 0xfffff298
     718:	2f69786e 	svccs	0x0069786e
     71c:	732f6d70 			; <UNDEFINED> instruction: 0x732f6d70
     720:	646e6174 	strbtvs	r6, [lr], #-372	; 0xfffffe8c
     724:	2e2f7962 	cdpcs	9, 2, cr7, cr15, cr2, {3}
     728:	7261002e 	rsbvc	r0, r1, #46	; 0x2e
     72c:	612f6863 			; <UNDEFINED> instruction: 0x612f6863
     730:	6d2f6d72 	stcvs	13, cr6, [pc, #-456]!	; 570 <init_perfcounters+0xc>
     734:	2d686361 	stclcs	3, cr6, [r8, #-388]!	; 0xfffffe7c
     738:	786e7573 	stmdavc	lr!, {r0, r1, r4, r5, r6, r8, sl, ip, sp, lr}^
     73c:	6d702f69 	ldclvs	15, cr2, [r0, #-420]!	; 0xfffffe5c
     740:	6174732f 	cmnvs	r4, pc, lsr #6
     744:	7962646e 	stmdbvc	r2!, {r1, r2, r3, r5, r6, sl, sp, lr}^
     748:	2f2e2e2f 	svccs	0x002e2e2f
     74c:	6d00002e 	stcvs	0, cr0, [r0, #-184]	; 0xffffff48
     750:	6d5f6d65 	ldclvs	13, cr6, [pc, #-404]	; 5c4 <restore_perfcounter+0x10>
     754:	705f756d 	subsvc	r7, pc, sp, ror #10
     758:	00632e63 	rsbeq	r2, r3, r3, ror #28
     75c:	70000001 	andvc	r0, r0, r1
     760:	00682e6d 	rsbeq	r2, r8, sp, ror #28
     764:	70000002 	andvc	r0, r0, r2
     768:	79745f6d 	ldmdbvc	r4!, {r0, r2, r3, r5, r6, r8, r9, sl, fp, ip, lr}^
     76c:	2e736570 	mrccs	5, 3, r6, cr3, cr0, {3}
     770:	00010068 	andeq	r0, r1, r8, rrx
     774:	05000000 	streq	r0, [r0, #-0]
     778:	00078002 	andeq	r8, r7, r2
     77c:	01120300 	tsteq	r2, r0, lsl #6
     780:	4f4d4c14 	svcmi	0x004d4c14
     784:	6b4d4b4b 	blvs	13534b8 <__bss_end+0x135033c>
     788:	4e4c4c16 	mcrmi	12, 2, r4, cr12, cr6, {0}
     78c:	4c4e4b4b 	mcrrmi	11, 4, r4, lr, cr11
     790:	4e2f2f2f 	cdpmi	15, 2, cr2, cr15, cr15, {1}
     794:	4e4c4c16 	mcrmi	12, 2, r4, cr12, cr6, {0}
     798:	674b2f4b 	strbvs	r2, [fp, -fp, asr #30]
     79c:	32131313 	andscc	r1, r3, #1275068416	; 0x4c000000
     7a0:	2f2f2f4c 	svccs	0x002f2f4c
     7a4:	01000402 	tsteq	r0, r2, lsl #8
     7a8:	0001b001 	andeq	fp, r1, r1
     7ac:	49000200 	stmdbmi	r0, {r9}
     7b0:	02000000 	andeq	r0, r0, #0
     7b4:	0d0efb01 	vstreq	d15, [lr, #-4]
     7b8:	01010100 	mrseq	r0, (UNDEF: 17)
     7bc:	00000001 	andeq	r0, r0, r1
     7c0:	01000001 	tsteq	r0, r1
     7c4:	68637261 	stmdavs	r3!, {r0, r5, r6, r9, ip, sp, lr}^
     7c8:	6d72612f 	ldfvse	f6, [r2, #-188]!	; 0xffffff44
     7cc:	63616d2f 	cmnvs	r1, #3008	; 0xbc0
     7d0:	75732d68 	ldrbvc	r2, [r3, #-3432]!	; 0xfffff298
     7d4:	2f69786e 	svccs	0x0069786e
     7d8:	732f6d70 			; <UNDEFINED> instruction: 0x732f6d70
     7dc:	646e6174 	strbtvs	r6, [lr], #-372	; 0xfffffe8c
     7e0:	2e2f7962 	cdpcs	9, 2, cr7, cr15, cr2, {3}
     7e4:	6d00002e 	stcvs	0, cr0, [r0, #-184]	; 0xffffff48
     7e8:	6d5f6d65 	ldclvs	13, cr6, [pc, #-404]	; 65c <delay_us+0x44>
     7ec:	705f756d 	subsvc	r7, pc, sp, ror #10
     7f0:	73615f63 	cmnvc	r1, #396	; 0x18c
     7f4:	00532e6d 	subseq	r2, r3, sp, ror #28
     7f8:	00000001 	andeq	r0, r0, r1
     7fc:	60020500 	andvs	r0, r2, r0, lsl #10
     800:	03000008 	movweq	r0, #8
     804:	2f2f010a 	svccs	0x002f010a
     808:	332f2f33 			; <UNDEFINED> instruction: 0x332f2f33
     80c:	6b2f332f 	blvs	bcd4d0 <__bss_end+0xbca354>
     810:	1303302f 	movwne	r3, #12335	; 0x302f
     814:	2f2f2f4a 	svccs	0x002f2f4a
     818:	2f302f2f 	svccs	0x00302f2f
     81c:	2f2f2f2f 	svccs	0x002f2f2f
     820:	2f2f2f2f 	svccs	0x002f2f2f
     824:	2f2f2f2f 	svccs	0x002f2f2f
     828:	2f30302f 	svccs	0x0030302f
     82c:	2f2f2f2f 	svccs	0x002f2f2f
     830:	2f2f302f 	svccs	0x002f302f
     834:	2f2f3030 	svccs	0x002f3030
     838:	2f2f3330 	svccs	0x002f3330
     83c:	332f2f2f 			; <UNDEFINED> instruction: 0x332f2f2f
     840:	2f2f2f2f 	svccs	0x002f2f2f
     844:	2f302f2f 	svccs	0x00302f2f
     848:	2f2f2f2f 	svccs	0x002f2f2f
     84c:	2f2f2f2f 	svccs	0x002f2f2f
     850:	2f2f2f2f 	svccs	0x002f2f2f
     854:	2f30302f 	svccs	0x0030302f
     858:	2f2f2f2f 	svccs	0x002f2f2f
     85c:	2f2f302f 	svccs	0x002f302f
     860:	2f2f3030 	svccs	0x002f3030
     864:	2f342f2f 	svccs	0x00342f2f
     868:	2f2f2f2f 	svccs	0x002f2f2f
     86c:	332f2f2f 			; <UNDEFINED> instruction: 0x332f2f2f
     870:	2f2f2f2f 	svccs	0x002f2f2f
     874:	332f2f2f 			; <UNDEFINED> instruction: 0x332f2f2f
     878:	2f2f2f2f 	svccs	0x002f2f2f
     87c:	2f332f2f 	svccs	0x00332f2f
     880:	2f2f2f2f 	svccs	0x002f2f2f
     884:	2f2f342f 	svccs	0x002f342f
     888:	2f2f2f2f 	svccs	0x002f2f2f
     88c:	2f2f2f33 	svccs	0x002f2f33
     890:	2f2f2f2f 	svccs	0x002f2f2f
     894:	2f2f2f33 	svccs	0x002f2f33
     898:	032f2f2f 			; <UNDEFINED> instruction: 0x032f2f2f
     89c:	2f2f2e0a 	svccs	0x002f2e0a
     8a0:	342f2f2f 	strtcc	r2, [pc], #-3887	; 8a8 <invalidate_dcache+0x8>
     8a4:	2f2f2f2f 	svccs	0x002f2f2f
     8a8:	2f332f2f 	svccs	0x00332f2f
     8ac:	2f2f2f2f 	svccs	0x002f2f2f
     8b0:	2e09032f 	cdpcs	3, 0, cr0, cr9, cr15, {1}
     8b4:	3030302f 	eorscc	r3, r0, pc, lsr #32
     8b8:	2f2f2f2f 	svccs	0x002f2f2f
     8bc:	2f2f3033 	svccs	0x002f3033
     8c0:	2f2f2f2f 	svccs	0x002f2f2f
     8c4:	2f2f312f 	svccs	0x002f312f
     8c8:	2f2f2f2f 	svccs	0x002f2f2f
     8cc:	2f2f2f2f 	svccs	0x002f2f2f
     8d0:	2f2f2f2f 	svccs	0x002f2f2f
     8d4:	2f2f2f2f 	svccs	0x002f2f2f
     8d8:	2f2f2f2f 	svccs	0x002f2f2f
     8dc:	2f2f2f2f 	svccs	0x002f2f2f
     8e0:	2f2f2f2f 	svccs	0x002f2f2f
     8e4:	2f2f2f2f 	svccs	0x002f2f2f
     8e8:	2f2f2f2f 	svccs	0x002f2f2f
     8ec:	2f2f302f 	svccs	0x002f302f
     8f0:	2f2f2f2f 	svccs	0x002f2f2f
     8f4:	2f2f2f2f 	svccs	0x002f2f2f
     8f8:	312f2f2f 			; <UNDEFINED> instruction: 0x312f2f2f
     8fc:	032f302f 			; <UNDEFINED> instruction: 0x032f302f
     900:	2f2f2e0a 	svccs	0x002f2e0a
     904:	2f30c02f 	svccs	0x0030c02f
     908:	2f34302f 	svccs	0x0034302f
     90c:	30f82f2f 	rscscc	r2, r8, pc, lsr #30
     910:	03302f2f 	teqeq	r0, #47, 30	; 0xbc
     914:	2f2f2e0d 	svccs	0x002f2e0d
     918:	820c0330 	andhi	r0, ip, #48, 6	; 0xc0000000
     91c:	2f2f2f2f 	svccs	0x002f2f2f
     920:	2f502f2f 	svccs	0x00502f2f
     924:	302f2f6d 	eorcc	r2, pc, sp, ror #30
     928:	302f2f30 	eorcc	r2, pc, r0, lsr pc	; <UNPREDICTABLE>
     92c:	a403302f 	strge	r3, [r3], #-47	; 0xffffffd1
     930:	03352e7c 	teqeq	r5, #124, 28	; 0x7c0
     934:	03312e39 	teqeq	r1, #912	; 0x390
     938:	302e01e8 	eorcc	r0, lr, r8, ror #3
     93c:	30303230 	eorscc	r3, r0, r0, lsr r2
     940:	30303030 	eorscc	r3, r0, r0, lsr r0
     944:	30303030 	eorscc	r3, r0, r0, lsr r0
     948:	30303030 	eorscc	r3, r0, r0, lsr r0
     94c:	30303030 	eorscc	r3, r0, r0, lsr r0
     950:	30303130 	eorscc	r3, r0, r0, lsr r1
     954:	30303030 	eorscc	r3, r0, r0, lsr r0
     958:	01000202 	tsteq	r0, r2, lsl #4
     95c:	00013b01 	andeq	r3, r1, r1, lsl #22
     960:	a5000200 	strge	r0, [r0, #-512]	; 0xfffffe00
     964:	02000000 	andeq	r0, r0, #0
     968:	0d0efb01 	vstreq	d15, [lr, #-4]
     96c:	01010100 	mrseq	r0, (UNDEF: 17)
     970:	00000001 	andeq	r0, r0, r1
     974:	01000001 	tsteq	r0, r1
     978:	68637261 	stmdavs	r3!, {r0, r5, r6, r9, ip, sp, lr}^
     97c:	6d72612f 	ldfvse	f6, [r2, #-188]!	; 0xffffff44
     980:	63616d2f 	cmnvs	r1, #3008	; 0xbc0
     984:	75732d68 	ldrbvc	r2, [r3, #-3432]!	; 0xfffff298
     988:	2f69786e 	svccs	0x0069786e
     98c:	732f6d70 			; <UNDEFINED> instruction: 0x732f6d70
     990:	646e6174 	strbtvs	r6, [lr], #-372	; 0xfffffe8c
     994:	2e2f7962 	cdpcs	9, 2, cr7, cr15, cr2, {3}
     998:	7261002e 	rsbvc	r0, r1, #46	; 0x2e
     99c:	612f6863 			; <UNDEFINED> instruction: 0x612f6863
     9a0:	6d2f6d72 	stcvs	13, cr6, [pc, #-456]!	; 7e0 <restore_secure_mmu_state+0x24>
     9a4:	2d686361 	stclcs	3, cr6, [r8, #-388]!	; 0xfffffe7c
     9a8:	786e7573 	stmdavc	lr!, {r0, r1, r4, r5, r6, r8, sl, ip, sp, lr}^
     9ac:	6d702f69 	ldclvs	15, cr2, [r0, #-420]!	; 0xfffffe5c
     9b0:	6174732f 	cmnvs	r4, pc, lsr #6
     9b4:	7962646e 	stmdbvc	r2!, {r1, r2, r3, r5, r6, sl, sp, lr}^
     9b8:	2f2e2e2f 	svccs	0x002e2e2f
     9bc:	6e69002e 	cdpvs	0, 6, cr0, cr9, cr14, {1}
     9c0:	64756c63 	ldrbtvs	r6, [r5], #-3171	; 0xfffff39d
     9c4:	696c2f65 	stmdbvs	ip!, {r0, r2, r5, r6, r8, r9, sl, fp, sp}^
     9c8:	2f78756e 	svccs	0x0078756e
     9cc:	65776f70 	ldrbvs	r6, [r7, #-3952]!	; 0xfffff090
     9d0:	6d000072 	stcvs	0, cr0, [r0, #-456]	; 0xfffffe38
     9d4:	635f6d65 	cmpvs	pc, #6464	; 0x1940
     9d8:	632e7570 			; <UNDEFINED> instruction: 0x632e7570
     9dc:	00000100 	andeq	r0, r0, r0, lsl #2
     9e0:	5f6d656d 	svcpl	0x006d656d
     9e4:	2e757063 	cdpcs	0, 7, cr7, cr5, cr3, {3}
     9e8:	00020068 	andeq	r0, r2, r8, rrx
     9ec:	5f6d7000 	svcpl	0x006d7000
     9f0:	65707974 	ldrbvs	r7, [r0, #-2420]!	; 0xfffff68c
     9f4:	00682e73 	rsbeq	r2, r8, r3, ror lr
     9f8:	61000001 	tstvs	r0, r1
     9fc:	645f7078 	ldrbvs	r7, [pc], #-120	; a04 <flush_icache+0x1c>
     a00:	6e657065 	cdpvs	0, 6, cr7, cr5, cr5, {3}
     a04:	00682e64 	rsbeq	r2, r8, r4, ror #28
     a08:	00000003 	andeq	r0, r0, r3
     a0c:	b0020500 	andlt	r0, r2, r0, lsl #10
     a10:	0300000d 	movweq	r0, #13
     a14:	1601018a 	strne	r0, [r1], -sl, lsl #3
     a18:	f3f21003 	vswp	d17, d3
     a1c:	f6f3f3f8 			; <UNDEFINED> instruction: 0xf6f3f3f8
     a20:	f3f3f3f6 	vrsra.u64	<illegal reg q15.5>, q11, #13
     a24:	f6f6f3f6 			; <UNDEFINED> instruction: 0xf6f6f3f6
     a28:	03f3f3f3 	mvnseq	pc, #-872415229	; 0xcc000003
     a2c:	f3f3f20b 	vsubl.u<illegal width 64>	<illegal reg q15.5>, d3, d11
     a30:	f3f3f3f3 	vrsra.u64	<illegal reg q15.5>, <illegal reg q9.5>, #13
     a34:	f3f21403 	vraddhn.i<illegal width 128>	d17, q1, <illegal reg q1.5>
     a38:	03f21703 	mvnseq	r1, #786432	; 0xc0000
     a3c:	f3f3f209 	vsubl.u<illegal width 64>	<illegal reg q15.5>, d3, d9
     a40:	080d03f3 	stmdaeq	sp, {r0, r1, r4, r5, r6, r7, r8, r9}
     a44:	0e031420 	cfcpydeq	mvd1, mvd3
     a48:	2ff3f6f2 	svccs	0x00f3f6f2
     a4c:	2f2ff32f 	svccs	0x002ff32f
     a50:	f4322ff3 			; <UNDEFINED> instruction: 0xf4322ff3
     a54:	f3f3f3f5 	vrsra.u64	<illegal reg q15.5>, <illegal reg q10.5>, #13
     a58:	faf3f3f3 	blx	ffcfda2c <__bss_end+0xffcfa8b0>
     a5c:	f21703f3 	vcge.s16	q0, <illegal reg q11.5>, <illegal reg q9.5>
     a60:	f3f3f3f9 	vrsra.u64	<illegal reg q15.5>, <illegal reg q12.5>, #13
     a64:	14502ff9 	ldrbne	r2, [r0], #-4089	; 0xfffff007
     a68:	09032f68 	stmdbeq	r3, {r3, r5, r6, r8, r9, sl, fp, sp}
     a6c:	0b03154a 	bleq	c5f9c <__bss_end+0xc2e20>
     a70:	4e4b674a 	cdpmi	7, 4, cr6, cr11, cr10, {2}
     a74:	30302f30 	eorscc	r2, r0, r0, lsr pc
     a78:	302f2f2f 	eorcc	r2, pc, pc, lsr #30
     a7c:	2f31302f 	svccs	0x0031302f
     a80:	2e0d032f 	cdpcs	3, 0, cr0, cr13, cr15, {1}
     a84:	66170367 	ldrvs	r0, [r7], -r7, ror #6
     a88:	302f2f2f 	eorcc	r2, pc, pc, lsr #30
     a8c:	6b13512f 	blvs	4d4f50 <__bss_end+0x4d1dd4>
     a90:	a3136a13 	tstge	r3, #77824	; 0x13000
     a94:	022f3015 	eoreq	r3, pc, #21
     a98:	01010004 	tsteq	r1, r4
     a9c:	00000242 	andeq	r0, r0, r2, asr #4
     aa0:	00ac0002 	adceq	r0, ip, r2
     aa4:	01020000 	mrseq	r0, (UNDEF: 2)
     aa8:	000d0efb 	strdeq	r0, [sp], -fp
     aac:	01010101 	tsteq	r1, r1, lsl #2
     ab0:	01000000 	mrseq	r0, (UNDEF: 0)
     ab4:	61010000 	mrsvs	r0, (UNDEF: 1)
     ab8:	2f686372 	svccs	0x00686372
     abc:	2f6d7261 	svccs	0x006d7261
     ac0:	6863616d 	stmdavs	r3!, {r0, r2, r3, r5, r6, r8, sp, lr}^
     ac4:	6e75732d 	cdpvs	3, 7, cr7, cr5, cr13, {1}
     ac8:	702f6978 	eorvc	r6, pc, r8, ror r9	; <UNPREDICTABLE>
     acc:	74732f6d 	ldrbtvc	r2, [r3], #-3949	; 0xfffff093
     ad0:	62646e61 	rsbvs	r6, r4, #1552	; 0x610
     ad4:	2e2e2f79 	mcrcs	15, 1, r2, cr14, cr9, {3}
     ad8:	636e6900 	cmnvs	lr, #0, 18
     adc:	6564756c 	strbvs	r7, [r4, #-1388]!	; 0xfffffa94
     ae0:	6e696c2f 	cdpvs	12, 6, cr6, cr9, cr15, {1}
     ae4:	702f7875 	eorvc	r7, pc, r5, ror r8	; <UNPREDICTABLE>
     ae8:	7265776f 	rsbvc	r7, r5, #29097984	; 0x1bc0000
     aec:	656d0000 	strbvs	r0, [sp, #-0]!
     af0:	65735f6d 	ldrbvs	r5, [r3, #-3949]!	; 0xfffff093
     af4:	6c616972 	stclvs	9, cr6, [r1], #-456	; 0xfffffe38
     af8:	0100632e 	tsteq	r0, lr, lsr #6
     afc:	6d700000 	ldclvs	0, cr0, [r0, #-0]
     b00:	7079745f 	rsbsvc	r7, r9, pc, asr r4
     b04:	682e7365 	stmdavs	lr!, {r0, r2, r5, r6, r8, r9, ip, sp, lr}
     b08:	00000100 	andeq	r0, r0, r0, lsl #2
     b0c:	5f6d656d 	svcpl	0x006d656d
     b10:	756d6363 	strbvc	r6, [sp, #-867]!	; 0xfffffc9d
     b14:	6e75732d 	cdpvs	3, 7, cr7, cr5, cr13, {1}
     b18:	35776938 	ldrbcc	r6, [r7, #-2360]!	; 0xfffff6c8
     b1c:	682e3170 	stmdavs	lr!, {r4, r5, r6, r8, ip, sp}
     b20:	00000100 	andeq	r0, r0, r0, lsl #2
     b24:	5f6d656d 	svcpl	0x006d656d
     b28:	2e6b6c63 	cdpcs	12, 6, cr6, cr11, cr3, {3}
     b2c:	00010068 	andeq	r0, r1, r8, rrx
     b30:	6d656d00 	stclvs	13, cr6, [r5, #-0]
     b34:	6d69745f 	cfstrdvs	mvd7, [r9, #-380]!	; 0xfffffe84
     b38:	2e676e69 	cdpcs	14, 6, cr6, cr7, cr9, {3}
     b3c:	00010068 	andeq	r0, r1, r8, rrx
     b40:	70786100 	rsbsvc	r6, r8, r0, lsl #2
     b44:	7065645f 	rsbvc	r6, r5, pc, asr r4
     b48:	2e646e65 	cdpcs	14, 6, cr6, cr4, cr5, {3}
     b4c:	00020068 	andeq	r0, r2, r8, rrx
     b50:	05000000 	streq	r0, [r0, #-0]
     b54:	00155c02 	andseq	r5, r5, r2, lsl #24
     b58:	011c0300 	tsteq	ip, r0, lsl #6
     b5c:	2e0b032e 	cdpcs	3, 0, cr0, cr11, cr14, {1}
     b60:	1303862f 	movwne	r8, #13871	; 0x362f
     b64:	0330a566 	teqeq	r0, #427819008	; 0x19800000
     b68:	6c038214 	sfmvs	f0, 1, [r3], {20}
     b6c:	2e77032e 	cdpcs	3, 7, cr0, cr7, cr14, {1}
     b70:	302e0903 	eorcc	r0, lr, r3, lsl #18
     b74:	684a1203 	stmdavs	sl, {r0, r1, r9, ip}^
     b78:	364d2f67 	strbcc	r2, [sp], -r7, ror #30
     b7c:	4c2e7803 	stcmi	8, cr7, [lr], #-12
     b80:	01d2036c 	bicseq	r0, r2, ip, ror #6
     b84:	ee03142e 	cdp	4, 0, cr1, cr3, cr14, {1}
     b88:	92039e00 	andls	r9, r3, #0, 28
     b8c:	4c302e7f 	ldcmi	14, cr2, [r0], #-508	; 0xfffffe04
     b90:	4a00ea03 	bmi	3b3a4 <__bss_end+0x38228>
     b94:	4a7f9e03 	bmi	1fe83a8 <__bss_end+0x1fe522c>
     b98:	03016a03 	movweq	r6, #6659	; 0x1a03
     b9c:	64032e1c 	strvs	r2, [r3], #-3612	; 0xfffff1e4
     ba0:	4a16032e 	bmi	581860 <__bss_end+0x57e6e4>
     ba4:	682e6a03 	stmdavs	lr!, {r0, r1, r9, fp, sp, lr}
     ba8:	312e2403 			; <UNDEFINED> instruction: 0x312e2403
     bac:	2e570330 	mrccs	3, 2, r0, cr7, cr0, {1}
     bb0:	32661a03 	rsbcc	r1, r6, #12288	; 0x3000
     bb4:	302d2f49 	eorcc	r2, sp, r9, asr #30
     bb8:	00cf034b 	sbceq	r0, pc, fp, asr #6
     bbc:	7fb4034a 	svcvc	0x00b4034a
     bc0:	00cc032e 	sbceq	r0, ip, lr, lsr #6
     bc4:	7fae032e 	svcvc	0x00ae032e
     bc8:	4b2d4f2e 	blmi	b54888 <__bss_end+0xb5170c>
     bcc:	30312f2f 	eorscc	r2, r1, pc, lsr #30
     bd0:	2e00c603 	cfmadd32cs	mvax0, mvfx12, mvfx0, mvfx3
     bd4:	154a5603 	strbne	r5, [sl, #-1539]	; 0xfffff9fd
     bd8:	666503a2 	strbtvs	r0, [r5], -r2, lsr #7
     bdc:	034a1403 	movteq	r1, #41987	; 0xa403
     be0:	03312e6c 	teqeq	r1, #108, 28	; 0x6c0
     be4:	03502e1a 	cmpeq	r0, #416	; 0x1a0
     be8:	2f672e5d 	svccs	0x00672e5d
     bec:	032f2f2f 			; <UNDEFINED> instruction: 0x032f2f2f
     bf0:	0b032e16 	bleq	cc450 <__bss_end+0xc92d4>
     bf4:	4a5a0366 	bmi	1681994 <__bss_end+0x167e818>
     bf8:	2f2f2f67 	svccs	0x002f2f67
     bfc:	4a21032f 	bmi	8418c0 <__bss_end+0x83e744>
     c00:	2e71032f 	cdpcs	3, 7, cr0, cr1, cr15, {1}
     c04:	164a1203 	strbne	r1, [sl], -r3, lsl #4
     c08:	0402009f 	streq	r0, [r2], #-159	; 0xffffff61
     c0c:	5b034d01 	blpl	d4018 <__bss_end+0xd0e9c>
     c10:	2e1d034a 	cdpcs	3, 1, cr0, cr13, cr10, {2}
     c14:	032e6303 			; <UNDEFINED> instruction: 0x032e6303
     c18:	5b034a25 	blpl	d34b4 <__bss_end+0xd0338>
     c1c:	034c9f66 	movteq	r9, #53094	; 0xcf66
     c20:	02004a24 	andeq	r4, r0, #36, 20	; 0x24000
     c24:	00480204 	subeq	r0, r8, r4, lsl #4
     c28:	32020402 	andcc	r0, r2, #33554432	; 0x2000000
     c2c:	02040200 	andeq	r0, r4, #0, 4
     c30:	069e062a 	ldreq	r0, [lr], sl, lsr #12
     c34:	a3144e34 	tstge	r4, #52, 28	; 0x340
     c38:	ff03a214 			; <UNDEFINED> instruction: 0xff03a214
     c3c:	8903017e 	stmdbhi	r3, {r1, r2, r3, r4, r5, r6, r8}
     c40:	f7032e01 			; <UNDEFINED> instruction: 0xf7032e01
     c44:	81032e7e 	tsthi	r3, lr, ror lr
     c48:	ff034a01 			; <UNDEFINED> instruction: 0xff034a01
     c4c:	93032e7e 	movwls	r2, #15998	; 0x3e7e
     c50:	ed034a01 	vstr	s8, [r3, #-4]
     c54:	96032e7e 			; <UNDEFINED> instruction: 0x96032e7e
     c58:	ef032e01 	svc	0x00032e01
     c5c:	03842e7e 	orreq	r2, r4, #2016	; 0x7e0
     c60:	31820182 	orrcc	r0, r2, r2, lsl #3
     c64:	2f2d4b4b 	svccs	0x002d4b4b
     c68:	032b312f 			; <UNDEFINED> instruction: 0x032b312f
     c6c:	74032e09 	strvc	r2, [r3], #-3593	; 0xfffff1f7
     c70:	4b2d4f2e 	blmi	b54930 <__bss_end+0xb517b4>
     c74:	30312f2f 	eorscc	r2, r1, pc, lsr #30
     c78:	032e5e03 			; <UNDEFINED> instruction: 0x032e5e03
     c7c:	154a00cc 	strbne	r0, [sl, #-204]	; 0xffffff34
     c80:	665903a2 	ldrbvs	r0, [r9], -r2, lsr #7
     c84:	034a2003 	movteq	r2, #40963	; 0xa003
     c88:	03312e60 	teqeq	r1, #96, 28	; 0x600
     c8c:	03502e26 	cmpeq	r0, #608	; 0x260
     c90:	2f672e51 	svccs	0x00672e51
     c94:	032f2f2f 			; <UNDEFINED> instruction: 0x032f2f2f
     c98:	0b032e22 	bleq	cc528 <__bss_end+0xc93ac>
     c9c:	4a4e0366 	bmi	1381a3c <__bss_end+0x137e8c0>
     ca0:	2f2f2f67 	svccs	0x002f2f67
     ca4:	4a2d032f 	bmi	b41968 <__bss_end+0xb3e7ec>
     ca8:	2e71032f 	cdpcs	3, 7, cr0, cr1, cr15, {1}
     cac:	164a1303 	strbne	r1, [sl], -r3, lsl #6
     cb0:	0402009f 	streq	r0, [r2], #-159	; 0xffffff61
     cb4:	4e034d01 	cdpmi	13, 0, cr4, cr3, cr1, {0}
     cb8:	2e2a034a 	cdpcs	3, 2, cr0, cr10, cr10, {2}
     cbc:	032e5603 			; <UNDEFINED> instruction: 0x032e5603
     cc0:	4e034a32 	mcrmi	10, 0, r4, cr3, cr2, {1}
     cc4:	034c9f66 	movteq	r9, #53094	; 0xcf66
     cc8:	02004a31 	andeq	r4, r0, #200704	; 0x31000
     ccc:	00480204 	subeq	r0, r8, r4, lsl #4
     cd0:	32020402 	andcc	r0, r2, #33554432	; 0x2000000
     cd4:	02040200 	andeq	r0, r4, #0, 4
     cd8:	069e062a 	ldreq	r0, [lr], sl, lsr #12
     cdc:	00040234 	andeq	r0, r4, r4, lsr r2
     ce0:	02f10101 	rscseq	r0, r1, #1073741824	; 0x40000000
     ce4:	00020000 	andeq	r0, r2, r0
     ce8:	00000102 	andeq	r0, r0, r2, lsl #2
     cec:	0efb0102 	cdpeq	1, 15, cr0, cr11, cr2, {0}
     cf0:	0101000d 	tsteq	r1, sp
     cf4:	00000101 	andeq	r0, r0, r1, lsl #2
     cf8:	00000100 	andeq	r0, r0, r0, lsl #2
     cfc:	63726101 	cmnvs	r2, #1073741824	; 0x40000000
     d00:	72612f68 	rsbvc	r2, r1, #104, 30	; 0x1a0
     d04:	616d2f6d 	cmnvs	sp, sp, ror #30
     d08:	732d6863 			; <UNDEFINED> instruction: 0x732d6863
     d0c:	69786e75 	ldmdbvs	r8!, {r0, r2, r4, r5, r6, r9, sl, fp, sp, lr}^
     d10:	2f6d702f 	svccs	0x006d702f
     d14:	6e617473 	mcrvs	4, 3, r7, cr1, cr3, {3}
     d18:	2f796264 	svccs	0x00796264
     d1c:	2f002e2e 	svccs	0x00002e2e
     d20:	656d6f68 	strbvs	r6, [sp, #-3944]!	; 0xfffff098
     d24:	72616b2f 	rsbvc	r6, r1, #48128	; 0xbc00
     d28:	65656c6c 	strbvs	r6, [r5, #-3180]!	; 0xfffff394
     d2c:	776c612f 	strbvc	r6, [ip, -pc, lsr #2]!
     d30:	656e6e69 	strbvs	r6, [lr, #-3689]!	; 0xfffff197
     d34:	50422f72 	subpl	r2, r2, r2, ror pc
     d38:	324d2d49 	subcc	r2, sp, #4672	; 0x1240
     d3c:	73622d4d 	cmnvc	r2, #4928	; 0x1340
     d40:	6f742f70 	svcvs	0x00742f70
     d44:	68636c6f 	stmdavs	r3!, {r0, r1, r2, r3, r5, r6, sl, fp, sp, lr}^
     d48:	2f6e6961 	svccs	0x006e6961
     d4c:	2f62696c 	svccs	0x0062696c
     d50:	2f636367 	svccs	0x00636367
     d54:	2d6d7261 	sfmcs	f7, 2, [sp, #-388]!	; 0xfffffe7c
     d58:	6e65706f 	cdpvs	0, 6, cr7, cr5, cr15, {3}
     d5c:	2d747277 	lfmcs	f7, 2, [r4, #-476]!	; 0xfffffe24
     d60:	756e696c 	strbvc	r6, [lr, #-2412]!	; 0xfffff694
     d64:	756d2d78 	strbvc	r2, [sp, #-3448]!	; 0xfffff288
     d68:	6e676c73 	mcrvs	12, 3, r6, cr7, cr3, {3}
     d6c:	62616575 	rsbvs	r6, r1, #490733568	; 0x1d400000
     d70:	2e352f69 	cdpcs	15, 3, cr2, cr5, cr9, {3}
     d74:	2f302e32 	svccs	0x00302e32
     d78:	6c636e69 	stclvs	14, cr6, [r3], #-420	; 0xfffffe5c
     d7c:	00656475 	rsbeq	r6, r5, r5, ror r4
     d80:	6c636e69 	stclvs	14, cr6, [r3], #-420	; 0xfffffe5c
     d84:	2f656475 	svccs	0x00656475
     d88:	756e696c 	strbvc	r6, [lr, #-2412]!	; 0xfffff694
     d8c:	6f702f78 	svcvs	0x00702f78
     d90:	00726577 	rsbseq	r6, r2, r7, ror r5
     d94:	6d656d00 	stclvs	13, cr6, [r5, #-0]
     d98:	6972705f 	ldmdbvs	r2!, {r0, r1, r2, r3, r4, r6, ip, sp, lr}^
     d9c:	2e6b746e 	cdpcs	4, 6, cr7, cr11, cr14, {3}
     da0:	00010063 	andeq	r0, r1, r3, rrx
     da4:	5f6d7000 	svcpl	0x006d7000
     da8:	65707974 	ldrbvs	r7, [r0, #-2420]!	; 0xfffff68c
     dac:	00682e73 	rsbeq	r2, r8, r3, ror lr
     db0:	73000001 	movwvc	r0, #1
     db4:	72616474 	rsbvc	r6, r1, #116, 8	; 0x74000000
     db8:	00682e67 	rsbeq	r2, r8, r7, ror #28
     dbc:	6d000002 	stcvs	0, cr0, [r0, #-8]
     dc0:	735f6d65 	cmpvc	pc, #6464	; 0x1940
     dc4:	61697265 	cmnvs	r9, r5, ror #4
     dc8:	00682e6c 	rsbeq	r2, r8, ip, ror #28
     dcc:	61000001 	tstvs	r0, r1
     dd0:	645f7078 	ldrbvs	r7, [pc], #-120	; dd8 <__save_processor_state+0x28>
     dd4:	6e657065 	cdpvs	0, 6, cr7, cr5, cr5, {3}
     dd8:	00682e64 	rsbeq	r2, r8, r4, ror #28
     ddc:	3c000003 	stccc	0, cr0, [r0], {3}
     de0:	6c697562 	cfstr64vs	mvdx7, [r9], #-392	; 0xfffffe78
     de4:	6e692d74 	mcrvs	13, 3, r2, cr9, cr4, {3}
     de8:	0000003e 	andeq	r0, r0, lr, lsr r0
     dec:	05000000 	streq	r0, [r0, #-0]
     df0:	001a2402 	andseq	r2, sl, r2, lsl #8
     df4:	01d90300 	bicseq	r0, r9, r0, lsl #6
     df8:	2c301601 	ldccs	6, cr1, [r0], #-4
     dfc:	322a862a 	eorcc	r8, sl, #44040192	; 0x2a00000
     e00:	52682c4c 	rsbpl	r2, r8, #76, 24	; 0x4c00
     e04:	03040200 	movweq	r0, #16896	; 0x4200
     e08:	04020031 	streq	r0, [r2], #-49	; 0xffffffcf
     e0c:	02008303 	andeq	r8, r0, #201326592	; 0xc000000
     e10:	002d0304 	eoreq	r0, sp, r4, lsl #6
     e14:	2f030402 	svccs	0x00030402
     e18:	03040200 	movweq	r0, #16896	; 0x4200
     e1c:	0402002d 	streq	r0, [r2], #-45	; 0xffffffd3
     e20:	02004b03 	andeq	r4, r0, #3072	; 0xc00
     e24:	002a0304 	eoreq	r0, sl, r4, lsl #6
     e28:	fa030402 	blx	c1e38 <__bss_end+0xbecbc>
     e2c:	03040200 	movweq	r0, #16896	; 0x4200
     e30:	04020030 	streq	r0, [r2], #-48	; 0xffffffd0
     e34:	4d332c03 	ldcmi	12, cr2, [r3, #-12]!
     e38:	6b03312b 	blvs	cd2ec <__bss_end+0xca170>
     e3c:	2e15034a 	cdpcs	3, 1, cr0, cr5, cr10, {2}
     e40:	2d2e6c03 	stccs	12, cr6, [lr, #-12]!
     e44:	032e1503 			; <UNDEFINED> instruction: 0x032e1503
     e48:	314a00fe 	strdcc	r0, [sl, #-14]
     e4c:	322b6947 	eorcc	r6, fp, #1163264	; 0x11c000
     e50:	78036e2d 	stmdavc	r3, {r0, r2, r3, r5, r9, sl, fp, sp, lr}
     e54:	f2032f2e 	vmax.f32	d2, d3, d30
     e58:	91032e7d 	tstls	r3, sp, ror lr
     e5c:	ef032e02 	svc	0x00032e02
     e60:	91032e7d 	tstls	r3, sp, ror lr
     e64:	f503ba02 			; <UNDEFINED> instruction: 0xf503ba02
     e68:	0348667d 	movteq	r6, #34429	; 0x867d
     e6c:	039e0292 	orrseq	r0, lr, #536870921	; 0x20000009
     e70:	034a7df2 	movteq	r7, #44530	; 0xadf2
     e74:	032e028e 			; <UNDEFINED> instruction: 0x032e028e
     e78:	344a7ea8 	strbcc	r7, [sl], #-3752	; 0xfffff158
     e7c:	6c4a7a03 	mcrrvs	10, 0, r7, sl, cr3
     e80:	03682c4c 	cmneq	r8, #76, 24	; 0x4c00
     e84:	7a032e12 	bvc	cc6d4 <__bss_end+0xc9558>
     e88:	70032d2e 	andvc	r2, r3, lr, lsr #26
     e8c:	4a17032e 	bmi	5c1b4c <__bss_end+0x5be9d0>
     e90:	3147692b 	cmpcc	r7, fp, lsr #18
     e94:	037f317f 	cmneq	pc, #-1073741793	; 0xc000001f
     e98:	f44d2e09 			; <UNDEFINED> instruction: 0xf44d2e09
     e9c:	4d4f2c30 	stclmi	12, cr2, [pc, #-192]	; de4 <__save_processor_state+0x34>
     ea0:	5e03312b 	adfplsp	f3, f3, #3.0
     ea4:	2e22034a 	cdpcs	3, 2, cr0, cr2, cr10, {2}
     ea8:	2d2e5f03 	stccs	15, cr5, [lr, #-12]!
     eac:	032e2203 			; <UNDEFINED> instruction: 0x032e2203
     eb0:	0c034a39 	stceq	10, cr4, [r3], {57}	; 0x39
     eb4:	73032f66 	movwvc	r2, #16230	; 0x3f66
     eb8:	2e0c032e 	cdpcs	3, 0, cr0, cr12, cr14, {1}
     ebc:	8229032f 	eorhi	r0, r9, #-1140850688	; 0xbc000000
     ec0:	032e1803 			; <UNDEFINED> instruction: 0x032e1803
     ec4:	032e7fbf 			; <UNDEFINED> instruction: 0x032e7fbf
     ec8:	036600cb 	cmneq	r6, #203	; 0xcb
     ecc:	4c2e7fb5 	stcmi	15, cr7, [lr], #-724	; 0xfffffd2c
     ed0:	2e00c603 	cfmadd32cs	mvax0, mvfx12, mvfx0, mvfx3
     ed4:	4a7fba03 	bmi	1fef6e8 <__bss_end+0x1fec56c>
     ed8:	46326531 			; <UNDEFINED> instruction: 0x46326531
     edc:	03303233 	teqeq	r0, #805306371	; 0x30000003
     ee0:	0134026f 	teqeq	r4, pc, ror #4
     ee4:	4a00d403 	bmi	35ef8 <__bss_end+0x32d7c>
     ee8:	302c302c 	eorcc	r3, ip, ip, lsr #32
     eec:	9e540331 	mrcls	3, 2, r0, cr4, cr1, {1}
     ef0:	d67de603 	ldrbtle	lr, [sp], -r3, lsl #12
     ef4:	f2029c03 			; <UNDEFINED> instruction: 0xf2029c03
     ef8:	d67df503 	ldrbtle	pc, [sp], -r3, lsl #10	; <UNPREDICTABLE>
     efc:	82028d03 	andhi	r8, r2, #3, 26	; 0xc0
     f00:	2e0b032f 	cdpcs	3, 0, cr0, cr11, cr15, {1}
     f04:	ba7de703 	blt	1f7ab18 <__bss_end+0x1f7799c>
     f08:	03826f03 	orreq	r6, r2, #3, 30
     f0c:	4bd602ac 	blmi	ff5819c4 <__bss_end+0xff57e848>
     f10:	032e6303 			; <UNDEFINED> instruction: 0x032e6303
     f14:	03d67df0 	bicseq	r7, r6, #240, 26	; 0x3c00
     f18:	03f20292 	mvnseq	r0, #536870921	; 0x20000009
     f1c:	03d67dff 	bicseq	r7, r6, #16320	; 0x3fc0
     f20:	0382028d 	orreq	r0, r2, #-805306360	; 0xd0000008
     f24:	fb034a67 	blx	d38ca <__bss_end+0xd074e>
     f28:	8703ba7d 	smlsdxhi	r3, sp, sl, fp
     f2c:	8a03f202 	bhi	fd73c <__bss_end+0xfa5c0>
     f30:	8d03d67e 	stchi	6, cr13, [r3, #-504]	; 0xfffffe08
     f34:	9f508202 	svcls	0x00508202
     f38:	4b2e0d03 	blmi	b8434c <__bss_end+0xb811d0>
     f3c:	827dcd03 	rsbshi	ip, sp, #3, 26	; 0xc0
     f40:	ba02d903 	blt	b7354 <__bss_end+0xb41d8>
     f44:	2f660c03 	svccs	0x00660c03
     f48:	032e7303 			; <UNDEFINED> instruction: 0x032e7303
     f4c:	032f2e0c 			; <UNDEFINED> instruction: 0x032f2e0c
     f50:	18038229 	stmdane	r3, {r0, r3, r5, r9, pc}
     f54:	7fbf032e 	svcvc	0x00bf032e
     f58:	00cb032e 	sbceq	r0, fp, lr, lsr #6
     f5c:	7fb50366 	svcvc	0x00b50366
     f60:	c6034c2e 	strgt	r4, [r3], -lr, lsr #24
     f64:	ba032e00 	blt	cc76c <__bss_end+0xc95f0>
     f68:	65314a7f 	ldrvs	r4, [r1, #-2687]!	; 0xfffff581
     f6c:	32334632 	eorscc	r4, r3, #52428800	; 0x3200000
     f70:	026f0330 	rsbeq	r0, pc, #48, 6	; 0xc0000000
     f74:	d4030134 	strle	r0, [r3], #-308	; 0xfffffecc
     f78:	302c4a00 	eorcc	r4, ip, r0, lsl #20
     f7c:	0331302c 	teqeq	r1, #44	; 0x2c
     f80:	f1039e54 			; <UNDEFINED> instruction: 0xf1039e54
     f84:	9103d67c 	tstls	r3, ip, ror r6
     f88:	8003f203 	andhi	pc, r3, r3, lsl #4
     f8c:	8203d67d 	andhi	sp, r3, #131072000	; 0x7d00000
     f90:	032f8203 			; <UNDEFINED> instruction: 0x032f8203
     f94:	f2032e0b 	vceq.f32	d2, d3, d11
     f98:	6f03ba7c 	svcvs	0x0003ba7c
     f9c:	03a10382 			; <UNDEFINED> instruction: 0x03a10382
     fa0:	63034bd6 	movwvs	r4, #15318	; 0x3bd6
     fa4:	7cfb032e 	ldclvc	3, cr0, [fp], #184	; 0xb8
     fa8:	038703d6 	orreq	r0, r7, #1476395011	; 0x58000003
     fac:	7d8a03f2 	stcvc	3, cr0, [sl, #968]	; 0x3c8
     fb0:	038203d6 	orreq	r0, r2, #1476395011	; 0x58000003
     fb4:	4a670382 	bmi	19c1dc4 <__bss_end+0x19bec48>
     fb8:	ba7d8603 	blt	1f627cc <__bss_end+0x1f5f650>
     fbc:	f202fc03 			; <UNDEFINED> instruction: 0xf202fc03
     fc0:	d67d9503 	ldrbtle	r9, [sp], -r3, lsl #10
     fc4:	82038203 	andhi	r8, r3, #805306368	; 0x30000000
     fc8:	0d039f50 	stceq	15, cr9, [r3, #-320]	; 0xfffffec0
     fcc:	d8034b2e 	stmdale	r3, {r1, r2, r3, r5, r8, r9, fp, lr}
     fd0:	0c02827c 	sfmeq	f0, 1, [r2], {124}	; 0x7c
     fd4:	a9010100 	stmdbge	r1, {r8}
     fd8:	02000000 	andeq	r0, r0, #0
     fdc:	00004500 	andeq	r4, r0, r0, lsl #10
     fe0:	fb010200 	blx	417ea <__bss_end+0x3e66e>
     fe4:	01000d0e 	tsteq	r0, lr, lsl #26
     fe8:	00010101 	andeq	r0, r1, r1, lsl #2
     fec:	00010000 	andeq	r0, r1, r0
     ff0:	72610100 	rsbvc	r0, r1, #0, 2
     ff4:	612f6863 			; <UNDEFINED> instruction: 0x612f6863
     ff8:	6d2f6d72 	stcvs	13, cr6, [pc, #-456]!	; e38 <__save_processor_state+0x88>
     ffc:	2d686361 	stclcs	3, cr6, [r8, #-388]!	; 0xfffffe7c
    1000:	786e7573 	stmdavc	lr!, {r0, r1, r4, r5, r6, r8, sl, ip, sp, lr}^
    1004:	6d702f69 	ldclvs	15, cr2, [r0, #-420]!	; 0xfffffe5c
    1008:	6174732f 	cmnvs	r4, pc, lsr #6
    100c:	7962646e 	stmdbvc	r2!, {r1, r2, r3, r5, r6, sl, sp, lr}^
    1010:	002e2e2f 	eoreq	r2, lr, pc, lsr #28
    1014:	6d656d00 	stclvs	13, cr6, [r5, #-0]
    1018:	7669645f 			; <UNDEFINED> instruction: 0x7669645f
    101c:	2e62696c 	cdpcs	9, 6, cr6, cr2, cr12, {3}
    1020:	00010053 	andeq	r0, r1, r3, asr r0
    1024:	05000000 	streq	r0, [r0, #-0]
    1028:	00227402 	eoreq	r7, r2, r2, lsl #8
    102c:	010e0300 	mrseq	r0, ELR_hyp
    1030:	2f302f2f 	svccs	0x00302f2f
    1034:	302f2f2f 	eorcc	r2, pc, pc, lsr #30
    1038:	2f2f342f 	svccs	0x002f342f
    103c:	2e00d503 	cfsh32cs	mvfx13, mvfx0, #3
    1040:	332f2f2f 			; <UNDEFINED> instruction: 0x332f2f2f
    1044:	2f2f2f2f 	svccs	0x002f2f2f
    1048:	02302f2f 	eorseq	r2, r0, #47, 30	; 0xbc
    104c:	302f142e 	eorcc	r1, pc, lr, lsr #8
    1050:	4c302f2f 	ldcmi	15, cr2, [r0], #-188	; 0xffffff44
    1054:	2f2f342f 	svccs	0x002f342f
    1058:	2f2f2f2f 	svccs	0x002f2f2f
    105c:	2f2f2f2f 	svccs	0x002f2f2f
    1060:	2e02302f 	cdpcs	0, 0, cr3, cr2, cr15, {1}
    1064:	302f2f14 	eorcc	r2, pc, r4, lsl pc	; <UNPREDICTABLE>
    1068:	2f302f2f 	svccs	0x00302f2f
    106c:	4c302f2f 	ldcmi	15, cr2, [r0], #-188	; 0xffffff44
    1070:	332f2f2f 			; <UNDEFINED> instruction: 0x332f2f2f
    1074:	2f2f2f2f 	svccs	0x002f2f2f
    1078:	2f2f332f 	svccs	0x002f332f
    107c:	022f2f2f 	eoreq	r2, pc, #47, 30	; 0xbc
    1080:	01010002 	tsteq	r1, r2
    1084:	00000090 	muleq	r0, r0, r0
    1088:	00640002 	rsbeq	r0, r4, r2
    108c:	01020000 	mrseq	r0, (UNDEF: 2)
    1090:	000d0efb 	strdeq	r0, [sp], -fp
    1094:	01010101 	tsteq	r1, r1, lsl #2
    1098:	01000000 	mrseq	r0, (UNDEF: 0)
    109c:	61010000 	mrsvs	r0, (UNDEF: 1)
    10a0:	2f686372 	svccs	0x00686372
    10a4:	2f6d7261 	svccs	0x006d7261
    10a8:	6863616d 	stmdavs	r3!, {r0, r2, r3, r5, r6, r8, sp, lr}^
    10ac:	6e75732d 	cdpvs	3, 7, cr7, cr5, cr13, {1}
    10b0:	702f6978 	eorvc	r6, pc, r8, ror r9	; <UNPREDICTABLE>
    10b4:	74732f6d 	ldrbtvc	r2, [r3], #-3949	; 0xfffff093
    10b8:	62646e61 	rsbvs	r6, r4, #1552	; 0x610
    10bc:	2e2e2f79 	mcrcs	15, 1, r2, cr14, cr9, {3}
    10c0:	656d0000 	strbvs	r0, [sp, #-0]!
    10c4:	69645f6d 	stmdbvs	r4!, {r0, r2, r3, r5, r6, r8, r9, sl, fp, ip, lr}^
    10c8:	62696c76 	rsbvs	r6, r9, #30208	; 0x7600
    10cc:	00632e63 	rsbeq	r2, r3, r3, ror #28
    10d0:	70000001 	andvc	r0, r0, r1
    10d4:	79745f6d 	ldmdbvc	r4!, {r0, r2, r3, r5, r6, r8, r9, sl, fp, ip, lr}^
    10d8:	2e736570 	mrccs	5, 3, r6, cr3, cr0, {3}
    10dc:	00010068 	andeq	r0, r1, r8, rrx
    10e0:	6d656d00 	stclvs	13, cr6, [r5, #-0]
    10e4:	6972705f 	ldmdbvs	r2!, {r0, r1, r2, r3, r4, r6, ip, sp, lr}^
    10e8:	2e6b746e 	cdpcs	4, 6, cr7, cr11, cr14, {3}
    10ec:	00010068 	andeq	r0, r1, r8, rrx
    10f0:	05000000 	streq	r0, [r0, #-0]
    10f4:	00245002 	eoreq	r5, r4, r2
    10f8:	010e0300 	mrseq	r0, ELR_hyp
    10fc:	50176a13 	andspl	r6, r7, r3, lsl sl
    1100:	31522b69 	cmpcc	r2, r9, ror #22
    1104:	2e780335 	mrccs	3, 3, r0, cr8, cr5, {1}
    1108:	2c32322f 	lfmcs	f3, 4, [r2], #-188	; 0xffffff44
    110c:	666a0330 			; <UNDEFINED> instruction: 0x666a0330
    1110:	022e1903 	eoreq	r1, lr, #49152	; 0xc000
    1114:	01010002 	tsteq	r1, r2
    1118:	00000122 	andeq	r0, r0, r2, lsr #2
    111c:	00910002 	addseq	r0, r1, r2
    1120:	01020000 	mrseq	r0, (UNDEF: 2)
    1124:	000d0efb 	strdeq	r0, [sp], -fp
    1128:	01010101 	tsteq	r1, r1, lsl #2
    112c:	01000000 	mrseq	r0, (UNDEF: 0)
    1130:	61010000 	mrsvs	r0, (UNDEF: 1)
    1134:	2f686372 	svccs	0x00686372
    1138:	2f6d7261 	svccs	0x006d7261
    113c:	6863616d 	stmdavs	r3!, {r0, r2, r3, r5, r6, r8, sp, lr}^
    1140:	6e75732d 	cdpvs	3, 7, cr7, cr5, cr13, {1}
    1144:	702f6978 	eorvc	r6, pc, r8, ror r9	; <UNPREDICTABLE>
    1148:	74732f6d 	ldrbtvc	r2, [r3], #-3949	; 0xfffff093
    114c:	62646e61 	rsbvs	r6, r4, #1552	; 0x610
    1150:	2e2e2f79 	mcrcs	15, 1, r2, cr14, cr9, {3}
    1154:	636e6900 	cmnvs	lr, #0, 18
    1158:	6564756c 	strbvs	r7, [r4, #-1388]!	; 0xfffffa94
    115c:	6e696c2f 	cdpvs	12, 6, cr6, cr9, cr15, {1}
    1160:	702f7875 	eorvc	r7, pc, r5, ror r8	; <UNPREDICTABLE>
    1164:	7265776f 	rsbvc	r7, r5, #29097984	; 0x1bc0000
    1168:	656d0000 	strbvs	r0, [sp, #-0]!
    116c:	6e695f6d 	cdpvs	15, 6, cr5, cr9, cr13, {3}
    1170:	00632e74 	rsbeq	r2, r3, r4, ror lr
    1174:	70000001 	andvc	r0, r0, r1
    1178:	79745f6d 	ldmdbvc	r4!, {r0, r2, r3, r5, r6, r8, r9, sl, fp, ip, lr}^
    117c:	2e736570 	mrccs	5, 3, r6, cr3, cr0, {3}
    1180:	00010068 	andeq	r0, r1, r8, rrx
    1184:	6d656d00 	stclvs	13, cr6, [r5, #-0]
    1188:	746e695f 	strbtvc	r6, [lr], #-2399	; 0xfffff6a1
    118c:	0100682e 	tsteq	r0, lr, lsr #16
    1190:	78610000 	stmdavc	r1!, {}^	; <UNPREDICTABLE>
    1194:	65645f70 	strbvs	r5, [r4, #-3952]!	; 0xfffff090
    1198:	646e6570 	strbtvs	r6, [lr], #-1392	; 0xfffffa90
    119c:	0200682e 	andeq	r6, r0, #3014656	; 0x2e0000
    11a0:	656d0000 	strbvs	r0, [sp, #-0]!
    11a4:	72705f6d 	rsbsvc	r5, r0, #436	; 0x1b4
    11a8:	6b746e69 	blvs	1d1cb54 <__bss_end+0x1d199d8>
    11ac:	0100682e 	tsteq	r0, lr, lsr #16
    11b0:	00000000 	andeq	r0, r0, r0
    11b4:	24b00205 	ldrtcs	r0, [r0], #517	; 0x205
    11b8:	22030000 	andcs	r0, r3, #0
    11bc:	0b031401 	bleq	c61c8 <__bss_end+0xc304c>
    11c0:	2e75034a 	cdpcs	3, 7, cr0, cr5, cr10, {2}
    11c4:	2f660b03 	svccs	0x00660b03
    11c8:	002e7403 	eoreq	r7, lr, r3, lsl #8
    11cc:	03030402 	movweq	r0, #13314	; 0x3402
    11d0:	02004a0c 	andeq	r4, r0, #12, 20	; 0xc000
    11d4:	002d0304 	eoreq	r0, sp, r4, lsl #6
    11d8:	03030402 	movweq	r0, #13314	; 0x3402
    11dc:	0200660b 	andeq	r6, r0, #11534336	; 0xb00000
    11e0:	00670304 	rsbeq	r0, r7, r4, lsl #6
    11e4:	49030402 	stmdbmi	r3, {r1, sl}
    11e8:	4c2c304e 	stcmi	0, cr3, [ip], #-312	; 0xfffffec8
    11ec:	2e5f034d 	cdpcs	3, 5, cr0, cr15, cr13, {2}
    11f0:	2d2e2103 	stfcss	f2, [lr, #-12]!
    11f4:	0f03332f 	svceq	0x0003332f
    11f8:	02006882 	andeq	r6, r0, #8519680	; 0x820000
    11fc:	00a20304 	adceq	r0, r2, r4, lsl #6
    1200:	67030402 	strvs	r0, [r3, -r2, lsl #8]
    1204:	03040200 	movweq	r0, #16896	; 0x4200
    1208:	0f035080 	svceq	0x00035080
    120c:	7a031966 	bvc	c77ac <__bss_end+0xc4630>
    1210:	038a312e 	orreq	r3, sl, #-2147483637	; 0x8000000b
    1214:	03362e78 	teqeq	r6, #120, 28	; 0x780
    1218:	0a032e76 	beq	ccbf8 <__bss_end+0xc9a7c>
    121c:	7a036c2e 	bvc	dc2dc <__bss_end+0xd9160>
    1220:	51322a2e 	teqpl	r2, lr, lsr #20
    1224:	172e0f03 	strne	r0, [lr, -r3, lsl #30]!
    1228:	31472b31 	cmpcc	r7, r1, lsr fp
    122c:	3231302c 	eorscc	r3, r1, #44	; 0x2c
    1230:	03332987 	teqeq	r3, #2211840	; 0x21c000
    1234:	09038278 	stmdbeq	r3, {r3, r4, r5, r6, r9, pc}
    1238:	0002022e 	andeq	r0, r2, lr, lsr #4
    123c:	00a10101 	adceq	r0, r1, r1, lsl #2
    1240:	00020000 	andeq	r0, r2, r0
    1244:	0000005f 	andeq	r0, r0, pc, asr r0
    1248:	0efb0102 	cdpeq	1, 15, cr0, cr11, cr2, {0}
    124c:	0101000d 	tsteq	r1, sp
    1250:	00000101 	andeq	r0, r0, r1, lsl #2
    1254:	00000100 	andeq	r0, r0, r0, lsl #2
    1258:	63726101 	cmnvs	r2, #1073741824	; 0x40000000
    125c:	72612f68 	rsbvc	r2, r1, #104, 30	; 0x1a0
    1260:	616d2f6d 	cmnvs	sp, sp, ror #30
    1264:	732d6863 			; <UNDEFINED> instruction: 0x732d6863
    1268:	69786e75 	ldmdbvs	r8!, {r0, r2, r4, r5, r6, r9, sl, fp, sp, lr}^
    126c:	2f6d702f 	svccs	0x006d702f
    1270:	6e617473 	mcrvs	4, 3, r7, cr1, cr3, {3}
    1274:	2f796264 	svccs	0x00796264
    1278:	00002e2e 	andeq	r2, r0, lr, lsr #28
    127c:	5f6d656d 	svcpl	0x006d656d
    1280:	6f697067 	svcvs	0x00697067
    1284:	0100632e 	tsteq	r0, lr, lsr #6
    1288:	6d700000 	ldclvs	0, cr0, [r0, #-0]
    128c:	7079745f 	rsbsvc	r7, r9, pc, asr r4
    1290:	682e7365 	stmdavs	lr!, {r0, r2, r5, r6, r8, r9, ip, sp, lr}
    1294:	00000100 	andeq	r0, r0, r0, lsl #2
    1298:	5f6d656d 	svcpl	0x006d656d
    129c:	6f697067 	svcvs	0x00697067
    12a0:	0100682e 	tsteq	r0, lr, lsr #16
    12a4:	00000000 	andeq	r0, r0, r0
    12a8:	26300205 	ldrtcs	r0, [r0], -r5, lsl #4
    12ac:	1a030000 	bne	c12b4 <__bss_end+0xbe138>
    12b0:	46320101 	ldrtmi	r0, [r2], -r1, lsl #2
    12b4:	04020032 	streq	r0, [r2], #-50	; 0xffffffce
    12b8:	02002f03 	andeq	r2, r0, #3, 30
    12bc:	002d0304 	eoreq	r0, sp, r4, lsl #6
    12c0:	2f030402 	svccs	0x00030402
    12c4:	03040200 	movweq	r0, #16896	; 0x4200
    12c8:	0e03322d 	cdpeq	2, 0, cr3, cr3, cr13, {1}
    12cc:	4632014a 	ldrtmi	r0, [r2], -sl, asr #2
    12d0:	04020032 	streq	r0, [r2], #-50	; 0xffffffce
    12d4:	02002f03 	andeq	r2, r0, #3, 30
    12d8:	03490304 	movteq	r0, #37636	; 0x9304
    12dc:	04024a0c 	streq	r4, [r2], #-2572	; 0xfffff5f4
    12e0:	fc010100 	stc2	1, cr0, [r1], {-0}
    12e4:	02000000 	andeq	r0, r0, #0
    12e8:	00008100 	andeq	r8, r0, r0, lsl #2
    12ec:	fb010200 	blx	41af6 <__bss_end+0x3e97a>
    12f0:	01000d0e 	tsteq	r0, lr, lsl #26
    12f4:	00010101 	andeq	r0, r1, r1, lsl #2
    12f8:	00010000 	andeq	r0, r1, r0
    12fc:	72610100 	rsbvc	r0, r1, #0, 2
    1300:	612f6863 			; <UNDEFINED> instruction: 0x612f6863
    1304:	6d2f6d72 	stcvs	13, cr6, [pc, #-456]!	; 1144 <__save_processor_state+0x394>
    1308:	2d686361 	stclcs	3, cr6, [r8, #-388]!	; 0xfffffe7c
    130c:	786e7573 	stmdavc	lr!, {r0, r1, r4, r5, r6, r8, sl, ip, sp, lr}^
    1310:	6d702f69 	ldclvs	15, cr2, [r0, #-420]!	; 0xfffffe5c
    1314:	6174732f 	cmnvs	r4, pc, lsr #6
    1318:	7962646e 	stmdbvc	r2!, {r1, r2, r3, r5, r6, sl, sp, lr}^
    131c:	002e2e2f 	eoreq	r2, lr, pc, lsr #28
    1320:	6c636e69 	stclvs	14, cr6, [r3], #-420	; 0xfffffe5c
    1324:	2f656475 	svccs	0x00656475
    1328:	756e696c 	strbvc	r6, [lr, #-2412]!	; 0xfffff694
    132c:	6f702f78 	svcvs	0x00702f78
    1330:	00726577 	rsbseq	r6, r2, r7, ror r5
    1334:	6d656d00 	stclvs	13, cr6, [r5, #-0]
    1338:	726d745f 	rsbvc	r7, sp, #1593835520	; 0x5f000000
    133c:	0100632e 	tsteq	r0, lr, lsr #6
    1340:	6d700000 	ldclvs	0, cr0, [r0, #-0]
    1344:	7079745f 	rsbsvc	r7, r9, pc, asr r4
    1348:	682e7365 	stmdavs	lr!, {r0, r2, r5, r6, r8, r9, ip, sp, lr}
    134c:	00000100 	andeq	r0, r0, r0, lsl #2
    1350:	5f6d656d 	svcpl	0x006d656d
    1354:	2e726d74 	mrccs	13, 3, r6, cr2, cr4, {3}
    1358:	00010068 	andeq	r0, r1, r8, rrx
    135c:	70786100 	rsbsvc	r6, r8, r0, lsl #2
    1360:	7065645f 	rsbvc	r6, r5, pc, asr r4
    1364:	2e646e65 	cdpcs	14, 6, cr6, cr4, cr5, {3}
    1368:	00020068 	andeq	r0, r2, r8, rrx
    136c:	05000000 	streq	r0, [r0, #-0]
    1370:	00268802 	eoreq	r8, r6, r2, lsl #16
    1374:	011c0300 	tsteq	ip, r0, lsl #6
    1378:	2b346315 	blcs	d19fd4 <__bss_end+0xd16e58>
    137c:	034a0c03 	movteq	r0, #44035	; 0xac03
    1380:	4b2f2e77 	blmi	bccd64 <__bss_end+0xbc9be8>
    1384:	4b4b4b4b 	blmi	12d40b8 <__bss_end+0x12d0f3c>
    1388:	2e0f034d 	cdpcs	3, 0, cr0, cr15, cr13, {2}
    138c:	03306414 	teqeq	r0, #20, 8	; 0x14000000
    1390:	77032e09 	strvc	r2, [r3, -r9, lsl #28]
    1394:	4b4b2f2e 	blmi	12cd054 <__bss_end+0x12c9ed8>
    1398:	4d4b4b4b 	vstrmi	d20, [fp, #-300]	; 0xfffffed4
    139c:	142e0f03 	strtne	r0, [lr], #-3843	; 0xfffff0fd
    13a0:	79033384 	stmdbvc	r3, {r2, r7, r8, r9, ip, sp}
    13a4:	4b2f302e 	blmi	bcd464 <__bss_end+0xbca2e8>
    13a8:	2e0f034d 	cdpcs	3, 0, cr0, cr15, cr13, {2}
    13ac:	4b293313 	blmi	a4e000 <__bss_end+0xa4ae84>
    13b0:	2f2f2c2f 	svccs	0x002f2c2f
    13b4:	2e120331 	mrccs	3, 0, r0, cr2, cr1, {1}
    13b8:	9f2b3115 	svcls	0x002b3115
    13bc:	03693168 	cmneq	r9, #104, 2
    13c0:	bb148215 	bllt	521c1c <__bss_end+0x51eaa0>
    13c4:	12036969 	andne	r6, r3, #1720320	; 0x1a4000
    13c8:	2a321482 	bcs	c865d8 <__bss_end+0xc8345c>
    13cc:	2e78036c 	cdpcs	3, 7, cr0, cr8, cr12, {3}
    13d0:	0b032935 	bleq	cb8ac <__bss_end+0xc8730>
    13d4:	2e76032e 	cdpcs	3, 7, cr0, cr6, cr14, {1}
    13d8:	2f2f2f31 	svccs	0x002f2f31
    13dc:	02026967 	andeq	r6, r2, #1687552	; 0x19c000
    13e0:	19010100 	stmdbne	r1, {r8}
    13e4:	02000000 	andeq	r0, r0, #0
    13e8:	00001300 	andeq	r1, r0, r0, lsl #6
    13ec:	fb010200 	blx	41bf6 <__bss_end+0x3ea7a>
    13f0:	01000d0e 	tsteq	r0, lr, lsl #26
    13f4:	00010101 	andeq	r0, r1, r1, lsl #2
    13f8:	00010000 	andeq	r0, r1, r0
    13fc:	00000100 	andeq	r0, r0, r0, lsl #2
    1400:	00000019 	andeq	r0, r0, r9, lsl r0
    1404:	00130002 	andseq	r0, r3, r2
    1408:	01020000 	mrseq	r0, (UNDEF: 2)
    140c:	000d0efb 	strdeq	r0, [sp], -fp
    1410:	01010101 	tsteq	r1, r1, lsl #2
    1414:	01000000 	mrseq	r0, (UNDEF: 0)
    1418:	00010000 	andeq	r0, r1, r0
    141c:	0001cb00 	andeq	ip, r1, r0, lsl #22
    1420:	ba000200 	blt	1c28 <itoa.constprop.0+0xa0>
    1424:	02000000 	andeq	r0, r0, #0
    1428:	0d0efb01 	vstreq	d15, [lr, #-4]
    142c:	01010100 	mrseq	r0, (UNDEF: 17)
    1430:	00000001 	andeq	r0, r0, r1
    1434:	01000001 	tsteq	r0, r1
    1438:	68637261 	stmdavs	r3!, {r0, r5, r6, r9, ip, sp, lr}^
    143c:	6d72612f 	ldfvse	f6, [r2, #-188]!	; 0xffffff44
    1440:	63616d2f 	cmnvs	r1, #3008	; 0xbc0
    1444:	75732d68 	ldrbvc	r2, [r3, #-3432]!	; 0xfffff298
    1448:	2f69786e 	svccs	0x0069786e
    144c:	732f6d70 			; <UNDEFINED> instruction: 0x732f6d70
    1450:	646e6174 	strbtvs	r6, [lr], #-372	; 0xfffffe8c
    1454:	2e2f7962 	cdpcs	9, 2, cr7, cr15, cr2, {3}
    1458:	6e69002e 	cdpvs	0, 6, cr0, cr9, cr14, {1}
    145c:	64756c63 	ldrbtvs	r6, [r5], #-3171	; 0xfffff39d
    1460:	696c2f65 	stmdbvs	ip!, {r0, r2, r5, r6, r8, r9, sl, fp, sp}^
    1464:	2f78756e 	svccs	0x0078756e
    1468:	65776f70 	ldrbvs	r6, [r7, #-3952]!	; 0xfffff090
    146c:	6d000072 	stcvs	0, cr0, [r0, #-456]	; 0xfffffe38
    1470:	635f6d65 	cmpvs	pc, #6464	; 0x1940
    1474:	632e6b6c 			; <UNDEFINED> instruction: 0x632e6b6c
    1478:	00000100 	andeq	r0, r0, r0, lsl #2
    147c:	745f6d70 	ldrbvc	r6, [pc], #-3440	; 1484 <disable_cache_invalidate+0xc>
    1480:	73657079 	cmnvc	r5, #121	; 0x79
    1484:	0100682e 	tsteq	r0, lr, lsr #16
    1488:	656d0000 	strbvs	r0, [sp, #-0]!
    148c:	63635f6d 	cmnvs	r3, #436	; 0x1b4
    1490:	732d756d 			; <UNDEFINED> instruction: 0x732d756d
    1494:	69386e75 	ldmdbvs	r8!, {r0, r2, r4, r5, r6, r9, sl, fp, sp, lr}
    1498:	31703577 	cmncc	r0, r7, ror r5
    149c:	0100682e 	tsteq	r0, lr, lsr #16
    14a0:	656d0000 	strbvs	r0, [sp, #-0]!
    14a4:	6c635f6d 	stclvs	15, cr5, [r3], #-436	; 0xfffffe4c
    14a8:	00682e6b 	rsbeq	r2, r8, fp, ror #28
    14ac:	6d000001 	stcvs	0, cr0, [r0, #-4]
    14b0:	745f6d65 	ldrbvc	r6, [pc], #-3429	; 14b8 <set_copro_default+0x28>
    14b4:	6e696d69 	cdpvs	13, 6, cr6, cr9, cr9, {3}
    14b8:	00682e67 	rsbeq	r2, r8, r7, ror #28
    14bc:	6d000001 	stcvs	0, cr0, [r0, #-4]
    14c0:	645f6d65 	ldrbvs	r6, [pc], #-3429	; 14c8 <set_copro_default+0x38>
    14c4:	696c7669 	stmdbvs	ip!, {r0, r3, r5, r6, r9, sl, ip, sp, lr}^
    14c8:	682e6362 	stmdavs	lr!, {r1, r5, r6, r8, r9, sp, lr}
    14cc:	00000100 	andeq	r0, r0, r0, lsl #2
    14d0:	5f707861 	svcpl	0x00707861
    14d4:	65706564 	ldrbvs	r6, [r0, #-1380]!	; 0xfffffa9c
    14d8:	682e646e 	stmdavs	lr!, {r1, r2, r3, r5, r6, sl, sp, lr}
    14dc:	00000200 	andeq	r0, r0, r0, lsl #4
    14e0:	02050000 	andeq	r0, r5, #0
    14e4:	00002868 	andeq	r2, r0, r8, ror #16
    14e8:	13012003 	movwne	r2, #4099	; 0x1003
    14ec:	302c302f 	eorcc	r3, ip, pc, lsr #32
    14f0:	302c302c 	eorcc	r3, ip, ip, lsr #32
    14f4:	2e11036a 	cdpcs	3, 1, cr0, cr1, cr10, {3}
    14f8:	24034b14 	strcs	r4, [r3], #-2836	; 0xfffff4ec
    14fc:	3265134a 	rsbcc	r1, r5, #671088641	; 0x28000001
    1500:	7803522b 	stmdavc	r3, {r0, r1, r3, r5, r9, ip, lr}
    1504:	4b2f312e 	blmi	bcd9c4 <__bss_end+0xbca848>
    1508:	2e12034d 	cdpcs	3, 1, cr0, cr2, cr13, {2}
    150c:	76035214 			; <UNDEFINED> instruction: 0x76035214
    1510:	0d03302e 	stceq	0, cr3, [r3, #-184]	; 0xffffff48
    1514:	2e73032e 	cdpcs	3, 7, cr0, cr3, cr14, {1}
    1518:	4d4b2f36 	stclmi	15, cr2, [fp, #-216]	; 0xffffff28
    151c:	132e0f03 			; <UNDEFINED> instruction: 0x132e0f03
    1520:	0a033349 	beq	ce24c <__bss_end+0xcb0d0>
    1524:	2e7903ba 	mrccs	3, 3, r0, cr9, cr10, {5}
    1528:	4b2f2d2f 	blmi	bcc9ec <__bss_end+0xbc9870>
    152c:	4b30834e 	blmi	c2226c <__bss_end+0xc1f0f0>
    1530:	03322f2d 	teqeq	r2, #45, 30	; 0xb4
    1534:	23034a6c 	movwcs	r4, #14956	; 0x3a6c
    1538:	7e4d134a 	cdpvc	3, 4, cr1, cr13, cr10, {2}
    153c:	292e0903 	stmdbcs	lr!, {r0, r1, r8, fp}
    1540:	30492f2f 	subcc	r2, r9, pc, lsr #30
    1544:	2e79034c 	cdpcs	3, 7, cr0, cr9, cr12, {2}
    1548:	134a1803 	movtne	r1, #43011	; 0xa803
    154c:	032f2e81 			; <UNDEFINED> instruction: 0x032f2e81
    1550:	6e032e13 	mcrvs	14, 0, r2, cr3, cr3, {0}
    1554:	2c30322e 	lfmcs	f3, 4, [r0], #-184	; 0xffffff48
    1558:	3133322a 	teqcc	r3, sl, lsr #4
    155c:	342e7a03 	strtcc	r7, [lr], #-2563	; 0xfffff5fd
    1560:	2c2e7a03 	stccs	10, cr7, [lr], #-12
    1564:	312b3133 			; <UNDEFINED> instruction: 0x312b3133
    1568:	0f034f2f 	svceq	0x00034f2f
    156c:	2e81132e 	cdpcs	3, 8, cr1, cr1, cr14, {1}
    1570:	2e11032f 	cdpcs	3, 1, cr0, cr1, cr15, {1}
    1574:	2f2e7003 	svccs	0x002e7003
    1578:	032e0a03 			; <UNDEFINED> instruction: 0x032e0a03
    157c:	2f2a2e79 	svccs	0x002a2e79
    1580:	2a2b3531 	bcs	acea4c <__bss_end+0xacb8d0>
    1584:	0e033632 	mcreq	6, 0, r3, cr3, cr2, {1}
    1588:	812c312e 			; <UNDEFINED> instruction: 0x812c312e
    158c:	032e3203 			; <UNDEFINED> instruction: 0x032e3203
    1590:	34032e4f 	strcc	r2, [r3], #-3663	; 0xfffff1b1
    1594:	2e4e032e 	cdpcs	3, 4, cr0, cr14, cr14, {1}
    1598:	032e3503 			; <UNDEFINED> instruction: 0x032e3503
    159c:	4b4e2e4e 	blmi	138cedc <__bss_end+0x1389d60>
    15a0:	4b4b4b4b 	blmi	12d42d4 <__bss_end+0x12d1158>
    15a4:	4b4a2203 	blmi	1289db8 <__bss_end+0x1286c3c>
    15a8:	4c674c4b 	stclmi	12, cr4, [r7], #-300	; 0xfffffed4
    15ac:	132e0f03 			; <UNDEFINED> instruction: 0x132e0f03
    15b0:	032d3065 			; <UNDEFINED> instruction: 0x032d3065
    15b4:	51034a30 	tstpl	r3, r0, lsr sl
    15b8:	2303302e 	movwcs	r3, #12334	; 0x302e
    15bc:	4b4b4b4a 	blmi	12d42ec <__bss_end+0x12d1170>
    15c0:	034f4b4b 	movteq	r4, #64331	; 0xfb4b
    15c4:	851a2e2f 	ldrhi	r2, [sl, #-3631]	; 0xfffff1d1
    15c8:	30322a2f 	eorscc	r2, r2, pc, lsr #20
    15cc:	4a70034c 	bmi	1c02304 <__bss_end+0x1bff188>
    15d0:	032e1b03 			; <UNDEFINED> instruction: 0x032e1b03
    15d4:	62352e79 	eorsvs	r2, r5, #1936	; 0x790
    15d8:	82790332 	rsbshi	r0, r9, #-939524096	; 0xc8000000
    15dc:	7a035035 	bvc	d56b8 <__bss_end+0xd253c>
    15e0:	4a77032e 	bmi	1dc22a0 <__bss_end+0x1dbf124>
    15e4:	022e0f03 	eoreq	r0, lr, #3, 30
    15e8:	01010002 	tsteq	r1, r2

Disassembly of section .debug_str:

00000000 <.debug_str>:
       0:	20554e47 	subscs	r4, r5, r7, asr #28
       4:	20313143 	eorscs	r3, r1, r3, asr #2
       8:	2e322e35 	mrccs	14, 1, r2, cr2, cr5, {1}
       c:	6d2d2030 	stcvs	0, cr2, [sp, #-192]!	; 0xffffff40
      10:	7474696c 	ldrbtvc	r6, [r4], #-2412	; 0xfffff694
      14:	652d656c 	strvs	r6, [sp, #-1388]!	; 0xfffffa94
      18:	6169646e 	cmnvs	r9, lr, ror #8
      1c:	6d2d206e 	stcvs	0, cr2, [sp, #-440]!	; 0xfffffe48
      20:	68637261 	stmdavs	r3!, {r0, r5, r6, r9, ip, sp, lr}^
      24:	6d72613d 	ldfvse	f6, [r2, #-244]!	; 0xffffff0c
      28:	612d3776 			; <UNDEFINED> instruction: 0x612d3776
      2c:	616d2d20 	cmnvs	sp, r0, lsr #26
      30:	2d206d72 	stccs	13, cr6, [r0, #-456]!	; 0xfffffe38
      34:	74696c6d 	strbtvc	r6, [r9], #-3181	; 0xfffff393
      38:	2d656c74 	stclcs	12, cr6, [r5, #-464]!	; 0xfffffe30
      3c:	69646e65 	stmdbvs	r4!, {r0, r2, r5, r6, r9, sl, fp, sp, lr}^
      40:	2d206e61 	stccs	14, cr6, [r0, #-388]!	; 0xfffffe7c
      44:	2d6f6e6d 	stclcs	14, cr6, [pc, #-436]!	; fffffe98 <__bss_end+0xffffcd1c>
      48:	6c616e75 	stclvs	14, cr6, [r1], #-468	; 0xfffffe2c
      4c:	656e6769 	strbvs	r6, [lr, #-1897]!	; 0xfffff897
      50:	63612d64 	cmnvs	r1, #100, 26	; 0x1900
      54:	73736563 	cmnvc	r3, #415236096	; 0x18c00000
      58:	666d2d20 	strbtvs	r2, [sp], -r0, lsr #26
      5c:	74616f6c 	strbtvc	r6, [r1], #-3948	; 0xfffff094
      60:	6962612d 	stmdbvs	r2!, {r0, r2, r3, r5, r8, sp, lr}^
      64:	7261683d 	rsbvc	r6, r1, #3997696	; 0x3d0000
      68:	6d2d2064 	stcvs	0, cr2, [sp, #-400]!	; 0xfffffe70
      6c:	2d736c74 	ldclcs	12, cr6, [r3, #-464]!	; 0xfffffe30
      70:	6c616964 	stclvs	9, cr6, [r1], #-400	; 0xfffffe70
      74:	3d746365 	ldclcc	3, cr6, [r4, #-404]!	; 0xfffffe6c
      78:	20756e67 	rsbscs	r6, r5, r7, ror #28
      7c:	2d20672d 	stccs	7, cr6, [r0, #-180]!	; 0xffffff4c
      80:	2d20324f 	sfmcs	f3, 4, [r0, #-316]!	; 0xfffffec4
      84:	2d6f6e66 	stclcs	14, cr6, [pc, #-408]!	; fffffef4 <__bss_end+0xffffcd78>
      88:	69776e75 	ldmdbvs	r7!, {r0, r2, r4, r5, r6, r9, sl, fp, sp, lr}^
      8c:	742d646e 	strtvc	r6, [sp], #-1134	; 0xfffffb92
      90:	656c6261 	strbvs	r6, [ip, #-609]!	; 0xfffffd9f
      94:	662d2073 			; <UNDEFINED> instruction: 0x662d2073
      98:	612d6f6e 			; <UNDEFINED> instruction: 0x612d6f6e
      9c:	636e7973 	cmnvs	lr, #1884160	; 0x1cc000
      a0:	6e6f7268 	cdpvs	2, 6, cr7, cr15, cr8, {3}
      a4:	2d73756f 	cfldr64cs	mvdx7, [r3, #-444]!	; 0xfffffe44
      a8:	69776e75 	ldmdbvs	r7!, {r0, r2, r4, r5, r6, r9, sl, fp, sp, lr}^
      ac:	742d646e 	strtvc	r6, [sp], #-1134	; 0xfffffb92
      b0:	656c6261 	strbvs	r6, [ip, #-609]!	; 0xfffffd9f
      b4:	525f0073 	subspl	r0, pc, #115	; 0x73
      b8:	6d757365 	ldclvs	3, cr7, [r5, #-404]!	; 0xfffffe6c
      bc:	69665f65 	stmdbvs	r6!, {r0, r2, r5, r6, r8, r9, sl, fp, ip, lr}^
      c0:	685f656c 	ldmdavs	pc, {r2, r3, r5, r6, r8, sl, sp, lr}^	; <UNPREDICTABLE>
      c4:	00646165 	rsbeq	r6, r4, r5, ror #2
      c8:	5f434356 	svcpl	0x00434356
      cc:	5f434441 	svcpl	0x00434441
      d0:	00544942 	subseq	r4, r4, r2, asr #18
      d4:	5f444456 	svcpl	0x00444456
      d8:	41555043 	cmpmi	r5, r3, asr #32
      dc:	5449425f 	strbpl	r4, [r9], #-607	; 0xfffffda1
      e0:	43435600 	movtmi	r5, #13824	; 0x3600
      e4:	4152445f 	cmpmi	r2, pc, asr r4
      e8:	49425f4d 	stmdbmi	r2, {r0, r2, r3, r6, r8, r9, sl, fp, ip, lr}^
      ec:	44560054 	ldrbmi	r0, [r6], #-84	; 0xffffffac
      f0:	45525f44 	ldrbmi	r5, [r2, #-3908]	; 0xfffff0bc
      f4:	425f3353 	subsmi	r3, pc, #1275068417	; 0x4c000001
      f8:	56005449 	strpl	r5, [r0], -r9, asr #8
      fc:	505f4343 	subspl	r4, pc, r3, asr #6
     100:	49425f4c 	stmdbmi	r2, {r2, r3, r6, r8, r9, sl, fp, ip, lr}^
     104:	44560054 	ldrbmi	r0, [r6], #-84	; 0xffffffac
     108:	50475f44 	subpl	r5, r7, r4, asr #30
     10c:	49425f55 	stmdbmi	r2, {r0, r2, r4, r6, r8, r9, sl, fp, ip, lr}^
     110:	6e750054 	mrcvs	0, 3, r0, cr5, cr4, {2}
     114:	6e676973 	mcrvs	9, 3, r6, cr7, cr3, {3}
     118:	63206465 			; <UNDEFINED> instruction: 0x63206465
     11c:	00726168 	rsbseq	r6, r2, r8, ror #2
     120:	4e4f4765 	cdpmi	7, 4, cr4, cr15, cr5, {3}
     124:	6e73765f 	mrcvs	6, 3, r7, cr3, cr15, {2}
     128:	44445600 	strbmi	r5, [r4], #-1536	; 0xfffffa00
     12c:	5550435f 	ldrbpl	r4, [r0, #-863]	; 0xfffffca1
     130:	49425f42 	stmdbmi	r2, {r1, r6, r8, r9, sl, fp, ip, lr}^
     134:	68730054 	ldmdavs	r3!, {r2, r4, r6}^
     138:	2074726f 	rsbscs	r7, r4, pc, ror #4
     13c:	69736e75 	ldmdbvs	r3!, {r0, r2, r4, r5, r6, r9, sl, fp, sp, lr}^
     140:	64656e67 	strbtvs	r6, [r5], #-3687	; 0xfffff199
     144:	746e6920 	strbtvc	r6, [lr], #-2336	; 0xfffff6e0
     148:	73655200 	cmnvc	r5, #0, 4
     14c:	5f656d75 	svcpl	0x00656d75
     150:	006e7376 	rsbeq	r7, lr, r6, ror r3
     154:	63656863 	cmnvs	r5, #6488064	; 0x630000
     158:	75735f6b 	ldrbvc	r5, [r3, #-3947]!	; 0xfffff095
     15c:	7570006d 	ldrbvc	r0, [r0, #-109]!	; 0xffffff93
     160:	65685f62 	strbvs	r5, [r8, #-3938]!	; 0xfffff09e
     164:	735f6461 	cmpvc	pc, #1627389952	; 0x61000000
     168:	00657a69 	rsbeq	r7, r5, r9, ror #20
     16c:	75736572 	ldrbvc	r6, [r3, #-1394]!	; 0xfffffa8e
     170:	685f656d 	ldmdavs	pc, {r0, r2, r3, r5, r6, r8, sl, sp, lr}^	; <UNPREDICTABLE>
     174:	00646165 	rsbeq	r6, r4, r5, ror #2
     178:	706d756a 	rsbvc	r7, sp, sl, ror #10
     17c:	736e695f 	cmnvc	lr, #1556480	; 0x17c000
     180:	63757274 	cmnvs	r5, #116, 4	; 0x40000007
     184:	6e6f6974 	mcrvs	9, 3, r6, cr15, cr4, {3}
     188:	44445600 	strbmi	r5, [r4], #-1536	; 0xfffffa00
     18c:	5550435f 	ldrbpl	r4, [r0, #-863]	; 0xfffffca1
     190:	49425f53 	stmdbmi	r2, {r0, r1, r4, r6, r8, r9, sl, fp, ip, lr}^
     194:	682f0054 	stmdavs	pc!, {r2, r4, r6}	; <UNPREDICTABLE>
     198:	2f656d6f 	svccs	0x00656d6f
     19c:	6c72616b 	ldfvse	f6, [r2], #-428	; 0xfffffe54
     1a0:	2f65656c 	svccs	0x0065656c
     1a4:	69776c61 	ldmdbvs	r7!, {r0, r5, r6, sl, fp, sp, lr}^
     1a8:	72656e6e 	rsbvc	r6, r5, #1760	; 0x6e0
     1ac:	4950422f 	ldmdbmi	r0, {r0, r1, r2, r3, r5, r9, lr}^
     1b0:	4d324d2d 	ldcmi	13, cr4, [r2, #-180]!	; 0xffffff4c
     1b4:	7073622d 	rsbsvc	r6, r3, sp, lsr #4
     1b8:	6e696c2f 	cdpvs	12, 6, cr6, cr9, cr15, {1}
     1bc:	732d7875 			; <UNDEFINED> instruction: 0x732d7875
     1c0:	69786e75 	ldmdbvs	r8!, {r0, r2, r4, r5, r6, r9, sl, fp, sp, lr}^
     1c4:	43435600 	movtmi	r5, #13824	; 0x3600
     1c8:	5f4d505f 	svcpl	0x004d505f
     1cc:	00544942 	subseq	r4, r4, r2, asr #18
     1d0:	5f444456 	svcpl	0x00444456
     1d4:	5f555056 	svcpl	0x00555056
     1d8:	00544942 	subseq	r4, r4, r2, asr #18
     1dc:	676e6f6c 	strbvs	r6, [lr, -ip, ror #30]!
     1e0:	6e6f6c20 	cdpvs	12, 6, cr6, cr15, cr0, {1}
     1e4:	6e752067 	cdpvs	0, 7, cr2, cr5, cr7, {3}
     1e8:	6e676973 	mcrvs	9, 3, r6, cr7, cr3, {3}
     1ec:	69206465 	stmdbvs	r0!, {r0, r2, r5, r6, sl, sp, lr}
     1f0:	5600746e 	strpl	r7, [r0], -lr, ror #8
     1f4:	445f4444 	ldrbmi	r4, [pc], #-1092	; 1fc <resume1_c_part+0xc8>
     1f8:	504d4152 	subpl	r4, sp, r2, asr r1
     1fc:	425f4c4c 	subsmi	r4, pc, #76, 24	; 0x4c00
     200:	56005449 	strpl	r5, [r0], -r9, asr #8
     204:	435f4343 	cmpmi	pc, #201326593	; 0xc000001
     208:	44445650 	strbmi	r5, [r4], #-1616	; 0xfffff9b0
     20c:	5449425f 	strbpl	r4, [r9], #-607	; 0xfffffda1
     210:	6c696600 	stclvs	6, cr6, [r9], #-0
     214:	65685f65 	strbvs	r5, [r8, #-3941]!	; 0xfffff09b
     218:	765f6461 	ldrbvc	r6, [pc], -r1, ror #8
     21c:	56006e73 			; <UNDEFINED> instruction: 0x56006e73
     220:	4c5f4343 	mrrcmi	3, 4, r4, pc, cr3	; <UNPREDICTABLE>
     224:	4e494f44 	cdpmi	15, 4, cr4, cr9, cr4, {2}
     228:	5449425f 	strbpl	r4, [r9], #-607	; 0xfffffda1
     22c:	7a697300 	bvc	1a5ce34 <__bss_end+0x1a59cb8>
     230:	70797465 	rsbsvc	r7, r9, r5, ror #8
     234:	6f6c0065 	svcvs	0x006c0065
     238:	6c20676e 	stcvs	7, cr6, [r0], #-440	; 0xfffffe48
     23c:	20676e6f 	rsbcs	r6, r7, pc, ror #28
     240:	00746e69 	rsbseq	r6, r4, r9, ror #28
     244:	5f444456 	svcpl	0x00444456
     248:	31534552 	cmpcc	r3, r2, asr r5
     24c:	5449425f 	strbpl	r4, [r9], #-607	; 0xfffffda1
     250:	44445600 	strbmi	r5, [r4], #-1536	; 0xfffffa00
     254:	5359535f 	cmppl	r9, #2080374785	; 0x7c000001
     258:	5449425f 	strbpl	r4, [r9], #-607	; 0xfffffda1
     25c:	43435600 	movtmi	r5, #13824	; 0x3600
     260:	44504c5f 	ldrbmi	r4, [r0], #-3167	; 0xfffff3a1
     264:	425f5244 	subsmi	r5, pc, #68, 4	; 0x40000004
     268:	56005449 	strpl	r5, [r0], -r9, asr #8
     26c:	495f4343 	ldmdbmi	pc, {r0, r1, r6, r8, r9, lr}^	; <UNPREDICTABLE>
     270:	49425f4f 	stmdbmi	r2, {r0, r1, r2, r3, r6, r8, r9, sl, fp, ip, lr}^
     274:	68730054 	ldmdavs	r3!, {r2, r4, r6}^
     278:	2074726f 	rsbscs	r7, r4, pc, ror #4
     27c:	00746e69 	rsbseq	r6, r4, r9, ror #28
     280:	75736572 	ldrbvc	r6, [r3, #-1394]!	; 0xfffffa8e
     284:	665f656d 	ldrbvs	r6, [pc], -sp, ror #10
     288:	5f656c69 	svcpl	0x00656c69
     28c:	64616568 	strbtvs	r6, [r1], #-1384	; 0xfffffa98
     290:	6100745f 	tstvs	r0, pc, asr r4
     294:	2f686372 	svccs	0x00686372
     298:	2f6d7261 	svccs	0x006d7261
     29c:	6863616d 	stmdavs	r3!, {r0, r2, r3, r5, r6, r8, sp, lr}^
     2a0:	6e75732d 	cdpvs	3, 7, cr7, cr5, cr13, {1}
     2a4:	702f6978 	eorvc	r6, pc, r8, ror r9	; <UNPREDICTABLE>
     2a8:	74732f6d 	ldrbtvc	r2, [r3], #-3949	; 0xfffff093
     2ac:	62646e61 	rsbvs	r6, r4, #1552	; 0x610
     2b0:	75732f79 	ldrbvc	r2, [r3, #-3961]!	; 0xfffff087
     2b4:	2f726570 	svccs	0x00726570
     2b8:	75736572 	ldrbvc	r6, [r3, #-1394]!	; 0xfffffa8e
     2bc:	722f656d 	eorvc	r6, pc, #457179136	; 0x1b400000
     2c0:	6d757365 	ldclvs	3, cr7, [r5, #-404]!	; 0xfffffe6c
     2c4:	65685f65 	strbvs	r5, [r8, #-3941]!	; 0xfffff09b
     2c8:	632e6461 			; <UNDEFINED> instruction: 0x632e6461
     2cc:	43435600 	movtmi	r5, #13824	; 0x3600
     2d0:	58414d5f 	stmdapl	r1, {r0, r1, r2, r3, r4, r6, r8, sl, fp, lr}^
     2d4:	444e495f 	strbmi	r4, [lr], #-2399	; 0xfffff6a1
     2d8:	70005845 	andvc	r5, r0, r5, asr #16
     2dc:	685f6275 	ldmdavs	pc, {r0, r2, r4, r5, r6, r9, sp, lr}^	; <UNPREDICTABLE>
     2e0:	5f646165 	svcpl	0x00646165
     2e4:	006e7376 	rsbeq	r7, lr, r6, ror r3
     2e8:	5f444456 	svcpl	0x00444456
     2ec:	54534554 	ldrbpl	r4, [r3], #-1364	; 0xfffffaac
     2f0:	5449425f 	strbpl	r4, [r9], #-607	; 0xfffffda1
     2f4:	67616d00 	strbvs	r6, [r1, -r0, lsl #26]!
     2f8:	6c006369 	stcvs	3, cr6, [r0], {105}	; 0x69
     2fc:	74676e65 	strbtvc	r6, [r7], #-3685	; 0xfffff19b
     300:	44560068 	ldrbmi	r0, [r6], #-104	; 0xffffff98
     304:	45525f44 	ldrbmi	r5, [r2, #-3908]	; 0xfffff0bc
     308:	425f3253 	subsmi	r3, pc, #805306373	; 0x30000005
     30c:	70005449 	andvc	r5, r0, r9, asr #8
     310:	6674616c 	ldrbtvs	r6, [r4], -ip, ror #2
     314:	006d726f 	rsbeq	r7, sp, pc, ror #4
     318:	5f434356 	svcpl	0x00434356
     31c:	5f4c4c50 	svcpl	0x004c4c50
     320:	00544942 	subseq	r4, r4, r2, asr #18
     324:	68637261 	stmdavs	r3!, {r0, r5, r6, r9, ip, sp, lr}^
     328:	6d72612f 	ldfvse	f6, [r2, #-188]!	; 0xffffff44
     32c:	63616d2f 	cmnvs	r1, #3008	; 0xbc0
     330:	75732d68 	ldrbvc	r2, [r3, #-3432]!	; 0xfffff298
     334:	2f69786e 	svccs	0x0069786e
     338:	732f6d70 			; <UNDEFINED> instruction: 0x732f6d70
     33c:	646e6174 	strbtvs	r6, [lr], #-372	; 0xfffffe8c
     340:	732f7962 			; <UNDEFINED> instruction: 0x732f7962
     344:	72657075 	rsbvc	r7, r5, #117	; 0x75
     348:	6d6f632f 	stclvs	3, cr6, [pc, #-188]!	; 294 <set_pll+0x14>
     34c:	2e6e6f6d 	cdpcs	15, 6, cr6, cr14, cr13, {3}
     350:	6d740063 	ldclvs	0, cr0, [r4, #-396]!	; 0xfffffe74
     354:	73645f70 	cmnvc	r4, #112, 30	; 0x1c0
     358:	6d740074 	ldclvs	0, cr0, [r4, #-464]!	; 0xfffffe30
     35c:	72735f70 	rsbsvc	r5, r3, #112, 30	; 0x1c0
     360:	656d0063 	strbvs	r0, [sp, #-99]!	; 0xffffff9d
     364:	656d5f6d 	strbvs	r5, [sp, #-3949]!	; 0xfffff093
     368:	7970636d 	ldmdbvc	r0!, {r0, r2, r3, r5, r6, r8, r9, sp, lr}^
     36c:	63726100 	cmnvs	r2, #0, 2
     370:	72612f68 	rsbvc	r2, r1, #104, 30	; 0x1a0
     374:	616d2f6d 	cmnvs	sp, sp, ror #30
     378:	732d6863 			; <UNDEFINED> instruction: 0x732d6863
     37c:	69786e75 	ldmdbvs	r8!, {r0, r2, r4, r5, r6, r9, sl, fp, sp, lr}^
     380:	2f6d702f 	svccs	0x006d702f
     384:	6e617473 	mcrvs	4, 3, r7, cr1, cr3, {3}
     388:	2f796264 	svccs	0x00796264
     38c:	65707573 	ldrbvs	r7, [r0, #-1395]!	; 0xfffffa8d
     390:	75732f72 	ldrbvc	r2, [r3, #-3954]!	; 0xfffff08e
     394:	5f726570 	svcpl	0x00726570
     398:	2e697774 	mcrcs	7, 3, r7, cr9, cr4, {3}
     39c:	72610063 	rsbvc	r0, r1, #99	; 0x63
     3a0:	612f6863 			; <UNDEFINED> instruction: 0x612f6863
     3a4:	6d2f6d72 	stcvs	13, cr6, [pc, #-456]!	; 1e4 <resume1_c_part+0xb0>
     3a8:	2d686361 	stclcs	3, cr6, [r8, #-388]!	; 0xfffffe7c
     3ac:	786e7573 	stmdavc	lr!, {r0, r1, r4, r5, r6, r8, sl, ip, sp, lr}^
     3b0:	6d702f69 	ldclvs	15, cr2, [r0, #-420]!	; 0xfffffe5c
     3b4:	6174732f 	cmnvs	r4, pc, lsr #6
     3b8:	7962646e 	stmdbvc	r2!, {r1, r2, r3, r5, r6, sl, sp, lr}^
     3bc:	7075732f 	rsbsvc	r7, r5, pc, lsr #6
     3c0:	732f7265 			; <UNDEFINED> instruction: 0x732f7265
     3c4:	72657075 	rsbvc	r7, r5, #117	; 0x75
     3c8:	6f6c635f 	svcvs	0x006c635f
     3cc:	632e6b63 			; <UNDEFINED> instruction: 0x632e6b63
     3d0:	63726100 	cmnvs	r2, #0, 2
     3d4:	72612f68 	rsbvc	r2, r1, #104, 30	; 0x1a0
     3d8:	616d2f6d 	cmnvs	sp, sp, ror #30
     3dc:	732d6863 			; <UNDEFINED> instruction: 0x732d6863
     3e0:	69786e75 	ldmdbvs	r8!, {r0, r2, r4, r5, r6, r9, sl, fp, sp, lr}^
     3e4:	2f6d702f 	svccs	0x006d702f
     3e8:	6e617473 	mcrvs	4, 3, r7, cr1, cr3, {3}
     3ec:	2f796264 	svccs	0x00796264
     3f0:	65707573 	ldrbvs	r7, [r0, #-1395]!	; 0xfffffa8d
     3f4:	75732f72 	ldrbvc	r2, [r3, #-3954]!	; 0xfffff08e
     3f8:	5f726570 	svcpl	0x00726570
     3fc:	65776f70 	ldrbvs	r6, [r7, #-3952]!	; 0xfffff090
     400:	00632e72 	rsbeq	r2, r3, r2, ror lr
     404:	68637261 	stmdavs	r3!, {r0, r5, r6, r9, ip, sp, lr}^
     408:	6d72612f 	ldfvse	f6, [r2, #-188]!	; 0xffffff44
     40c:	63616d2f 	cmnvs	r1, #3008	; 0xbc0
     410:	75732d68 	ldrbvc	r2, [r3, #-3432]!	; 0xfffff298
     414:	2f69786e 	svccs	0x0069786e
     418:	732f6d70 			; <UNDEFINED> instruction: 0x732f6d70
     41c:	646e6174 	strbtvs	r6, [lr], #-372	; 0xfffffe8c
     420:	732f7962 			; <UNDEFINED> instruction: 0x732f7962
     424:	72657075 	rsbvc	r7, r5, #117	; 0x75
     428:	7075732f 	rsbsvc	r7, r5, pc, lsr #6
     42c:	635f7265 	cmpvs	pc, #1342177286	; 0x50000006
     430:	2e737570 	mrccs	5, 3, r7, cr3, cr0, {3}
     434:	6c500063 	mrrcvs	0, 6, r0, r0, cr3	; <UNPREDICTABLE>
     438:	4d34326c 	lfmmi	f3, 4, [r4, #-432]!	; 0xfffffe50
     43c:	4574754f 	ldrbmi	r7, [r4, #-1359]!	; 0xfffffab1
     440:	6c50006e 	mrrcvs	0, 6, r0, r0, cr14	; <UNPREDICTABLE>
     444:	6172446c 	cmnvs	r2, ip, ror #8
     448:	6150306d 	cmpvs	r0, sp, rrx
     44c:	72657474 	rsbvc	r7, r5, #116, 8	; 0x74000000
     450:	5f5f006e 	svcpl	0x005f006e
     454:	554d4343 	strbpl	r4, [sp, #-835]	; 0xfffffcbd
     458:	4248415f 	submi	r4, r8, #-1073741801	; 0xc0000017
     45c:	41525f31 	cmpmi	r2, r1, lsr pc
     460:	5f4f4954 	svcpl	0x004f4954
     464:	30474552 	subcc	r4, r7, r2, asr r5
     468:	00343530 	eorseq	r3, r4, r0, lsr r5
     46c:	31757063 	cmncc	r5, r3, rrx
     470:	7365725f 	cmnvc	r5, #-268435451	; 0xf0000005
     474:	64007465 	strvs	r7, [r0], #-1125	; 0xfffffb9b
     478:	67756265 	ldrbvs	r6, [r5, -r5, ror #4]!
     47c:	73616d5f 	cmnvc	r1, #6080	; 0x17c0
     480:	5f5f006b 	svcpl	0x005f006b
     484:	756d6363 	strbvc	r6, [sp, #-867]!	; 0xfffffc9d
     488:	70696d5f 	rsbvc	r6, r9, pc, asr sp
     48c:	6c705f69 	ldclvs	15, cr5, [r0], #-420	; 0xfffffe5c
     490:	65725f6c 	ldrbvs	r5, [r2, #-3948]!	; 0xfffff094
     494:	34303067 	ldrtcc	r3, [r0], #-103	; 0xffffff99
     498:	00745f30 	rsbseq	r5, r4, r0, lsr pc
     49c:	65736572 	ldrbvs	r6, [r3, #-1394]!	; 0xfffffa8e
     4a0:	64657672 	strbtvs	r7, [r5], #-1650	; 0xfffff98e
     4a4:	00323331 	eorseq	r3, r2, r1, lsr r3
     4a8:	65736572 	ldrbvs	r6, [r3, #-1394]!	; 0xfffffa8e
     4ac:	64657672 	strbtvs	r7, [r5], #-1650	; 0xfffff98e
     4b0:	00333331 	eorseq	r3, r3, r1, lsr r3
     4b4:	65736572 	ldrbvs	r6, [r3, #-1394]!	; 0xfffffa8e
     4b8:	64657672 	strbtvs	r7, [r5], #-1650	; 0xfffff98e
     4bc:	00343331 	eorseq	r3, r4, r1, lsr r3
     4c0:	74736572 	ldrbtvc	r6, [r3], #-1394	; 0xfffffa8e
     4c4:	5f65726f 	svcpl	0x0065726f
     4c8:	5f756d6d 	svcpl	0x00756d6d
     4cc:	74617473 	strbtvc	r7, [r1], #-1139	; 0xfffffb8d
     4d0:	77640065 	strbvc	r0, [r4, -r5, rrx]!
     4d4:	006c6176 	rsbeq	r6, ip, r6, ror r1
     4d8:	65766173 	ldrbvs	r6, [r6, #-371]!	; 0xfffffe8d
     4dc:	75725f64 	ldrbvc	r5, [r2, #-3940]!	; 0xfffff09c
     4e0:	6d69746e 	cfstrdvs	mvd7, [r9, #-440]!	; 0xfffffe48
     4e4:	6f635f65 	svcvs	0x00635f65
     4e8:	7865746e 	stmdavc	r5!, {r1, r2, r3, r5, r6, sl, ip, sp, lr}^
     4ec:	76735f74 	uhsub16vc	r5, r3, r4
     4f0:	756a0063 	strbvc	r0, [sl, #-99]!	; 0xffffff9d
     4f4:	745f706d 	ldrbvc	r7, [pc], #-109	; 4fc <io_init+0x14>
     4f8:	65725f6f 	ldrbvs	r5, [r2, #-3951]!	; 0xfffff091
     4fc:	656d7573 	strbvs	r7, [sp, #-1395]!	; 0xfffffa8d
     500:	76617300 	strbtvc	r7, [r1], -r0, lsl #6
     504:	656d5f65 	strbvs	r5, [sp, #-3941]!	; 0xfffff09b
     508:	74735f6d 	ldrbtvc	r5, [r3], #-3949	; 0xfffff093
     50c:	73757461 	cmnvc	r5, #1627389952	; 0x61000000
     510:	64634c00 	strbtvs	r4, [r3], #-3072	; 0xfffff400
     514:	30684330 	rsbcc	r4, r8, r0, lsr r3
     518:	64634c00 	strbtvs	r4, [r3], #-3072	; 0xfffff400
     51c:	31684330 	cmncc	r8, r0, lsr r3
     520:	69786100 	ldmdbvs	r8!, {r8, sp, lr}^
     524:	7669645f 			; <UNDEFINED> instruction: 0x7669645f
     528:	74656700 	strbtvc	r6, [r5], #-1792	; 0xfffff900
     52c:	7275635f 	rsbsvc	r6, r5, #2080374785	; 0x7c000001
     530:	756c635f 	strbvc	r6, [ip, #-863]!	; 0xfffffca1
     534:	72657473 	rsbvc	r7, r5, #1929379840	; 0x73000000
     538:	0064695f 	rsbeq	r6, r4, pc, asr r9
     53c:	366c6c50 			; <UNDEFINED> instruction: 0x366c6c50
     540:	006c7443 	rsbeq	r7, ip, r3, asr #8
     544:	5f6d656d 	svcpl	0x006d656d
     548:	5f6b6c63 	svcpl	0x006b6c63
     54c:	74696e69 	strbtvc	r6, [r9], #-3689	; 0xfffff197
     550:	73657200 	cmnvc	r5, #0, 4
     554:	65767265 	ldrbvs	r7, [r6, #-613]!	; 0xfffffd9b
     558:	31343164 	teqcc	r4, r4, ror #2
     55c:	73657200 	cmnvc	r5, #0, 4
     560:	65767265 	ldrbvs	r7, [r6, #-613]!	; 0xfffffd9b
     564:	32343164 	eorscc	r3, r4, #100, 2
     568:	73657200 	cmnvc	r5, #0, 4
     56c:	65767265 	ldrbvs	r7, [r6, #-613]!	; 0xfffffd9b
     570:	33343164 	teqcc	r4, #100, 2
     574:	646e6900 	strbtvs	r6, [lr], #-2304	; 0xfffff700
     578:	50007865 	andpl	r7, r0, r5, ror #16
     57c:	72536c6c 	subsvc	r6, r3, #108, 24	; 0x6c00
     580:	61730063 	cmnvs	r3, r3, rrx
     584:	5f646576 	svcpl	0x00646576
     588:	5f756d6d 	svcpl	0x00756d6d
     58c:	74617473 	strbtvc	r7, [r1], #-1139	; 0xfffffb8d
     590:	32490065 	subcc	r0, r9, #101	; 0x65
     594:	49003073 	stmdbmi	r0, {r0, r1, r4, r5, r6, ip, sp}
     598:	00317332 	eorseq	r7, r1, r2, lsr r3
     59c:	316c6c50 	cmncc	ip, r0, asr ip
     5a0:	6c744330 	ldclvs	3, cr4, [r4], #-192	; 0xffffff40
     5a4:	6c6c5000 	stclvs	0, cr5, [ip], #-0
     5a8:	6c744334 	ldclvs	3, cr4, [r4], #-208	; 0xffffff30
     5ac:	5f4d5000 	svcpl	0x004d5000
     5b0:	4e415453 	mcrmi	4, 2, r5, cr1, cr3, {2}
     5b4:	5f594244 	svcpl	0x00594244
     5b8:	42414e45 	submi	r4, r1, #1104	; 0x450
     5bc:	4a5f454c 	bmi	17d1af4 <__bss_end+0x17ce978>
     5c0:	00474154 	subeq	r4, r7, r4, asr r1
     5c4:	63635f5f 	cmnvs	r3, #380	; 0x17c
     5c8:	705f756d 	subsvc	r7, pc, sp, ror #10
     5cc:	5f366c6c 	svcpl	0x00366c6c
     5d0:	30676572 	rsbcc	r6, r7, r2, ror r5
     5d4:	5f383230 	svcpl	0x00383230
     5d8:	694d0074 	stmdbvs	sp, {r2, r4, r5, r6}^
     5dc:	73446970 	movtvc	r6, #18800	; 0x4970
     5e0:	6f6d0069 	svcvs	0x006d0069
     5e4:	6f74696e 	svcvs	0x0074696e
     5e8:	65765f72 	ldrbvs	r5, [r6, #-3954]!	; 0xfffff08e
     5ec:	726f7463 	rsbvc	r7, pc, #1660944384	; 0x63000000
     5f0:	635f5f00 	cmpvs	pc, #0, 30
     5f4:	5f756d63 	svcpl	0x00756d63
     5f8:	63737973 	cmnvs	r3, #1884160	; 0x1cc000
     5fc:	725f6b6c 	subsvc	r6, pc, #108, 22	; 0x1b000
     600:	6f697461 	svcvs	0x00697461
     604:	6765725f 			; <UNDEFINED> instruction: 0x6765725f
     608:	30353030 	eorscc	r3, r5, r0, lsr r0
     60c:	4c00745f 	cfstrsmi	mvf7, [r0], {95}	; 0x5f
     610:	45326f64 	ldrmi	r6, [r2, #-3940]!	; 0xfffff09c
     614:	656d006e 	strbvs	r0, [sp, #-110]!	; 0xffffff92
     618:	6c635f6d 	stclvs	15, cr5, [r3], #-436	; 0xfffffe4c
     61c:	65735f6b 	ldrbvs	r5, [r3, #-3947]!	; 0xfffff095
     620:	696d5f74 	stmdbvs	sp!, {r2, r4, r5, r6, r8, r9, sl, fp, ip, lr}^
     624:	50006373 	andpl	r6, r0, r3, ror r3
     628:	75416c6c 	strbvc	r6, [r1, #-3180]	; 0xfffff394
     62c:	426f6964 	rsbmi	r6, pc, #100, 18	; 0x190000
     630:	00736169 	rsbseq	r6, r3, r9, ror #2
     634:	33757063 	cmncc	r5, #99	; 0x63
     638:	7365725f 	cmnvc	r5, #-268435451	; 0xf0000005
     63c:	70007465 	andvc	r7, r0, r5, ror #8
     640:	665f6c6c 	ldrbvs	r6, [pc], -ip, ror #24
     644:	6f746361 	svcvs	0x00746361
     648:	00745f72 	rsbseq	r5, r4, r2, ror pc
     64c:	65736572 	ldrbvs	r6, [r3, #-1394]!	; 0xfffffa8e
     650:	64657672 	strbtvs	r7, [r5], #-1650	; 0xfffff98e
     654:	00313531 	eorseq	r3, r1, r1, lsr r5
     658:	65736572 	ldrbvs	r6, [r3, #-1394]!	; 0xfffffa8e
     65c:	64657672 	strbtvs	r7, [r5], #-1650	; 0xfffff98e
     660:	00323531 	eorseq	r3, r2, r1, lsr r5
     664:	65736572 	ldrbvs	r6, [r3, #-1394]!	; 0xfffffa8e
     668:	64657672 	strbtvs	r7, [r5], #-1650	; 0xfffff98e
     66c:	00333531 	eorseq	r3, r3, r1, lsr r5
     670:	65736572 	ldrbvs	r6, [r3, #-1394]!	; 0xfffffa8e
     674:	64657672 	strbtvs	r7, [r5], #-1650	; 0xfffff98e
     678:	00343531 	eorseq	r3, r4, r1, lsr r5
     67c:	486c6c50 	stmdami	ip!, {r4, r6, sl, fp, sp, lr}^
     680:	50636973 	rsbpl	r6, r3, r3, ror r9
     684:	65747461 	ldrbvs	r7, [r4, #-1121]!	; 0xfffffb9f
     688:	5f006e72 	svcpl	0x00006e72
     68c:	7373625f 	cmnvc	r3, #-268435451	; 0xf0000005
     690:	646e655f 	strbtvs	r6, [lr], #-1375	; 0xfffffaa1
     694:	4c4c5000 	marmi	acc0, r5, ip
     698:	55676643 	strbpl	r6, [r7, #-1603]!	; 0xfffff9bd
     69c:	74616470 	strbtvc	r6, [r1], #-1136	; 0xfffffb90
     6a0:	6c500065 	mrrcvs	0, 6, r0, r0, cr5	; <UNPREDICTABLE>
     6a4:	6973486c 	ldmdbvs	r3!, {r2, r3, r5, r6, fp, lr}^
     6a8:	61694263 	cmnvs	r9, r3, ror #4
     6ac:	5f5f0073 	svcpl	0x005f0073
     6b0:	756d6363 	strbvc	r6, [sp, #-867]!	; 0xfffffc9d
     6b4:	6c6c705f 	stclvs	0, cr7, [ip], #-380	; 0xfffffe84
     6b8:	65725f35 	ldrbvs	r5, [r2, #-3893]!	; 0xfffff0cb
     6bc:	32303067 	eorscc	r3, r0, #103	; 0x67
     6c0:	00745f30 	rsbseq	r5, r4, r0, lsr pc
     6c4:	316c6c50 	cmncc	ip, r0, asr ip
     6c8:	006e7554 	rsbeq	r7, lr, r4, asr r5
     6cc:	7375424d 	cmnvc	r5, #-805306364	; 0xd0000004
     6d0:	66560030 			; <UNDEFINED> instruction: 0x66560030
     6d4:	6c655362 	stclvs	3, cr5, [r5], #-392	; 0xfffffe78
     6d8:	5f4d5000 	svcpl	0x004d5000
     6dc:	4e415453 	mcrmi	4, 2, r5, cr1, cr3, {2}
     6e0:	5f594244 	svcpl	0x00594244
     6e4:	4e495250 	mcrmi	2, 2, r5, cr9, cr0, {2}
     6e8:	43435f54 	movtmi	r5, #16212	; 0x3f54
     6ec:	54535f55 	ldrbpl	r5, [r3], #-3925	; 0xfffff0ab
     6f0:	53555441 	cmppl	r5, #1090519040	; 0x41000000
     6f4:	5f4d5000 	svcpl	0x004d5000
     6f8:	4e415453 	mcrmi	4, 2, r5, cr1, cr3, {2}
     6fc:	5f594244 	svcpl	0x00594244
     700:	4e495250 	mcrmi	2, 2, r5, cr9, cr0, {2}
     704:	4f505f54 	svcmi	0x00505f54
     708:	50005452 	andpl	r5, r0, r2, asr r4
     70c:	54535f4d 	ldrbpl	r5, [r3], #-3917	; 0xfffff0b3
     710:	42444e41 	submi	r4, r4, #1040	; 0x410
     714:	52505f59 	subspl	r5, r0, #356	; 0x164
     718:	5f544e49 	svcpl	0x00544e49
     71c:	55534552 	ldrbpl	r4, [r3, #-1362]	; 0xfffffaae
     720:	495f454d 	ldmdbmi	pc, {r0, r2, r3, r6, r8, sl, lr}^	; <UNPREDICTABLE>
     724:	54535f4f 	ldrbpl	r5, [r3], #-3919	; 0xfffff0b1
     728:	53555441 	cmppl	r5, #1090519040	; 0x41000000
     72c:	70694d00 	rsbvc	r4, r9, r0, lsl #26
     730:	6c6c5069 	stclvs	0, cr5, [ip], #-420	; 0xfffffe5c
     734:	006c7443 	rsbeq	r7, ip, r3, asr #8
     738:	74636146 	strbtvc	r6, [r3], #-326	; 0xfffffeba
     73c:	004b726f 	subeq	r7, fp, pc, ror #4
     740:	74636146 	strbtvc	r6, [r3], #-326	; 0xfffffeba
     744:	004d726f 	subeq	r7, sp, pc, ror #4
     748:	74636146 	strbtvc	r6, [r3], #-326	; 0xfffffeba
     74c:	004e726f 	subeq	r7, lr, pc, ror #4
     750:	32627041 	rsbcc	r7, r2, #65	; 0x41
     754:	00766944 	rsbseq	r6, r6, r4, asr #18
     758:	74636146 	strbtvc	r6, [r3], #-326	; 0xfffffeba
     75c:	0050726f 	subseq	r7, r0, pc, ror #4
     760:	65736572 	ldrbvs	r6, [r3, #-1394]!	; 0xfffffa8e
     764:	64657672 	strbtvs	r7, [r5], #-1650	; 0xfffff98e
     768:	00323032 	eorseq	r3, r2, r2, lsr r0
     76c:	65736572 	ldrbvs	r6, [r3, #-1394]!	; 0xfffffa8e
     770:	64657672 	strbtvs	r7, [r5], #-1650	; 0xfffff98e
     774:	00333032 	eorseq	r3, r3, r2, lsr r0
     778:	65736572 	ldrbvs	r6, [r3, #-1394]!	; 0xfffffa8e
     77c:	64657672 	strbtvs	r7, [r5], #-1650	; 0xfffff98e
     780:	00343032 	eorseq	r3, r4, r2, lsr r0
     784:	65736572 	ldrbvs	r6, [r3, #-1394]!	; 0xfffffa8e
     788:	64657672 	strbtvs	r7, [r5], #-1650	; 0xfffff98e
     78c:	00353032 	eorseq	r3, r5, r2, lsr r0
     790:	65736572 	ldrbvs	r6, [r3, #-1394]!	; 0xfffffa8e
     794:	64657672 	strbtvs	r7, [r5], #-1650	; 0xfffff98e
     798:	00363032 	eorseq	r3, r6, r2, lsr r0
     79c:	476c6c50 			; <UNDEFINED> instruction: 0x476c6c50
     7a0:	69427570 	stmdbvs	r2, {r4, r5, r6, r8, sl, ip, sp, lr}^
     7a4:	73007361 	movwvc	r7, #865	; 0x361
     7a8:	65707375 	ldrbvs	r7, [r0, #-885]!	; 0xfffffc8b
     7ac:	645f646e 	ldrbvs	r6, [pc], #-1134	; 7b4 <save_mmu_state+0x34>
     7b0:	79616c65 	stmdbvc	r1!, {r0, r2, r5, r6, sl, fp, sp, lr}^
     7b4:	00736d5f 	rsbseq	r6, r3, pc, asr sp
     7b8:	69726573 	ldmdbvs	r2!, {r0, r1, r4, r5, r6, r8, sl, sp, lr}^
     7bc:	705f6c61 	subsvc	r6, pc, r1, ror #24
     7c0:	5f737475 	svcpl	0x00737475
     7c4:	6d6d6f6e 	stclvs	15, cr6, [sp, #-440]!	; 0xfffffe48
     7c8:	70470075 	subvc	r0, r7, r5, ror r0
     7cc:	6d654d75 	stclvs	13, cr4, [r5, #-468]!	; 0xfffffe2c
     7d0:	6c6c5000 	stclvs	0, cr5, [ip], #-0
     7d4:	50757047 	rsbspl	r7, r5, r7, asr #32
     7d8:	65747461 	ldrbvs	r7, [r4, #-1121]!	; 0xfffffb9f
     7dc:	63006e72 	movwvs	r6, #3698	; 0xe72
     7e0:	645f6b6c 	ldrbvs	r6, [pc], #-2924	; 7e8 <restore_secure_mmu_state+0x2c>
     7e4:	44007669 	strmi	r7, [r0], #-1641	; 0xfffff997
     7e8:	004d7669 	subeq	r7, sp, r9, ror #12
     7ec:	4e766944 	cdpmi	9, 7, cr6, cr6, cr4, {2}
     7f0:	76617300 	strbtvc	r7, [r1], -r0, lsl #6
     7f4:	735f6465 	cmpvc	pc, #1694498816	; 0x65000000
     7f8:	72756365 	rsbsvc	r6, r5, #-1811939327	; 0x94000001
     7fc:	6d6d5f65 	stclvs	15, cr5, [sp, #-404]!	; 0xfffffe6c
     800:	74735f75 	ldrbtvc	r5, [r3], #-3957	; 0xfffff08b
     804:	00657461 	rsbeq	r7, r5, r1, ror #8
     808:	535f4d50 	cmppl	pc, #80, 26	; 0x1400
     80c:	444e4154 	strbmi	r4, [lr], #-340	; 0xfffffeac
     810:	505f5942 	subspl	r5, pc, r2, asr #18
     814:	544e4952 	strbpl	r4, [lr], #-2386	; 0xfffff6ae
     818:	4154535f 	cmpmi	r4, pc, asr r3
     81c:	5942444e 	stmdbpl	r2, {r1, r2, r3, r6, sl, lr}^
     820:	62704100 	rsbsvs	r4, r0, #0, 2
     824:	73655232 	cmnvc	r5, #536870915	; 0x20000003
     828:	61007465 	tstvs	r0, r5, ror #8
     82c:	615f6268 	cmpvs	pc, r8, ror #4
     830:	645f6270 	ldrbvs	r6, [pc], #-624	; 838 <restore_mmu_state+0x30>
     834:	50007669 	andpl	r7, r0, r9, ror #12
     838:	54535f4d 	ldrbpl	r5, [r3], #-3917	; 0xfffff0b3
     83c:	42444e41 	submi	r4, r4, #1040	; 0x410
     840:	52505f59 	subspl	r5, r0, #356	; 0x164
     844:	5f544e49 	svcpl	0x00544e49
     848:	535f4f49 	cmppl	pc, #292	; 0x124
     84c:	55544154 	ldrbpl	r4, [r4, #-340]	; 0xfffffeac
     850:	65720053 	ldrbvs	r0, [r2, #-83]!	; 0xffffffad
     854:	76726573 			; <UNDEFINED> instruction: 0x76726573
     858:	37316465 	ldrcc	r6, [r1, -r5, ror #8]!
     85c:	65720031 	ldrbvs	r0, [r2, #-49]!	; 0xffffffcf
     860:	76726573 			; <UNDEFINED> instruction: 0x76726573
     864:	37316465 	ldrcc	r6, [r1, -r5, ror #8]!
     868:	65720032 	ldrbvs	r0, [r2, #-50]!	; 0xffffffce
     86c:	76726573 			; <UNDEFINED> instruction: 0x76726573
     870:	37316465 	ldrcc	r6, [r1, -r5, ror #8]!
     874:	6c500033 	mrrcvs	0, 3, r0, r0, cr3	; <UNPREDICTABLE>
     878:	636f4c6c 	cmnvs	pc, #108, 24	; 0x6c00
     87c:	6c70006b 	ldclvs	0, cr0, [r0], #-428	; 0xfffffe54
     880:	745f316c 	ldrbvc	r3, [pc], #-364	; 888 <get_sp+0x8>
     884:	5f006e75 	svcpl	0x00006e75
     888:	4d43435f 	stclmi	3, cr4, [r3, #-380]	; 0xfffffe84
     88c:	4c505f55 	mrrcmi	15, 5, r5, r0, cr5
     890:	525f384c 	subspl	r3, pc, #76, 16	; 0x4c0000
     894:	30304745 	eorscc	r4, r0, r5, asr #14
     898:	47003833 	smladxmi	r0, r3, r8, r3
     89c:	6f437570 	svcvs	0x00437570
     8a0:	49006572 	stmdbmi	r0, {r1, r4, r5, r6, r8, sl, sp, lr}
     8a4:	72447065 	subvc	r7, r4, #101	; 0x65
     8a8:	6d003063 	stcvs	0, cr3, [r0, #-396]	; 0xfffffe74
     8ac:	635f6d65 	cmpvs	pc, #6464	; 0x1940
     8b0:	735f6b6c 	cmpvc	pc, #108, 22	; 0x1b000
     8b4:	705f7465 	subsvc	r7, pc, r5, ror #8
     8b8:	665f6c6c 	ldrbvs	r6, [pc], -ip, ror #24
     8bc:	6f746361 	svcvs	0x00746361
     8c0:	70430072 	subvc	r0, r3, r2, ror r0
     8c4:	6b6c4375 	blvs	1b116a0 <__bss_end+0x1b0e524>
     8c8:	00637253 	rsbeq	r7, r3, r3, asr r2
     8cc:	5f6d656d 	svcpl	0x006d656d
     8d0:	74617473 	strbtvc	r7, [r1], #-1139	; 0xfffffb8d
     8d4:	695f7375 	ldmdbvs	pc, {r0, r2, r4, r5, r6, r8, r9, ip, sp, lr}^	; <UNPREDICTABLE>
     8d8:	5f74696e 	svcpl	0x0074696e
     8dc:	6d6d6f6e 	stclvs	15, cr6, [sp, #-440]!	; 0xfffffe48
     8e0:	5f5f0075 	svcpl	0x005f0075
     8e4:	5f737362 	svcpl	0x00737362
     8e8:	72617473 	rsbvc	r7, r1, #1929379840	; 0x73000000
     8ec:	61640074 	smcvs	16388	; 0x4004
     8f0:	72007263 	andvc	r7, r0, #805306374	; 0x30000006
     8f4:	72657365 	rsbvc	r7, r5, #-1811939327	; 0x94000001
     8f8:	31646576 	smccc	18006	; 0x4656
     8fc:	61003138 	tstvs	r0, r8, lsr r1
     900:	2f686372 	svccs	0x00686372
     904:	2f6d7261 	svccs	0x006d7261
     908:	6863616d 	stmdavs	r3!, {r0, r2, r3, r5, r6, r8, sp, lr}^
     90c:	6e75732d 	cdpvs	3, 7, cr7, cr5, cr13, {1}
     910:	702f6978 	eorvc	r6, pc, r8, ror r9	; <UNPREDICTABLE>
     914:	74732f6d 	ldrbtvc	r2, [r3], #-3949	; 0xfffff093
     918:	62646e61 	rsbvs	r6, r4, #1552	; 0x610
     91c:	75732f79 	ldrbvc	r2, [r3, #-3961]!	; 0xfffff087
     920:	2f726570 	svccs	0x00726570
     924:	75736572 	ldrbvc	r6, [r3, #-1394]!	; 0xfffffa8e
     928:	722f656d 	eorvc	r6, pc, #457179136	; 0x1b400000
     92c:	6d757365 	ldclvs	3, cr7, [r5, #-404]!	; 0xfffffe6c
     930:	635f3165 	cmpvs	pc, #1073741849	; 0x40000019
     934:	7261705f 	rsbvc	r7, r1, #95	; 0x5f
     938:	00632e74 	rsbeq	r2, r3, r4, ror lr
     93c:	47626841 	strbmi	r6, [r2, -r1, asr #16]!
     940:	31657461 	cmncc	r5, r1, ror #8
     944:	5f4d5000 	svcpl	0x004d5000
     948:	4e415453 	mcrmi	4, 2, r5, cr1, cr3, {2}
     94c:	5f594244 	svcpl	0x00594244
     950:	4e495250 	mcrmi	2, 2, r5, cr9, cr0, {2}
     954:	54475f54 	strbpl	r5, [r7], #-3924	; 0xfffff0ac
     958:	5f535542 	svcpl	0x00535542
     95c:	00474552 	subeq	r4, r7, r2, asr r5
     960:	566c6c50 			; <UNDEFINED> instruction: 0x566c6c50
     964:	6f696465 	svcvs	0x00696465
     968:	73616942 	cmnvc	r1, #1081344	; 0x108000
     96c:	6d656d00 	stclvs	13, cr6, [r5, #-0]
     970:	616c665f 	cmnvs	ip, pc, asr r6
     974:	6c500067 	mrrcvs	0, 6, r0, r0, cr7	; <UNPREDICTABLE>
     978:	7443316c 	strbvc	r3, [r3], #-364	; 0xfffffe94
     97c:	6441006c 	strbvs	r0, [r1], #-108	; 0xffffff94
     980:	6d006164 	stfvss	f6, [r0, #-400]	; 0xfffffe70
     984:	665f6d65 	ldrbvs	r6, [pc], -r5, ror #26
     988:	6873756c 	ldmdavs	r3!, {r2, r3, r5, r6, r8, sl, ip, sp, lr}^
     98c:	626c745f 	rsbvs	r7, ip, #1593835520	; 0x5f000000
     990:	696e6900 	stmdbvs	lr!, {r8, fp, sp, lr}^
     994:	65705f74 	ldrbvs	r5, [r0, #-3956]!	; 0xfffff08c
     998:	6f636672 	svcvs	0x00636672
     99c:	65746e75 	ldrbvs	r6, [r4, #-3701]!	; 0xfffff18b
     9a0:	5f007372 	svcpl	0x00007372
     9a4:	6d63635f 	stclvs	3, cr6, [r3, #-380]!	; 0xfffffe84
     9a8:	6c705f75 	ldclvs	15, cr5, [r0], #-468	; 0xfffffe2c
     9ac:	725f386c 	subsvc	r3, pc, #108, 16	; 0x6c0000
     9b0:	30306765 	eorscc	r6, r0, r5, ror #14
     9b4:	745f3833 	ldrbvc	r3, [pc], #-2099	; 9bc <loop3+0x14>
     9b8:	72657300 	rsbvc	r7, r5, #0, 6
     9bc:	5f6c6169 	svcpl	0x006c6169
     9c0:	74696e69 	strbtvc	r6, [r9], #-3689	; 0xfffff197
     9c4:	6d6f6e5f 	stclvs	14, cr6, [pc, #-380]!	; 850 <__turn_mmu_on+0x10>
     9c8:	5000756d 	andpl	r7, r0, sp, ror #10
     9cc:	43386c6c 	teqmi	r8, #108, 24	; 0x6c00
     9d0:	72006c74 	andvc	r6, r0, #116, 24	; 0x7400
     9d4:	72657365 	rsbvc	r7, r5, #-1811939327	; 0x94000001
     9d8:	31646576 	smccc	18006	; 0x4656
     9dc:	5f5f0030 	svcpl	0x005f0030
     9e0:	554d4343 	strbpl	r4, [sp, #-835]	; 0xfffffcbd
     9e4:	4c4c505f 	mcrrmi	0, 5, r5, ip, cr15
     9e8:	4b434f4c 	blmi	10d4720 <__bss_end+0x10d15a4>
     9ec:	4745525f 	smlsldmi	r5, r5, pc, r2	; <UNPREDICTABLE>
     9f0:	30303230 	eorscc	r3, r0, r0, lsr r2
     9f4:	73657200 	cmnvc	r5, #0, 4
     9f8:	65767265 	ldrbvs	r7, [r6, #-613]!	; 0xfffffd9b
     9fc:	00323164 	eorseq	r3, r2, r4, ror #2
     a00:	63646364 	cmnvs	r4, #100, 6	; 0x90000001
     a04:	65720032 	ldrbvs	r0, [r2, #-50]!	; 0xffffffce
     a08:	76726573 			; <UNDEFINED> instruction: 0x76726573
     a0c:	34316465 	ldrtcc	r6, [r1], #-1125	; 0xfffffb9b
     a10:	73657200 	cmnvc	r5, #0, 4
     a14:	65767265 	ldrbvs	r7, [r6, #-613]!	; 0xfffffd9b
     a18:	00353164 	eorseq	r3, r5, r4, ror #2
     a1c:	65736572 	ldrbvs	r6, [r3, #-1394]!	; 0xfffffa8e
     a20:	64657672 	strbtvs	r7, [r5], #-1650	; 0xfffff98e
     a24:	72003631 	andvc	r3, r0, #51380224	; 0x3100000
     a28:	72657365 	rsbvc	r7, r5, #-1811939327	; 0x94000001
     a2c:	31646576 	smccc	18006	; 0x4656
     a30:	6c500037 	mrrcvs	0, 3, r0, r0, cr7	; <UNPREDICTABLE>
     a34:	7264446c 	rsbvc	r4, r4, #108, 8	; 0x6c000000
     a38:	00676643 	rsbeq	r6, r7, r3, asr #12
     a3c:	65736572 	ldrbvs	r6, [r3, #-1394]!	; 0xfffffa8e
     a40:	64657672 	strbtvs	r7, [r5], #-1650	; 0xfffff98e
     a44:	63003931 	movwvs	r3, #2353	; 0x931
     a48:	6d5f6b6c 	vldrvs	d22, [pc, #-432]	; 8a0 <invalidate_dcache>
     a4c:	00637369 	rsbeq	r7, r3, r9, ror #6
     a50:	4d6c6c50 	stclmi	12, cr6, [ip, #-320]!	; 0xfffffec0
     a54:	50697069 	rsbpl	r7, r9, r9, rrx
     a58:	65747461 	ldrbvs	r7, [r4, #-1121]!	; 0xfffffb9f
     a5c:	53006e72 	movwpl	r6, #3698	; 0xe72
     a60:	616d6769 	cmnvs	sp, r9, ror #14
     a64:	53006e45 	movwpl	r6, #3653	; 0xe45
     a68:	616d6769 	cmnvs	sp, r9, ror #14
     a6c:	746c6544 	strbtvc	r6, [ip], #-1348	; 0xfffffabc
     a70:	006e4561 	rsbeq	r4, lr, r1, ror #10
     a74:	63646364 	cmnvs	r4, #100, 6	; 0x90000001
     a78:	74740033 	ldrbtvc	r0, [r4], #-51	; 0xffffffcd
     a7c:	00726362 	rsbseq	r6, r2, r2, ror #6
     a80:	33755f5f 	cmncc	r5, #380	; 0x17c
     a84:	656d0032 	strbvs	r0, [sp, #-50]!	; 0xffffffce
     a88:	6c635f6d 	stclvs	15, cr5, [r3], #-436	; 0xfffffe4c
     a8c:	65735f6b 	ldrbvs	r5, [r3, #-3947]!	; 0xfffff095
     a90:	76696474 			; <UNDEFINED> instruction: 0x76696474
     a94:	73657200 	cmnvc	r5, #0, 4
     a98:	31656d75 	smccc	22229	; 0x56d5
     a9c:	705f635f 	subsvc	r6, pc, pc, asr r3	; <UNPREDICTABLE>
     aa0:	00747261 	rsbseq	r7, r4, r1, ror #4
     aa4:	786c6c50 	stmdavc	ip!, {r4, r6, sl, fp, sp, lr}^
     aa8:	73616942 	cmnvc	r1, #1081344	; 0x108000
     aac:	6c6c5000 	stclvs	0, cr5, [ip], #-0
     ab0:	6970694d 	ldmdbvs	r0!, {r0, r2, r3, r6, r8, fp, sp, lr}^
     ab4:	73616942 	cmnvc	r1, #1081344	; 0x108000
     ab8:	6c6c5000 	stclvs	0, cr5, [ip], #-0
     abc:	74615031 	strbtvc	r5, [r1], #-49	; 0xffffffcf
     ac0:	6e726574 	mrcvs	5, 3, r6, cr2, cr4, {3}
     ac4:	70694d00 	rsbvc	r4, r9, r0, lsl #26
     ac8:	6c6c5069 	stclvs	0, cr5, [ip], #-420	; 0xfffffe5c
     acc:	006e7554 	rsbeq	r7, lr, r4, asr r5
     ad0:	73746962 	cmnvc	r4, #1605632	; 0x188000
     ad4:	73657200 	cmnvc	r5, #0, 4
     ad8:	65767265 	ldrbvs	r7, [r6, #-613]!	; 0xfffffd9b
     adc:	00313264 	eorseq	r3, r1, r4, ror #4
     ae0:	65736572 	ldrbvs	r6, [r3, #-1394]!	; 0xfffffa8e
     ae4:	64657672 	strbtvs	r7, [r5], #-1650	; 0xfffff98e
     ae8:	50003232 	andpl	r3, r0, r2, lsr r2
     aec:	65566c6c 	ldrbvs	r6, [r6, #-3180]	; 0xfffff394
     af0:	73616942 	cmnvc	r1, #1081344	; 0x108000
     af4:	6c6c5000 	stclvs	0, cr5, [ip], #-0
     af8:	6e755435 	mrcvs	4, 3, r5, cr5, cr5, {1}
     afc:	69727000 	ldmdbvs	r2!, {ip, sp, lr}^
     b00:	006b746e 	rsbeq	r7, fp, lr, ror #8
     b04:	65736572 	ldrbvs	r6, [r3, #-1394]!	; 0xfffffa8e
     b08:	64657672 	strbtvs	r7, [r5], #-1650	; 0xfffff98e
     b0c:	50003131 	andpl	r3, r0, r1, lsr r1
     b10:	79424c4c 	stmdbvc	r2, {r2, r3, r6, sl, fp, lr}^
     b14:	73736170 	cmnvc	r3, #112, 2
     b18:	73657200 	cmnvc	r5, #0, 4
     b1c:	5f656d75 	svcpl	0x00656d75
     b20:	6e696f70 	mcrvs	15, 3, r6, cr9, cr0, {3}
     b24:	00726574 	rsbseq	r6, r2, r4, ror r5
     b28:	31626841 	cmncc	r2, r1, asr #16
     b2c:	00766944 	rsbseq	r6, r6, r4, asr #18
     b30:	65736572 	ldrbvs	r6, [r3, #-1394]!	; 0xfffffa8e
     b34:	64657672 	strbtvs	r7, [r5], #-1650	; 0xfffff98e
     b38:	72003831 	andvc	r3, r0, #3211264	; 0x310000
     b3c:	72657365 	rsbvc	r7, r5, #-1811939327	; 0x94000001
     b40:	31646576 	smccc	18006	; 0x4656
     b44:	50003133 	andpl	r3, r0, r3, lsr r1
     b48:	43336c6c 	teqmi	r3, #108, 24	; 0x6c00
     b4c:	53006c74 	movwpl	r6, #3188	; 0xc74
     b50:	6c437379 	mcrrvs	3, 7, r7, r3, cr9
     b54:	7669446b 	strbtvc	r4, [r9], -fp, ror #8
     b58:	6c6c5000 	stclvs	0, cr5, [ip], #-0
     b5c:	4f6b6c43 	svcmi	0x006b6c43
     b60:	6e457475 	mcrvs	4, 2, r7, cr5, cr5, {3}
     b64:	635f5f00 	cmpvs	pc, #0, 30
     b68:	5f756d63 	svcpl	0x00756d63
     b6c:	32627061 	rsbcc	r7, r2, #97	; 0x61
     b70:	7461725f 	strbtvc	r7, [r1], #-607	; 0xfffffda1
     b74:	725f6f69 	subsvc	r6, pc, #420	; 0x1a4
     b78:	30306765 	eorscc	r6, r0, r5, ror #14
     b7c:	745f3835 	ldrbvc	r3, [pc], #-2101	; b84 <mem_preload_tlb+0x54>
     b80:	75624d00 	strbvc	r4, [r2, #-3328]!	; 0xfffff300
     b84:	73655273 	cmnvc	r5, #805306375	; 0x30000007
     b88:	65527465 	ldrbvs	r7, [r2, #-1125]	; 0xfffffb9b
     b8c:	70470067 	subvc	r0, r7, r7, rrx
     b90:	64794875 	ldrbtvs	r4, [r9], #-2165	; 0xfffff78b
     b94:	75706300 	ldrbvc	r6, [r0, #-768]!	; 0xfffffd00
     b98:	0064695f 	rsbeq	r6, r4, pc, asr r9
     b9c:	52626841 	rsbpl	r6, r2, #4259840	; 0x410000
     ba0:	74657365 	strbtvc	r7, [r5], #-869	; 0xfffffc9b
     ba4:	68410030 	stmdavs	r1, {r4, r5}^
     ba8:	73655262 	cmnvc	r5, #536870918	; 0x20000006
     bac:	00317465 	eorseq	r7, r1, r5, ror #8
     bb0:	52626841 	rsbpl	r6, r2, #4259840	; 0x410000
     bb4:	74657365 	strbtvc	r7, [r5], #-869	; 0xfffffc9b
     bb8:	70630032 	rsbvc	r0, r3, r2, lsr r0
     bbc:	725f3275 	subsvc	r3, pc, #1342177287	; 0x50000007
     bc0:	74657365 	strbtvc	r7, [r5], #-869	; 0xfffffc9b
     bc4:	6e756600 	cdpvs	6, 7, cr6, cr5, cr0, {0}
     bc8:	6e655f63 	cdpvs	15, 6, cr5, cr5, cr3, {3}
     bcc:	00797274 	rsbseq	r7, r9, r4, ror r2
     bd0:	456d6453 	strbmi	r6, [sp, #-1107]!	; 0xfffffbad
     bd4:	7041006e 	subvc	r0, r1, lr, rrx
     bd8:	61473262 	cmpvs	r7, r2, ror #4
     bdc:	5f006574 	svcpl	0x00006574
     be0:	4d43435f 	stclmi	3, cr4, [r3, #-380]	; 0xfffffe84
     be4:	494d5f55 	stmdbmi	sp, {r0, r2, r4, r6, r8, r9, sl, fp, ip, lr}^
     be8:	505f4950 	subspl	r4, pc, r0, asr r9	; <UNPREDICTABLE>
     bec:	525f4c4c 	subspl	r4, pc, #76, 24	; 0x4c00
     bf0:	30304745 	eorscc	r4, r0, r5, asr #14
     bf4:	50003034 	andpl	r3, r0, r4, lsr r0
     bf8:	4c316c6c 	ldcmi	12, cr6, [r1], #-432	; 0xfffffe50
     bfc:	006b636f 	rsbeq	r6, fp, pc, ror #6
     c00:	446c6c50 	strbtmi	r6, [ip], #-3152	; 0xfffff3b0
     c04:	306d6172 	rsbcc	r6, sp, r2, ror r1
     c08:	73616942 	cmnvc	r1, #1081344	; 0x108000
     c0c:	70786100 	rsbsvc	r6, r8, r0, lsl #2
     c10:	6576655f 	ldrbvs	r6, [r6, #-1375]!	; 0xfffffaa1
     c14:	5300746e 	movwpl	r7, #1134	; 0x46e
     c18:	32366c65 	eorscc	r6, r6, #25856	; 0x6500
     c1c:	37724f35 			; <UNDEFINED> instruction: 0x37724f35
     c20:	5f003035 	svcpl	0x00003035
     c24:	6d63635f 	stclvs	3, cr6, [r3, #-380]!	; 0xfffffe84
     c28:	6c705f75 	ldclvs	15, cr5, [r0], #-468	; 0xfffffe2c
     c2c:	725f326c 	subsvc	r3, pc, #108, 4	; 0xc0000006
     c30:	30306765 	eorscc	r6, r0, r5, ror #14
     c34:	745f3830 	ldrbvc	r3, [pc], #-2096	; c3c <disable_mmu>
     c38:	61724400 	cmnvs	r2, r0, lsl #8
     c3c:	7461476d 	strbtvc	r4, [r1], #-1901	; 0xfffff893
     c40:	68410065 	stmdavs	r1, {r0, r2, r5, r6}^
     c44:	6c433162 	stfvse	f3, [r3], {98}	; 0x62
     c48:	6372536b 	cmnvs	r2, #-1409286143	; 0xac000001
     c4c:	6c6c5000 	stclvs	0, cr5, [ip], #-0
     c50:	69426544 	stmdbvs	r2, {r2, r6, r8, sl, sp, lr}^
     c54:	41007361 	tstmi	r0, r1, ror #6
     c58:	44316270 	ldrtmi	r6, [r1], #-624	; 0xfffffd90
     c5c:	4d007669 	stcmi	6, cr7, [r0, #-420]	; 0xfffffe5c
     c60:	5365646f 	cmnpl	r5, #1862270976	; 0x6f000000
     c64:	46006c65 	strmi	r6, [r0], -r5, ror #24
     c68:	42646565 	rsbmi	r6, r4, #423624704	; 0x19400000
     c6c:	446b6361 	strbtmi	r6, [fp], #-865	; 0xfffffc9f
     c70:	72007669 	andvc	r7, r0, #110100480	; 0x6900000
     c74:	72657365 	rsbvc	r7, r5, #-1811939327	; 0x94000001
     c78:	35646576 	strbcc	r6, [r4, #-1398]!	; 0xfffffa8a
     c7c:	6c500031 	mrrcvs	0, 3, r0, r0, cr1	; <UNPREDICTABLE>
     c80:	7443356c 	strbvc	r3, [r3], #-1388	; 0xfffffa94
     c84:	6c63006c 	stclvs	0, cr0, [r3], #-432	; 0xfffffe50
     c88:	69645f6b 	stmdbvs	r4!, {r0, r1, r3, r5, r6, r8, r9, sl, fp, ip, lr}^
     c8c:	00745f76 	rsbseq	r5, r4, r6, ror pc
     c90:	43435f5f 	movtmi	r5, #16223	; 0x3f5f
     c94:	505f554d 	subspl	r5, pc, sp, asr #10
     c98:	5f354c4c 	svcpl	0x00354c4c
     c9c:	30474552 	subcc	r4, r7, r2, asr r5
     ca0:	00303230 	eorseq	r3, r0, r0, lsr r2
     ca4:	76694453 			; <UNDEFINED> instruction: 0x76694453
     ca8:	4c500032 	mrrcmi	0, 3, r0, r0, cr2	; <UNPREDICTABLE>
     cac:	006e454c 	rsbeq	r4, lr, ip, asr #10
     cb0:	63635f5f 	cmnvs	r3, #380	; 0x17c
     cb4:	705f756d 	subsvc	r7, pc, sp, ror #10
     cb8:	5f316c6c 	svcpl	0x00316c6c
     cbc:	30676572 	rsbcc	r6, r7, r2, ror r5
     cc0:	5f303030 	svcpl	0x00303030
     cc4:	6c500074 	mrrcvs	0, 7, r0, r0, cr4	; <UNPREDICTABLE>
     cc8:	7264446c 	rsbvc	r4, r4, #108, 8	; 0x6c000000
     ccc:	6c744331 	ldclvs	3, cr4, [r4], #-196	; 0xffffff3c
     cd0:	435f5f00 	cmpmi	pc, #0, 30
     cd4:	5f554d43 	svcpl	0x00554d43
     cd8:	324c4c50 	subcc	r4, ip, #80, 24	; 0x5000
     cdc:	4745525f 	smlsldmi	r5, r5, pc, r2	; <UNPREDICTABLE>
     ce0:	38303030 	ldmdacc	r0!, {r4, r5, ip, sp}
     ce4:	62744100 	rsbsvs	r4, r4, #0, 2
     ce8:	43627041 	cmnmi	r2, #65	; 0x41
     cec:	69446b6c 	stmdbvs	r4, {r2, r3, r5, r6, r8, r9, fp, sp, lr}^
     cf0:	65730076 	ldrbvs	r0, [r3, #-118]!	; 0xffffff8a
     cf4:	6c705f74 	ldclvs	15, cr5, [r0], #-464	; 0xfffffe30
     cf8:	6173006c 	cmnvs	r3, ip, rrx
     cfc:	6d5f6576 	cfldr64vs	mvdx6, [pc, #-472]	; b2c <mem_flush_tlb+0x20>
     d00:	735f6d65 	cmpvc	pc, #6464	; 0x1940
     d04:	75746174 	ldrbvc	r6, [r4, #-372]!	; 0xfffffe8c
     d08:	6f6e5f73 	svcvs	0x006e5f73
     d0c:	00756d6d 	rsbseq	r6, r5, sp, ror #26
     d10:	31627041 	cmncc	r2, r1, asr #32
     d14:	65736552 	ldrbvs	r6, [r3, #-1362]!	; 0xfffffaae
     d18:	68630074 	stmdavs	r3!, {r2, r4, r5, r6}^
     d1c:	65676e61 	strbvs	r6, [r7, #-3681]!	; 0xfffff19f
     d20:	6e75725f 	mrcvs	2, 3, r7, cr5, cr15, {2}
     d24:	656d6974 	strbvs	r6, [sp, #-2420]!	; 0xfffff68c
     d28:	766e655f 			; <UNDEFINED> instruction: 0x766e655f
     d2c:	6f644c00 	svcvs	0x00644c00
     d30:	006e4531 	rsbeq	r4, lr, r1, lsr r5
     d34:	65736572 	ldrbvs	r6, [r3, #-1394]!	; 0xfffffa8e
     d38:	64657672 	strbtvs	r7, [r5], #-1650	; 0xfffff98e
     d3c:	65720030 	ldrbvs	r0, [r2, #-48]!	; 0xffffffd0
     d40:	76726573 			; <UNDEFINED> instruction: 0x76726573
     d44:	00316465 	eorseq	r6, r1, r5, ror #8
     d48:	65736572 	ldrbvs	r6, [r3, #-1394]!	; 0xfffffa8e
     d4c:	64657672 	strbtvs	r7, [r5], #-1650	; 0xfffff98e
     d50:	65720032 	ldrbvs	r0, [r2, #-50]!	; 0xffffffce
     d54:	76726573 			; <UNDEFINED> instruction: 0x76726573
     d58:	00336465 	eorseq	r6, r3, r5, ror #8
     d5c:	65736572 	ldrbvs	r6, [r3, #-1394]!	; 0xfffffa8e
     d60:	64657672 	strbtvs	r7, [r5], #-1650	; 0xfffff98e
     d64:	65720034 	ldrbvs	r0, [r2, #-52]!	; 0xffffffcc
     d68:	76726573 			; <UNDEFINED> instruction: 0x76726573
     d6c:	00356465 	eorseq	r6, r5, r5, ror #8
     d70:	65736572 	ldrbvs	r6, [r3, #-1394]!	; 0xfffffa8e
     d74:	64657672 	strbtvs	r7, [r5], #-1650	; 0xfffff98e
     d78:	65720036 	ldrbvs	r0, [r2, #-54]!	; 0xffffffca
     d7c:	76726573 			; <UNDEFINED> instruction: 0x76726573
     d80:	00376465 	eorseq	r6, r7, r5, ror #8
     d84:	65736572 	ldrbvs	r6, [r3, #-1394]!	; 0xfffffa8e
     d88:	64657672 	strbtvs	r7, [r5], #-1650	; 0xfffff98e
     d8c:	65730039 	ldrbvs	r0, [r3, #-57]!	; 0xffffffc7
     d90:	6c616972 	stclvs	9, cr6, [r1], #-456	; 0xfffffe38
     d94:	7475705f 	ldrbtvc	r7, [r5], #-95	; 0xffffffa1
     d98:	6c500073 	mrrcvs	0, 7, r0, r0, cr3	; <UNPREDICTABLE>
     d9c:	5065446c 	rsbpl	r4, r5, ip, ror #8
     da0:	65747461 	ldrbvs	r7, [r4, #-1121]!	; 0xfffffb9f
     da4:	63006e72 	movwvs	r6, #3698	; 0xe72
     da8:	00726361 	rsbseq	r6, r2, r1, ror #6
     dac:	5f727770 	svcpl	0x00727770
     db0:	00676572 	rsbeq	r6, r7, r2, ror r5
     db4:	30697343 	rsbcc	r7, r9, r3, asr #6
     db8:	61766d00 	cmnvs	r6, r0, lsl #26
     dbc:	6464615f 	strbtvs	r6, [r4], #-351	; 0xfffffea1
     dc0:	72460072 	subvc	r0, r6, #114	; 0x72
     dc4:	6f4d6361 	svcvs	0x004d6361
     dc8:	4d500064 	ldclmi	0, cr0, [r0, #-400]	; 0xfffffe70
     dcc:	4154535f 	cmpmi	r4, pc, asr r3
     dd0:	5942444e 	stmdbpl	r2, {r1, r2, r3, r6, sl, lr}^
     dd4:	4952505f 	ldmdbmi	r2, {r0, r1, r2, r3, r4, r6, ip, lr}^
     dd8:	435f544e 	cmpmi	pc, #1308622848	; 0x4e000000
     ddc:	30344943 	eorscc	r4, r4, r3, asr #18
     de0:	45525f30 	ldrbmi	r5, [r2, #-3888]	; 0xfffff0d0
     de4:	5f5f0047 	svcpl	0x005f0047
     de8:	70003875 	andvc	r3, r0, r5, ror r8
     dec:	00727272 	rsbseq	r7, r2, r2, ror r2
     df0:	416c6c50 	cmnmi	ip, r0, asr ip
     df4:	6f696475 	svcvs	0x00696475
     df8:	74746150 	ldrbtvc	r6, [r4], #-336	; 0xfffffeb0
     dfc:	006e7265 	rsbeq	r7, lr, r5, ror #4
     e00:	5f627474 	svcpl	0x00627474
     e04:	53007230 	movwpl	r7, #560	; 0x230
     e08:	00306970 	eorseq	r6, r0, r0, ror r9
     e0c:	31697053 	qdsubcc	r7, r3, r9
     e10:	62684100 	rsbvs	r4, r8, #0, 2
     e14:	65746147 	ldrbvs	r6, [r4, #-327]!	; 0xfffffeb9
     e18:	65720030 	ldrbvs	r0, [r2, #-48]!	; 0xffffffd0
     e1c:	76726573 			; <UNDEFINED> instruction: 0x76726573
     e20:	30326465 	eorscc	r6, r2, r5, ror #8
     e24:	43003135 	movwmi	r3, #309	; 0x135
     e28:	6552756d 	ldrbvs	r7, [r2, #-1389]	; 0xfffffa93
     e2c:	5f5f0067 	svcpl	0x005f0067
     e30:	756d6363 	strbvc	r6, [sp, #-867]!	; 0xfffffc9d
     e34:	6c6c705f 	stclvs	0, cr7, [ip], #-380	; 0xfffffe84
     e38:	6b636f6c 	blvs	18dcbf0 <__bss_end+0x18d9a74>
     e3c:	6765725f 			; <UNDEFINED> instruction: 0x6765725f
     e40:	30303230 	eorscc	r3, r0, r0, lsr r2
     e44:	5000745f 	andpl	r7, r0, pc, asr r4
     e48:	65506c6c 	ldrbvs	r6, [r0, #-3180]	; 0xfffff394
     e4c:	68706972 	ldmdavs	r0!, {r1, r4, r5, r6, r8, fp, sp, lr}^
     e50:	73616942 	cmnvc	r1, #1081344	; 0x108000
     e54:	5f4d5000 	svcpl	0x004d5000
     e58:	4e415453 	mcrmi	4, 2, r5, cr1, cr3, {2}
     e5c:	5f594244 	svcpl	0x00594244
     e60:	54534554 	ldrbpl	r4, [r3], #-1364	; 0xfffffaac
     e64:	73657200 	cmnvc	r5, #0, 4
     e68:	65767265 	ldrbvs	r7, [r6, #-613]!	; 0xfffffd9b
     e6c:	31303164 	teqcc	r0, r4, ror #2
     e70:	61724600 	cmnvs	r2, r0, lsl #12
     e74:	646f4d63 	strbtvs	r4, [pc], #-3427	; e7c <__save_processor_state+0xcc>
     e78:	726e0065 	rsbvc	r0, lr, #101	; 0x65
     e7c:	74007272 	strvc	r7, [r0], #-626	; 0xfffffd8e
     e80:	7450706d 	ldrbvc	r7, [r0], #-109	; 0xffffff93
     e84:	656d0072 	strbvs	r0, [sp, #-114]!	; 0xffffff8e
     e88:	61705f6d 	cmnvs	r0, sp, ror #30
     e8c:	695f6172 	ldmdbvs	pc, {r1, r4, r5, r6, r8, sp, lr}^	; <UNPREDICTABLE>
     e90:	006f666e 	rsbeq	r6, pc, lr, ror #12
     e94:	63635f5f 	cmnvs	r3, #380	; 0x17c
     e98:	725f756d 	subsvc	r7, pc, #457179136	; 0x1b400000
     e9c:	6c5f6765 	mrrcvs	7, 6, r6, pc, cr5	; <UNPREDICTABLE>
     ea0:	5f747369 	svcpl	0x00747369
     ea4:	6c630074 	stclvs	0, cr0, [r3], #-464	; 0xfffffe30
     ea8:	696d5f6b 	stmdbvs	sp!, {r0, r1, r3, r5, r6, r8, r9, sl, fp, ip, lr}^
     eac:	745f6373 	ldrbvc	r6, [pc], #-883	; eb4 <__save_processor_state+0x104>
     eb0:	6c6c5000 	stclvs	0, cr5, [ip], #-0
     eb4:	6d617244 	sfmvs	f7, 2, [r1, #-272]!	; 0xfffffef0
     eb8:	61694231 	cmnvs	r9, r1, lsr r2
     ebc:	67655273 			; <UNDEFINED> instruction: 0x67655273
     ec0:	73797300 	cmnvc	r9, #0, 6
     ec4:	6576655f 	ldrbvs	r6, [r6, #-1375]!	; 0xfffffaa1
     ec8:	7000746e 	andvc	r7, r0, lr, ror #8
     ecc:	5f366c6c 	svcpl	0x00366c6c
     ed0:	73616962 	cmnvc	r1, #1605632	; 0x188000
     ed4:	6c6c5000 	stclvs	0, cr5, [ip], #-0
     ed8:	504d3432 	subpl	r3, sp, r2, lsr r4
     edc:	00766964 	rsbseq	r6, r6, r4, ror #18
     ee0:	6d617244 	sfmvs	f7, 2, [r1, #-272]!	; 0xfffffef0
     ee4:	00676643 	rsbeq	r6, r7, r3, asr #12
     ee8:	63635f5f 	cmnvs	r3, #380	; 0x17c
     eec:	615f756d 	cmpvs	pc, sp, ror #10
     ef0:	5f316268 	svcpl	0x00316268
     ef4:	69746172 	ldmdbvs	r4!, {r1, r4, r5, r6, r8, sp, lr}^
     ef8:	65725f6f 	ldrbvs	r5, [r2, #-3951]!	; 0xfffff091
     efc:	35303067 	ldrcc	r3, [r0, #-103]!	; 0xffffff99
     f00:	00745f34 	rsbseq	r5, r4, r4, lsr pc
     f04:	316c6c70 	smccc	50880	; 0xc6c0
     f08:	6169625f 	cmnvs	r9, pc, asr r2
     f0c:	74740073 	ldrbtvc	r0, [r4], #-115	; 0xffffff8d
     f10:	72315f62 	eorsvc	r5, r1, #392	; 0x188
     f14:	74657300 	strbtvc	r7, [r5], #-768	; 0xfffffd00
     f18:	706f635f 	rsbvc	r6, pc, pc, asr r3	; <UNPREDICTABLE>
     f1c:	645f6f72 	ldrbvs	r6, [pc], #-3954	; f24 <__save_processor_state+0x174>
     f20:	75616665 	strbvc	r6, [r1, #-1637]!	; 0xfffff99b
     f24:	7200746c 	andvc	r7, r0, #108, 8	; 0x6c000000
     f28:	72657365 	rsbvc	r7, r5, #-1811939327	; 0x94000001
     f2c:	38646576 	stmdacc	r4!, {r1, r2, r4, r5, r6, r8, sl, sp, lr}^
     f30:	4d500031 	ldclmi	0, cr0, [r0, #-196]	; 0xffffff3c
     f34:	4154535f 	cmpmi	r4, pc, asr r3
     f38:	5942444e 	stmdbpl	r2, {r1, r2, r3, r6, sl, lr}^
     f3c:	4952505f 	ldmdbmi	r2, {r0, r1, r2, r3, r4, r6, ip, lr}^
     f40:	435f544e 	cmpmi	pc, #1308622848	; 0x4e000000
     f44:	45484341 	strbmi	r4, [r8, #-833]	; 0xfffffcbf
     f48:	424c545f 	submi	r5, ip, #1593835520	; 0x5f000000
     f4c:	53494d5f 	movtpl	r4, #40287	; 0x9d5f
     f50:	65720053 	ldrbvs	r0, [r2, #-83]!	; 0xffffffad
     f54:	76726573 			; <UNDEFINED> instruction: 0x76726573
     f58:	31316465 	teqcc	r1, r5, ror #8
     f5c:	65640031 	strbvs	r0, [r4, #-49]!	; 0xffffffcf
     f60:	5f79616c 	svcpl	0x0079616c
     f64:	50007375 	andpl	r7, r0, r5, ror r3
     f68:	72446c6c 	subvc	r6, r4, #108, 24	; 0x6c00
     f6c:	50316d61 	eorspl	r6, r1, r1, ror #26
     f70:	65747461 	ldrbvs	r7, [r4, #-1121]!	; 0xfffffb9f
     f74:	65526e72 	ldrbvs	r6, [r2, #-3698]	; 0xfffff18e
     f78:	50003067 	andpl	r3, r0, r7, rrx
     f7c:	72446c6c 	subvc	r6, r4, #108, 24	; 0x6c00
     f80:	50316d61 	eorspl	r6, r1, r1, ror #26
     f84:	65747461 	ldrbvs	r7, [r4, #-1121]!	; 0xfffffb9f
     f88:	65526e72 	ldrbvs	r6, [r2, #-3698]	; 0xfffff18e
     f8c:	72003167 	andvc	r3, r0, #-1073741799	; 0xc0000019
     f90:	72657365 	rsbvc	r7, r5, #-1811939327	; 0x94000001
     f94:	31646576 	smccc	18006	; 0x4656
     f98:	4c003136 	stfmis	f3, [r0], {54}	; 0x36
     f9c:	546b636f 	strbtpl	r6, [fp], #-879	; 0xfffffc91
     fa0:	00656d69 	rsbeq	r6, r5, r9, ror #26
     fa4:	31626841 	cmncc	r2, r1, asr #16
     fa8:	44657250 	strbtmi	r7, [r5], #-592	; 0xfffffdb0
     fac:	50007669 	andpl	r7, r0, r9, ror #12
     fb0:	65566c6c 	ldrbvs	r6, [r6, #-3180]	; 0xfffff394
     fb4:	506f6964 	rsbpl	r6, pc, r4, ror #18
     fb8:	65747461 	ldrbvs	r7, [r4, #-1121]!	; 0xfffffb9f
     fbc:	50006e72 	andpl	r6, r0, r2, ror lr
     fc0:	65566c6c 	ldrbvs	r6, [r6, #-3180]	; 0xfffff394
     fc4:	74746150 	ldrbtvc	r6, [r4], #-336	; 0xfffffeb0
     fc8:	006e7265 	rsbeq	r7, lr, r5, ror #4
     fcc:	65736572 	ldrbvs	r6, [r3, #-1394]!	; 0xfffffa8e
     fd0:	64657672 	strbtvs	r7, [r5], #-1650	; 0xfffff98e
     fd4:	00313032 	eorseq	r3, r1, r2, lsr r0
     fd8:	65736572 	ldrbvs	r6, [r3, #-1394]!	; 0xfffffa8e
     fdc:	64657672 	strbtvs	r7, [r5], #-1650	; 0xfffff98e
     fe0:	49584100 	ldmdbmi	r8, {r8, lr}^
     fe4:	446b6c43 	strbtmi	r6, [fp], #-3139	; 0xfffff3bd
     fe8:	41007669 	tstmi	r0, r9, ror #12
     fec:	47316270 			; <UNDEFINED> instruction: 0x47316270
     ff0:	00657461 	rsbeq	r7, r5, r1, ror #8
     ff4:	65736572 	ldrbvs	r6, [r3, #-1394]!	; 0xfffffa8e
     ff8:	64657672 	strbtvs	r7, [r5], #-1650	; 0xfffff98e
     ffc:	72003139 	andvc	r3, r0, #1073741838	; 0x4000000e
    1000:	72657365 	rsbvc	r7, r5, #-1811939327	; 0x94000001
    1004:	39646576 	stmdbcc	r4!, {r1, r2, r4, r5, r6, r8, sl, sp, lr}^
    1008:	65720032 	ldrbvs	r0, [r2, #-50]!	; 0xffffffce
    100c:	76726573 			; <UNDEFINED> instruction: 0x76726573
    1010:	33396465 	teqcc	r9, #1694498816	; 0x65000000
    1014:	73736300 	cmnvc	r3, #0, 6
    1018:	4d500072 	ldclmi	0, cr0, [r0, #-456]	; 0xfffffe38
    101c:	4154535f 	cmpmi	r4, pc, asr r3
    1020:	5942444e 	stmdbpl	r2, {r1, r2, r3, r6, sl, lr}^
    1024:	4952505f 	ldmdbmi	r2, {r0, r1, r2, r3, r4, r6, ip, lr}^
    1028:	435f544e 	cmpmi	pc, #1308622848	; 0x4e000000
    102c:	5f535550 	svcpl	0x00535550
    1030:	535f4f49 	cmppl	pc, #292	; 0x124
    1034:	55544154 	ldrbpl	r4, [r4, #-340]	; 0xfffffeac
    1038:	65720053 	ldrbvs	r0, [r2, #-83]!	; 0xffffffad
    103c:	76726573 			; <UNDEFINED> instruction: 0x76726573
    1040:	32316465 	eorscc	r6, r1, #1694498816	; 0x65000000
    1044:	6c500031 	mrrcvs	0, 3, r0, r0, cr1	; <UNPREDICTABLE>
    1048:	7443326c 	strbvc	r3, [r3], #-620	; 0xfffffd94
    104c:	5f5f006c 	svcpl	0x005f006c
    1050:	554d4343 	strbpl	r4, [sp, #-835]	; 0xfffffcbd
    1054:	4745525f 	smlsldmi	r5, r5, pc, r2	; <UNPREDICTABLE>
    1058:	53494c5f 	movtpl	r4, #40031	; 0x9c5f
    105c:	4d500054 	ldclmi	0, cr0, [r0, #-336]	; 0xfffffeb0
    1060:	4154535f 	cmpmi	r4, pc, asr r3
    1064:	5942444e 	stmdbpl	r2, {r1, r2, r3, r6, sl, lr}^
    1068:	4952505f 	ldmdbmi	r2, {r0, r1, r2, r3, r4, r6, ip, lr}^
    106c:	525f544e 	subspl	r5, pc, #1308622848	; 0x4e000000
    1070:	4d555345 	ldclmi	3, cr5, [r5, #-276]	; 0xfffffeec
    1074:	614e0045 	cmpvs	lr, r5, asr #32
    1078:	0030646e 	eorseq	r6, r0, lr, ror #8
    107c:	535f4d50 	cmppl	pc, #80, 26	; 0x1400
    1080:	444e4154 	strbmi	r4, [lr], #-340	; 0xfffffeac
    1084:	505f5942 	subspl	r5, pc, r2, asr #18
    1088:	544e4952 	strbpl	r4, [lr], #-2386	; 0xfffff6ae
    108c:	5257505f 	subspl	r5, r7, #95	; 0x5f
    1090:	4154535f 	cmpmi	r4, pc, asr r3
    1094:	00535554 	subseq	r5, r3, r4, asr r5
    1098:	6d5f7761 	ldclvs	7, cr7, [pc, #-388]	; f1c <__save_processor_state+0x16c>
    109c:	705f6d65 	subsvc	r6, pc, r5, ror #26
    10a0:	00617261 	rsbeq	r7, r1, r1, ror #4
    10a4:	43435f5f 	movtmi	r5, #16223	; 0x3f5f
    10a8:	505f554d 	subspl	r5, pc, sp, asr #10
    10ac:	5f364c4c 	svcpl	0x00364c4c
    10b0:	30474552 	subcc	r4, r7, r2, asr r5
    10b4:	00383230 	eorseq	r3, r8, r0, lsr r2
    10b8:	396c6c50 	stmdbcc	ip!, {r4, r6, sl, fp, sp, lr}^
    10bc:	006c7443 	rsbeq	r7, ip, r3, asr #8
    10c0:	625f7073 	subsvs	r7, pc, #115	; 0x73
    10c4:	756b6361 	strbvc	r6, [fp, #-865]!	; 0xfffffc9f
    10c8:	6f6c0070 	svcvs	0x006c0070
    10cc:	665f706f 	ldrbvs	r7, [pc], -pc, rrx
    10d0:	0067616c 	rsbeq	r6, r7, ip, ror #2
    10d4:	776f6873 			; <UNDEFINED> instruction: 0x776f6873
    10d8:	6d656d5f 	stclvs	13, cr6, [r5, #-380]!	; 0xfffffe84
    10dc:	6174735f 	cmnvs	r4, pc, asr r3
    10e0:	00737574 	rsbseq	r7, r3, r4, ror r5
    10e4:	79737562 	ldmdbvc	r3!, {r1, r5, r6, r8, sl, ip, sp, lr}^
    10e8:	6961775f 	stmdbvs	r1!, {r0, r1, r2, r3, r4, r6, r8, r9, sl, ip, sp, lr}^
    10ec:	676e6974 			; <UNDEFINED> instruction: 0x676e6974
    10f0:	74616400 	strbtvc	r6, [r1], #-1024	; 0xfffffc00
    10f4:	6f690061 	svcvs	0x00690061
    10f8:	6769685f 			; <UNDEFINED> instruction: 0x6769685f
    10fc:	61730068 	cmnvs	r3, r8, rrx
    1100:	635f6576 	cmpvs	pc, #494927872	; 0x1d800000
    1104:	5f787570 	svcpl	0x00787570
    1108:	5f6d656d 	svcpl	0x006d656d
    110c:	74617473 	strbtvc	r7, [r1], #-1139	; 0xfffffb8d
    1110:	6e5f7375 	mrcvs	3, 2, r7, cr15, cr5, {3}
    1114:	756d6d6f 	strbvc	r6, [sp, #-3439]!	; 0xfffff291
    1118:	6d656d00 	stclvs	13, cr6, [r5, #-0]
    111c:	6174735f 	cmnvs	r4, pc, asr r3
    1120:	5f737574 	svcpl	0x00737574
    1124:	74697865 	strbtvc	r7, [r9], #-2149	; 0xfffff79b
    1128:	5f6f6900 	svcpl	0x006f6900
    112c:	74696e69 	strbtvc	r6, [r9], #-3689	; 0xfffff197
    1130:	63726100 	cmnvs	r2, #0, 2
    1134:	72612f68 	rsbvc	r2, r1, #104, 30	; 0x1a0
    1138:	616d2f6d 	cmnvs	sp, sp, ror #30
    113c:	732d6863 			; <UNDEFINED> instruction: 0x732d6863
    1140:	69786e75 	ldmdbvs	r8!, {r0, r2, r4, r5, r6, r9, sl, fp, sp, lr}^
    1144:	2f6d702f 	svccs	0x006d702f
    1148:	6e617473 	mcrvs	4, 3, r7, cr1, cr3, {3}
    114c:	2f796264 	svccs	0x00796264
    1150:	702f2e2e 	eorvc	r2, pc, lr, lsr #28
    1154:	65645f6d 	strbvs	r5, [r4, #-3949]!	; 0xfffff093
    1158:	2e677562 	cdpcs	5, 6, cr7, cr7, cr2, {3}
    115c:	65670063 	strbvs	r0, [r7, #-99]!	; 0xffffff9d
    1160:	656d5f74 	strbvs	r5, [sp, #-3956]!	; 0xfffff08c
    1164:	74735f6d 	ldrbtvc	r5, [r3], #-3949	; 0xfffff093
    1168:	73757461 	cmnvc	r5, #1627389952	; 0x61000000
    116c:	6d656d00 	stclvs	13, cr6, [r5, #-0]
    1170:	6174735f 	cmnvs	r4, pc, asr r3
    1174:	5f737574 	svcpl	0x00737574
    1178:	61656c63 	cmnvs	r5, r3, ror #24
    117c:	72700072 	rsbsvc	r0, r0, #114	; 0x72
    1180:	5f746e69 	svcpl	0x00746e69
    1184:	67616c66 	strbvs	r6, [r1, -r6, ror #24]!
    1188:	5f6f6900 	svcpl	0x006f6900
    118c:	74696e69 	strbtvc	r6, [r9], #-3689	; 0xfffff197
    1190:	776f6c5f 			; <UNDEFINED> instruction: 0x776f6c5f
    1194:	5f6f6900 	svcpl	0x006f6900
    1198:	74696e69 	strbtvc	r6, [r9], #-3689	; 0xfffff197
    119c:	6769685f 			; <UNDEFINED> instruction: 0x6769685f
    11a0:	6f630068 	svcvs	0x00630068
    11a4:	65746e75 	ldrbvs	r6, [r4, #-3701]!	; 0xfffff18b
    11a8:	6e655f72 	mcrvs	15, 3, r5, cr5, cr2, {3}
    11ac:	656c6261 	strbvs	r6, [ip, #-609]!	; 0xfffffd9f
    11b0:	72617400 	rsbvc	r7, r1, #0, 8
    11b4:	00746567 	rsbseq	r6, r4, r7, ror #10
    11b8:	74736572 	ldrbtvc	r6, [r3], #-1394	; 0xfffffa8e
    11bc:	5f65726f 	svcpl	0x0065726f
    11c0:	66726570 			; <UNDEFINED> instruction: 0x66726570
    11c4:	6e756f63 	cdpvs	15, 7, cr6, cr5, cr3, {3}
    11c8:	00726574 	rsbseq	r6, r2, r4, ror r5
    11cc:	7265766f 	rsbvc	r7, r5, #116391936	; 0x6f00000
    11d0:	64616568 	strbtvs	r6, [r1], #-1384	; 0xfffffa98
    11d4:	74656700 	strbtvc	r6, [r5], #-1792	; 0xfffff900
    11d8:	6576655f 	ldrbvs	r6, [r6, #-1375]!	; 0xfffffaa1
    11dc:	635f746e 	cmpvs	pc, #1845493760	; 0x6e000000
    11e0:	746e756f 	strbtvc	r7, [lr], #-1391	; 0xfffffa91
    11e4:	65007265 	strvs	r7, [r0, #-613]	; 0xfffffd9b
    11e8:	6c62616e 	stfvse	f6, [r2], #-440	; 0xfffffe48
    11ec:	69645f65 	stmdbvs	r4!, {r0, r2, r5, r6, r8, r9, sl, fp, ip, lr}^
    11f0:	65646976 	strbvs	r6, [r4, #-2422]!	; 0xfffff68a
    11f4:	65720072 	ldrbvs	r0, [r2, #-114]!	; 0xffffff8e
    11f8:	5f746573 	svcpl	0x00746573
    11fc:	6e756f63 	cdpvs	15, 7, cr6, cr5, cr3, {3}
    1200:	00726574 	rsbseq	r6, r2, r4, ror r5
    1204:	6b636162 	blvs	18d9794 <__bss_end+0x18d6618>
    1208:	705f7075 	subsvc	r7, pc, r5, ror r0	; <UNPREDICTABLE>
    120c:	5f667265 	svcpl	0x00667265
    1210:	6e756f63 	cdpvs	15, 7, cr6, cr5, cr3, {3}
    1214:	5f726574 	svcpl	0x00726574
    1218:	62616e65 	rsbvs	r6, r1, #1616	; 0x650
    121c:	725f656c 	subsvc	r6, pc, #108, 10	; 0x1b000000
    1220:	49006765 	stmdbmi	r0, {r0, r2, r5, r6, r8, r9, sl, sp, lr}
    1224:	4341435f 	movtmi	r4, #4959	; 0x135f
    1228:	4d5f4548 	cfldr64mi	mvdx4, [pc, #-288]	; 1110 <__save_processor_state+0x360>
    122c:	00535349 	subseq	r5, r3, r9, asr #6
    1230:	635f7375 	cmpvs	pc, #-738197503	; 0xd4000001
    1234:	6300746e 	movwvs	r7, #1134	; 0x46e
    1238:	7265746e 	rsbvc	r7, r5, #1845493760	; 0x6e000000
    123c:	5f6f6400 	svcpl	0x006f6400
    1240:	65736572 	ldrbvs	r6, [r3, #-1394]!	; 0xfffffa8e
    1244:	5f440074 	svcpl	0x00440074
    1248:	5f424c54 	svcpl	0x00424c54
    124c:	5353494d 	cmppl	r3, #1261568	; 0x134000
    1250:	63616200 	cmnvs	r1, #0, 4
    1254:	5f70756b 	svcpl	0x0070756b
    1258:	66726570 			; <UNDEFINED> instruction: 0x66726570
    125c:	6e756f63 	cdpvs	15, 7, cr6, cr5, cr3, {3}
    1260:	00726574 	rsbseq	r6, r2, r4, ror r5
    1264:	33735f5f 	cmncc	r3, #380	; 0x17c
    1268:	76650032 			; <UNDEFINED> instruction: 0x76650032
    126c:	5f746e65 	svcpl	0x00746e65
    1270:	00746e63 	rsbseq	r6, r4, r3, ror #28
    1274:	6b636162 	blvs	18d9804 <__bss_end+0x18d6688>
    1278:	705f7075 	subsvc	r7, pc, r5, ror r0	; <UNPREDICTABLE>
    127c:	5f667265 	svcpl	0x00667265
    1280:	6e756f63 	cdpvs	15, 7, cr6, cr5, cr3, {3}
    1284:	5f726574 	svcpl	0x00726574
    1288:	6c727463 	cfldrdvs	mvd7, [r2], #-396	; 0xfffffe74
    128c:	6765725f 			; <UNDEFINED> instruction: 0x6765725f
    1290:	63726100 	cmnvs	r2, #0, 2
    1294:	72612f68 	rsbvc	r2, r1, #104, 30	; 0x1a0
    1298:	616d2f6d 	cmnvs	sp, sp, ror #30
    129c:	732d6863 			; <UNDEFINED> instruction: 0x732d6863
    12a0:	69786e75 	ldmdbvs	r8!, {r0, r2, r4, r5, r6, r9, sl, fp, sp, lr}^
    12a4:	2f6d702f 	svccs	0x006d702f
    12a8:	6e617473 	mcrvs	4, 3, r7, cr1, cr3, {3}
    12ac:	2f796264 	svccs	0x00796264
    12b0:	6d2f2e2e 	stcvs	14, cr2, [pc, #-184]!	; 1200 <__restore_processor_state+0x4c>
    12b4:	745f6d65 	ldrbvc	r6, [pc], #-3429	; 12bc <__restore_processor_state+0x108>
    12b8:	6e696d69 	cdpvs	13, 6, cr6, cr9, cr9, {3}
    12bc:	00632e67 	rsbeq	r2, r3, r7, ror #28
    12c0:	41435f44 	cmpmi	r3, r4, asr #30
    12c4:	5f454843 	svcpl	0x00454843
    12c8:	5353494d 	cmppl	r3, #1261568	; 0x134000
    12cc:	74656700 	strbtvc	r6, [r5], #-1792	; 0xfffff900
    12d0:	6379635f 	cmnvs	r9, #2080374785	; 0x7c000001
    12d4:	6f63656c 	svcvs	0x0063656c
    12d8:	00746e75 	rsbseq	r6, r4, r5, ror lr
    12dc:	5f746573 	svcpl	0x00746573
    12e0:	6e657665 	cdpvs	6, 6, cr7, cr5, cr5, {3}
    12e4:	6f635f74 	svcvs	0x00635f74
    12e8:	65746e75 	ldrbvs	r6, [r4, #-3701]!	; 0xfffff18b
    12ec:	6e690072 	mcrvs	0, 3, r0, cr9, cr2, {3}
    12f0:	655f7469 	ldrbvs	r7, [pc, #-1129]	; e8f <__save_processor_state+0xdf>
    12f4:	746e6576 	strbtvc	r6, [lr], #-1398	; 0xfffffa8a
    12f8:	756f635f 	strbvc	r6, [pc, #-863]!	; fa1 <__save_processor_state+0x1f1>
    12fc:	7265746e 	rsbvc	r7, r5, #1845493760	; 0x6e000000
    1300:	756f6300 	strbvc	r6, [pc, #-768]!	; 1008 <__save_processor_state+0x258>
    1304:	7265746e 	rsbvc	r7, r5, #1845493760	; 0x6e000000
    1308:	7079745f 	rsbsvc	r7, r9, pc, asr r4
    130c:	00655f65 	rsbeq	r5, r5, r5, ror #30
    1310:	6374616d 	cmnvs	r4, #1073741851	; 0x4000001b
    1314:	76655f68 	strbtvc	r5, [r5], -r8, ror #30
    1318:	5f746e65 	svcpl	0x00746e65
    131c:	6e756f63 	cdpvs	15, 7, cr6, cr5, cr3, {3}
    1320:	00726574 	rsbseq	r6, r2, r4, ror r5
    1324:	4c545f49 	mrrcmi	15, 4, r5, r4, cr9
    1328:	494d5f42 	stmdbmi	sp, {r1, r6, r8, r9, sl, fp, ip, lr}^
    132c:	6d005353 	stcvs	3, cr5, [r0, #-332]	; 0xfffffeb4
    1330:	635f6d65 	cmpvs	pc, #6464	; 0x1940
    1334:	675f6b6c 	ldrbvs	r6, [pc, -ip, ror #22]
    1338:	635f7465 	cmpvs	pc, #1694498816	; 0x65000000
    133c:	665f7570 			; <UNDEFINED> instruction: 0x665f7570
    1340:	00716572 	rsbseq	r6, r1, r2, ror r5
    1344:	5f776172 	svcpl	0x00776172
    1348:	5f62696c 	svcpl	0x0062696c
    134c:	76696475 			; <UNDEFINED> instruction: 0x76696475
    1350:	63726100 	cmnvs	r2, #0, 2
    1354:	72612f68 	rsbvc	r2, r1, #104, 30	; 0x1a0
    1358:	616d2f6d 	cmnvs	sp, sp, ror #30
    135c:	732d6863 			; <UNDEFINED> instruction: 0x732d6863
    1360:	69786e75 	ldmdbvs	r8!, {r0, r2, r4, r5, r6, r9, sl, fp, sp, lr}^
    1364:	2f6d702f 	svccs	0x006d702f
    1368:	6e617473 	mcrvs	4, 3, r7, cr1, cr3, {3}
    136c:	2f796264 	svccs	0x00796264
    1370:	6d2f2e2e 	stcvs	14, cr2, [pc, #-184]!	; 12c0 <__restore_processor_state+0x10c>
    1374:	6d5f6d65 	ldclvs	13, cr6, [pc, #-404]	; 11e8 <__restore_processor_state+0x34>
    1378:	705f756d 	subsvc	r7, pc, sp, ror #10
    137c:	00632e63 	rsbeq	r2, r3, r3, ror #28
    1380:	65766173 	ldrbvs	r6, [r6, #-371]!	; 0xfffffe8d
    1384:	756d6d5f 	strbvc	r6, [sp, #-3423]!	; 0xfffff2a1
    1388:	6174735f 	cmnvs	r4, pc, asr r3
    138c:	72006574 	andvc	r6, r0, #116, 10	; 0x1d000000
    1390:	6f747365 	svcvs	0x00747365
    1394:	735f6572 	cmpvc	pc, #478150656	; 0x1c800000
    1398:	72756365 	rsbsvc	r6, r5, #-1811939327	; 0x94000001
    139c:	6d6d5f65 	stclvs	15, cr5, [sp, #-404]!	; 0xfffffe6c
    13a0:	74735f75 	ldrbtvc	r5, [r3], #-3957	; 0xfffff08b
    13a4:	00657461 	rsbeq	r7, r5, r1, ror #8
    13a8:	70746f70 	rsbsvc	r6, r4, r0, ror pc
    13ac:	69006469 	stmdbvs	r0, {r0, r3, r5, r6, sl, sp, lr}
    13b0:	7261665f 	rsbvc	r6, r1, #99614720	; 0x5f00000
    13b4:	63637300 	cmnvs	r3, #0, 6
    13b8:	00726766 	rsbseq	r6, r2, r6, ror #14
    13bc:	72636569 	rsbvc	r6, r3, #440401920	; 0x1a400000
    13c0:	665f6400 	ldrbvs	r6, [pc], -r0, lsl #8
    13c4:	73007273 	movwvc	r7, #627	; 0x273
    13c8:	64657661 	strbtvs	r7, [r5], #-1633	; 0xfffff99f
    13cc:	7370735f 	cmnvc	r0, #2080374785	; 0x7c000001
    13d0:	62615f72 	rsbvs	r5, r1, #456	; 0x1c8
    13d4:	72750074 	rsbsvc	r0, r5, #116	; 0x74
    13d8:	69707477 	ldmdbvs	r0!, {r0, r1, r2, r4, r5, r6, sl, ip, sp, lr}^
    13dc:	61730064 	cmnvs	r3, r4, rrx
    13e0:	5f646576 	svcpl	0x00646576
    13e4:	72737073 	rsbsvc	r7, r3, #115	; 0x73
    13e8:	6e6f6d5f 	mcrvs	13, 3, r6, cr15, cr15, {2}
    13ec:	64637300 	strbtvs	r7, [r3], #-768	; 0xfffffd00
    13f0:	6e656762 	cdpvs	7, 6, cr6, cr5, cr2, {3}
    13f4:	00726c62 	rsbseq	r6, r2, r2, ror #24
    13f8:	65766173 	ldrbvs	r6, [r6, #-371]!	; 0xfffffe8d
    13fc:	6f635f64 	svcvs	0x00635f64
    1400:	7865746e 	stmdavc	r5!, {r1, r2, r3, r5, r6, sl, ip, sp, lr}^
    1404:	31725f74 	cmncc	r2, r4, ror pc
    1408:	69665f33 	stmdbvs	r6!, {r0, r1, r4, r5, r8, r9, sl, fp, ip, lr}^
    140c:	61730071 	cmnvs	r3, r1, ror r0
    1410:	5f646576 	svcpl	0x00646576
    1414:	746e6f63 	strbtvc	r6, [lr], #-3939	; 0xfffff09d
    1418:	5f747865 	svcpl	0x00747865
    141c:	5f333172 	svcpl	0x00333172
    1420:	00717269 	rsbseq	r7, r1, r9, ror #4
    1424:	74736572 	ldrbtvc	r6, [r3], #-1394	; 0xfffffa8e
    1428:	5f65726f 	svcpl	0x0065726f
    142c:	636f7270 	cmnvs	pc, #112, 4
    1430:	6f737365 	svcvs	0x00737365
    1434:	74745f72 	ldrbtvc	r5, [r4], #-3954	; 0xfffff08e
    1438:	00307262 	eorseq	r7, r0, r2, ror #4
    143c:	65766173 	ldrbvs	r6, [r6, #-371]!	; 0xfffffe8d
    1440:	70735f64 	rsbsvc	r5, r3, r4, ror #30
    1444:	735f7273 	cmpvc	pc, #805306375	; 0x30000007
    1448:	64006376 	strvs	r6, [r0], #-886	; 0xfffffc8a
    144c:	62617369 	rsbvs	r7, r1, #-1543503871	; 0xa4000001
    1450:	635f656c 	cmpvs	pc, #108, 10	; 0x1b000000
    1454:	65686361 	strbvs	r6, [r8, #-865]!	; 0xfffffc9f
    1458:	766e695f 			; <UNDEFINED> instruction: 0x766e695f
    145c:	64696c61 	strbtvs	r6, [r9], #-3169	; 0xfffff39f
    1460:	00657461 	rsbeq	r7, r5, r1, ror #8
    1464:	65725f5f 	ldrbvs	r5, [r2, #-3935]!	; 0xfffff0a1
    1468:	726f7473 	rsbvc	r7, pc, #1929379840	; 0x73000000
    146c:	72705f65 	rsbsvc	r5, r0, #404	; 0x194
    1470:	7365636f 	cmnvc	r5, #-1140850687	; 0xbc000001
    1474:	5f726f73 	svcpl	0x00726f73
    1478:	74617473 	strbtvc	r7, [r1], #-1139	; 0xfffffb8d
    147c:	65690065 	strbvs	r0, [r9, #-101]!	; 0xffffff9b
    1480:	73007273 	movwvc	r7, #627	; 0x273
    1484:	64657661 	strbtvs	r7, [r5], #-1633	; 0xfffff99f
    1488:	7370735f 	cmnvc	r0, #2080374785	; 0x7c000001
    148c:	69665f72 	stmdbvs	r6!, {r1, r4, r5, r6, r8, r9, sl, fp, ip, lr}^
    1490:	63700071 	cmnvs	r0, #113	; 0x71
    1494:	63007273 	movwvs	r7, #627	; 0x273
    1498:	00747874 	rsbseq	r7, r4, r4, ror r8
    149c:	65766173 	ldrbvs	r6, [r6, #-371]!	; 0xfffffe8d
    14a0:	70735f64 	rsbsvc	r5, r3, r4, ror #30
    14a4:	695f7273 	ldmdbvs	pc, {r0, r1, r4, r5, r6, r9, ip, sp, lr}^	; <UNPREDICTABLE>
    14a8:	64007172 	strvs	r7, [r0], #-370	; 0xfffffe8e
    14ac:	7366615f 	cmnvc	r6, #-1073741801	; 0xc0000017
    14b0:	61730072 	cmnvs	r3, r2, ror r0
    14b4:	5f646576 	svcpl	0x00646576
    14b8:	746e6f63 	strbtvc	r6, [lr], #-3939	; 0xfffff09d
    14bc:	00747865 	rsbseq	r7, r4, r5, ror #16
    14c0:	736e6f6e 	cmnvc	lr, #440	; 0x1b8
    14c4:	63636163 	cmnvs	r3, #-1073741800	; 0xc0000018
    14c8:	726c7274 	rsbvc	r7, ip, #116, 4	; 0x40000007
    14cc:	63656300 	cmnvs	r5, #0, 6
    14d0:	65730072 	ldrbvs	r0, [r3, #-114]!	; 0xffffff8e
    14d4:	74745f74 	ldrbtvc	r5, [r4], #-3956	; 0xfffff08c
    14d8:	00307262 	eorseq	r7, r0, r2, ror #4
    14dc:	746f7275 	strbtvc	r7, [pc], #-629	; 14e4 <set_copro_default+0x54>
    14e0:	00646970 	rsbeq	r6, r4, r0, ror r9
    14e4:	68637261 	stmdavs	r3!, {r0, r5, r6, r9, ip, sp, lr}^
    14e8:	6d72612f 	ldfvse	f6, [r2, #-188]!	; 0xffffff44
    14ec:	63616d2f 	cmnvs	r1, #3008	; 0xbc0
    14f0:	75732d68 	ldrbvc	r2, [r3, #-3432]!	; 0xfffff298
    14f4:	2f69786e 	svccs	0x0069786e
    14f8:	732f6d70 			; <UNDEFINED> instruction: 0x732f6d70
    14fc:	646e6174 	strbtvs	r6, [lr], #-372	; 0xfffffe8c
    1500:	2e2f7962 	cdpcs	9, 2, cr7, cr15, cr2, {3}
    1504:	656d2f2e 	strbvs	r2, [sp, #-3886]!	; 0xfffff0d2
    1508:	70635f6d 	rsbvc	r5, r3, sp, ror #30
    150c:	00632e75 	rsbeq	r2, r3, r5, ror lr
    1510:	61735f5f 	cmnvs	r3, pc, asr pc
    1514:	705f6576 	subsvc	r6, pc, r6, ror r5	; <UNPREDICTABLE>
    1518:	65636f72 	strbvs	r6, [r3, #-3954]!	; 0xfffff08e
    151c:	726f7373 	rsbvc	r7, pc, #-872415231	; 0xcc000001
    1520:	6174735f 	cmnvs	r4, pc, asr r3
    1524:	73006574 	movwvc	r6, #1396	; 0x574
    1528:	64657661 	strbtvs	r7, [r5], #-1633	; 0xfffff99f
    152c:	7370735f 	cmnvc	r0, #2080374785	; 0x7c000001
    1530:	6e755f72 	mrcvs	15, 3, r5, cr5, cr2, {3}
    1534:	63660064 	cmnvs	r6, #100	; 0x64
    1538:	73006573 	movwvc	r6, #1395	; 0x573
    153c:	64657661 	strbtvs	r7, [r5], #-1633	; 0xfffff99f
    1540:	6e6f635f 	mcrvs	3, 3, r6, cr15, cr15, {2}
    1544:	74786574 	ldrbtvc	r6, [r8], #-1396	; 0xfffffa8c
    1548:	3331725f 	teqcc	r1, #-268435451	; 0xf0000005
    154c:	646e755f 	strbtvs	r7, [lr], #-1375	; 0xfffffaa1
    1550:	76617300 	strbtvc	r7, [r1], -r0, lsl #6
    1554:	635f6465 	cmpvs	pc, #1694498816	; 0x65000000
    1558:	65746e6f 	ldrbvs	r6, [r4, #-3695]!	; 0xfffff191
    155c:	725f7478 	subsvc	r7, pc, #120, 8	; 0x78000000
    1560:	735f3231 	cmpvc	pc, #268435459	; 0x10000003
    1564:	73006376 	movwvc	r6, #886	; 0x376
    1568:	64657661 	strbtvs	r7, [r5], #-1633	; 0xfffff99f
    156c:	7370635f 	cmnvc	r0, #2080374785	; 0x7c000001
    1570:	76735f72 	uhsub16vc	r5, r3, r2
    1574:	666f0063 	strbtvs	r0, [pc], -r3, rrx
    1578:	70007273 	andvc	r7, r0, r3, ror r2
    157c:	6e6f636d 	cdpvs	3, 6, cr6, cr15, cr13, {3}
    1580:	6c6f7274 	sfmvs	f7, 2, [pc], #-464	; 13b8 <__restore_processor_state+0x204>
    1584:	65630072 	strbvs	r0, [r3, #-114]!	; 0xffffff8e
    1588:	64007273 	strvs	r7, [r0], #-627	; 0xfffffd8d
    158c:	75616665 	strbvc	r6, [r1, #-1637]!	; 0xfffff99b
    1590:	635f746c 	cmpvs	pc, #108, 8	; 0x6c000000
    1594:	6f72706f 	svcvs	0x0072706f
    1598:	6c61765f 	stclvs	6, cr7, [r1], #-380	; 0xfffffe84
    159c:	69006575 	stmdbvs	r0, {r0, r2, r4, r5, r6, r8, sl, sp, lr}
    15a0:	7273665f 	rsbsvc	r6, r3, #99614720	; 0x5f00000
    15a4:	665f6400 	ldrbvs	r6, [pc], -r0, lsl #8
    15a8:	6d007261 	sfmvs	f7, 4, [r0, #-388]	; 0xfffffe7c
    15ac:	72616276 	rsbvc	r6, r1, #1610612743	; 0x60000007
    15b0:	636d7000 	cmnvs	sp, #0
    15b4:	746e756f 	strbtvc	r7, [lr], #-1391	; 0xfffffa91
    15b8:	5f690072 	svcpl	0x00690072
    15bc:	72736661 	rsbsvc	r6, r3, #101711872	; 0x6100000
    15c0:	76617300 	strbtvc	r7, [r1], -r0, lsl #6
    15c4:	635f6465 	cmpvs	pc, #1694498816	; 0x65000000
    15c8:	65746e6f 	ldrbvs	r6, [r4, #-3695]!	; 0xfffff191
    15cc:	725f7478 	subsvc	r7, pc, #120, 8	; 0x78000000
    15d0:	615f3331 	cmpvs	pc, r1, lsr r3	; <UNPREDICTABLE>
    15d4:	73007462 	movwvc	r7, #1122	; 0x462
    15d8:	64657661 	strbtvs	r7, [r5], #-1633	; 0xfffff99f
    15dc:	706d655f 	rsbvc	r6, sp, pc, asr r5
    15e0:	635f7974 	cmpvs	pc, #116, 18	; 0x1d0000
    15e4:	65746e6f 	ldrbvs	r6, [r4, #-3695]!	; 0xfffff191
    15e8:	735f7478 	cmpvc	pc, #120, 8	; 0x78000000
    15ec:	73006376 	movwvc	r6, #886	; 0x376
    15f0:	64657661 	strbtvs	r7, [r5], #-1633	; 0xfffff99f
    15f4:	6e6f635f 	mcrvs	3, 3, r6, cr15, cr15, {2}
    15f8:	74786574 	ldrbtvc	r6, [r8], #-1396	; 0xfffffa8c
    15fc:	3331725f 	teqcc	r1, #-268435451	; 0xf0000005
    1600:	7379735f 	cmnvc	r9, #2080374785	; 0x7c000001
    1604:	76617300 	strbtvc	r7, [r1], -r0, lsl #6
    1608:	635f6465 	cmpvs	pc, #1694498816	; 0x65000000
    160c:	65746e6f 	ldrbvs	r6, [r4, #-3695]!	; 0xfffff191
    1610:	725f7478 	subsvc	r7, pc, #120, 8	; 0x78000000
    1614:	6d5f3331 	ldclvs	3, cr3, [pc, #-196]	; 1558 <set_ttbr0+0xc>
    1618:	73006e6f 	movwvc	r6, #3695	; 0xe6f
    161c:	735f7465 	cmpvc	pc, #1694498816	; 0x65000000
    1620:	61697265 	cmnvs	r9, r5, ror #4
    1624:	6c635f6c 	stclvs	15, cr5, [r3], #-432	; 0xfffffe50
    1628:	6573006b 	ldrbvs	r0, [r3, #-107]!	; 0xffffff95
    162c:	65735f74 	ldrbvs	r5, [r3, #-3956]!	; 0xfffff08c
    1630:	6c616972 	stclvs	9, cr6, [r1], #-456	; 0xfffffe38
    1634:	6970675f 	ldmdbvs	r0!, {r0, r1, r2, r3, r4, r6, r8, r9, sl, sp, lr}^
    1638:	6573006f 	ldrbvs	r0, [r3, #-111]!	; 0xffffff91
    163c:	6c616972 	stclvs	9, cr6, [r1], #-456	; 0xfffffe38
    1640:	7465675f 	strbtvc	r6, [r5], #-1887	; 0xfffff8a1
    1644:	65730073 	ldrbvs	r0, [r3, #-115]!	; 0xffffff8d
    1648:	6c616972 	stclvs	9, cr6, [r1], #-456	; 0xfffffe38
    164c:	696e695f 	stmdbvs	lr!, {r0, r1, r2, r3, r4, r6, r8, fp, sp, lr}^
    1650:	69740074 	ldmdbvs	r4!, {r2, r4, r5, r6}^
    1654:	6200656d 	andvs	r6, r0, #457179136	; 0x1b400000
    1658:	756b6361 	strbvc	r6, [fp, #-865]!	; 0xfffffc9f
    165c:	70675f70 	rsbvc	r5, r7, r0, ror pc
    1660:	755f6f69 	ldrbvc	r6, [pc, #-3945]	; 6ff <init_event_counter+0x1f>
    1664:	00747261 	rsbseq	r7, r4, r1, ror #4
    1668:	69726573 	ldmdbvs	r2!, {r0, r1, r4, r5, r6, r8, sl, sp, lr}^
    166c:	675f6c61 	ldrbvs	r6, [pc, -r1, ror #24]
    1670:	635f7465 	cmpvs	pc, #1694498816	; 0x65000000
    1674:	00726168 	rsbseq	r6, r2, r8, ror #2
    1678:	5f637273 	svcpl	0x00637273
    167c:	71657266 	cmnvc	r5, r6, ror #4
    1680:	6d656d00 	stclvs	13, cr6, [r5, #-0]
    1684:	7465675f 	strbtvc	r6, [r5], #-1887	; 0xfffff8a1
    1688:	0061625f 	rsbeq	r6, r1, pc, asr r2
    168c:	69726573 	ldmdbvs	r2!, {r0, r1, r4, r5, r6, r8, sl, sp, lr}^
    1690:	705f6c61 	subsvc	r6, pc, r1, ror #24
    1694:	635f7475 	cmpvs	pc, #1962934272	; 0x75000000
    1698:	00726168 	rsbseq	r6, r2, r8, ror #2
    169c:	6c633270 	sfmvs	f3, 2, [r3], #-448	; 0xfffffe40
    16a0:	6162006b 	cmnvs	r2, fp, rrx
    16a4:	70756b63 	rsbsvc	r6, r5, r3, ror #22
    16a8:	726f705f 	rsbvc	r7, pc, #95	; 0x5f
    16ac:	64695f74 	strbtvs	r5, [r9], #-3956	; 0xfffff08c
    16b0:	72657300 	rsbvc	r7, r5, #0, 6
    16b4:	5f6c6169 	svcpl	0x006c6169
    16b8:	74696e69 	strbtvc	r6, [r9], #-3689	; 0xfffff197
    16bc:	665f6465 	ldrbvs	r6, [pc], -r5, ror #8
    16c0:	0067616c 	rsbeq	r6, r7, ip, ror #2
    16c4:	5f756363 	svcpl	0x00756363
    16c8:	00676572 	rsbeq	r6, r7, r2, ror r5
    16cc:	69726573 	ldmdbvs	r2!, {r0, r1, r4, r5, r6, r8, sl, sp, lr}^
    16d0:	695f6c61 	ldmdbvs	pc, {r0, r5, r6, sl, fp, sp, lr}^	; <UNPREDICTABLE>
    16d4:	5f74696e 	svcpl	0x0074696e
    16d8:	616e616d 	cmnvs	lr, sp, ror #2
    16dc:	00726567 	rsbseq	r6, r2, r7, ror #10
    16e0:	5f756d6d 	svcpl	0x00756d6d
    16e4:	67616c66 	strbvs	r6, [r1, -r6, ror #24]!
    16e8:	72657300 	rsbvc	r7, r5, #0, 6
    16ec:	5f6c6169 	svcpl	0x006c6169
    16f0:	74697865 	strbtvc	r7, [r9], #-2149	; 0xfffff79b
    16f4:	6e616d5f 	mcrvs	13, 3, r6, cr1, cr15, {2}
    16f8:	72656761 	rsbvc	r6, r5, #25427968	; 0x1840000
    16fc:	72657300 	rsbvc	r7, r5, #0, 6
    1700:	5f6c6169 	svcpl	0x006c6169
    1704:	73746567 	cmnvc	r4, #432013312	; 0x19c00000
    1708:	6d6f6e5f 	stclvs	14, cr6, [pc, #-380]!	; 1594 <set_serial_clk+0x38>
    170c:	6200756d 	andvs	r7, r0, #457179136	; 0x1b400000
    1710:	756b6361 	strbvc	r6, [fp, #-865]!	; 0xfffffc9f
    1714:	63635f70 	cmnvs	r3, #112, 30	; 0x1c0
    1718:	61755f75 	cmnvs	r5, r5, ror pc
    171c:	725f7472 	subsvc	r7, pc, #1912602624	; 0x72000000
    1720:	74657365 	strbtvc	r7, [r5], #-869	; 0xfffffc9b
    1724:	63726100 	cmnvs	r2, #0, 2
    1728:	72612f68 	rsbvc	r2, r1, #104, 30	; 0x1a0
    172c:	616d2f6d 	cmnvs	sp, sp, ror #30
    1730:	732d6863 			; <UNDEFINED> instruction: 0x732d6863
    1734:	69786e75 	ldmdbvs	r8!, {r0, r2, r4, r5, r6, r9, sl, fp, sp, lr}^
    1738:	2f6d702f 	svccs	0x006d702f
    173c:	6e617473 	mcrvs	4, 3, r7, cr1, cr3, {3}
    1740:	2f796264 	svccs	0x00796264
    1744:	6d2f2e2e 	stcvs	14, cr2, [pc, #-184]!	; 1694 <serial_init_nommu+0x58>
    1748:	735f6d65 	cmpvc	pc, #6464	; 0x1940
    174c:	61697265 	cmnvs	r9, r5, ror #4
    1750:	00632e6c 	rsbeq	r2, r3, ip, ror #28
    1754:	69726573 	ldmdbvs	r2!, {r0, r1, r4, r5, r6, r8, sl, sp, lr}^
    1758:	705f6c61 	subsvc	r6, pc, r1, ror #24
    175c:	635f7475 	cmpvs	pc, #1962934272	; 0x75000000
    1760:	5f726168 	svcpl	0x00726168
    1764:	6d6d6f6e 	stclvs	15, cr6, [sp, #-440]!	; 0xfffffe48
    1768:	70610075 	rsbvc	r0, r1, r5, ror r0
    176c:	725f3262 	subsvc	r3, pc, #536870918	; 0x20000006
    1770:	73006765 	movwvc	r6, #1893	; 0x765
    1774:	61697265 	cmnvs	r9, r5, ror #4
    1778:	65675f6c 	strbvs	r5, [r7, #-3948]!	; 0xfffff094
    177c:	68635f74 	stmdavs	r3!, {r2, r4, r5, r6, r8, r9, sl, fp, ip, lr}^
    1780:	6e5f7261 	cdpvs	2, 5, cr7, cr15, cr1, {3}
    1784:	756d6d6f 	strbvc	r6, [sp, #-3439]!	; 0xfffff291
    1788:	726f7000 	rsbvc	r7, pc, #0
    178c:	65730074 	ldrbvs	r0, [r3, #-116]!	; 0xffffff8c
    1790:	6c616972 	stclvs	9, cr6, [r1], #-456	; 0xfffffe38
    1794:	6978655f 	ldmdbvs	r8!, {r0, r1, r2, r3, r4, r6, r8, sl, sp, lr}^
    1798:	61620074 	smcvs	8196	; 0x2004
    179c:	70756b63 	rsbsvc	r6, r5, r3, ror #22
    17a0:	7563635f 	strbvc	r6, [r3, #-863]!	; 0xfffffca1
    17a4:	7261755f 	rsbvc	r7, r1, #398458880	; 0x17c00000
    17a8:	74750074 	ldrbtvc	r0, [r5], #-116	; 0xffffff8c
    17ac:	7300616f 	movwvc	r6, #367	; 0x16f
    17b0:	5f657a69 	svcpl	0x00657a69
    17b4:	73700074 	cmnvc	r0, #116	; 0x74
    17b8:	66006372 			; <UNDEFINED> instruction: 0x66006372
    17bc:	616d726f 	cmnvs	sp, pc, ror #4
    17c0:	69660074 	stmdbvs	r6!, {r2, r4, r5, r6}^
    17c4:	635f6c6c 	cmpvs	pc, #108, 24	; 0x6c00
    17c8:	5f5f0068 	svcpl	0x005f0068
    17cc:	6c5f6176 	ldfvse	f6, [pc], {118}	; 0x76
    17d0:	00747369 	rsbseq	r7, r4, r9, ror #6
    17d4:	75626564 	strbvc	r6, [r2, #-1380]!	; 0xfffffa9c
    17d8:	72656767 	rsbvc	r6, r5, #27000832	; 0x19c0000
    17dc:	6675625f 			; <UNDEFINED> instruction: 0x6675625f
    17e0:	00726566 	rsbseq	r6, r2, r6, ror #10
    17e4:	6167656e 	cmnvs	r7, lr, ror #10
    17e8:	65766974 	ldrbvs	r6, [r6, #-2420]!	; 0xfffff68c
    17ec:	6f746900 	svcvs	0x00746900
    17f0:	72610061 	rsbvc	r0, r1, #97	; 0x61
    17f4:	612f6863 			; <UNDEFINED> instruction: 0x612f6863
    17f8:	6d2f6d72 	stcvs	13, cr6, [pc, #-456]!	; 1638 <serial_exit+0x30>
    17fc:	2d686361 	stclcs	3, cr6, [r8, #-388]!	; 0xfffffe7c
    1800:	786e7573 	stmdavc	lr!, {r0, r1, r4, r5, r6, r8, sl, ip, sp, lr}^
    1804:	6d702f69 	ldclvs	15, cr2, [r0, #-420]!	; 0xfffffe5c
    1808:	6174732f 	cmnvs	r4, pc, lsr #6
    180c:	7962646e 	stmdbvc	r2!, {r1, r2, r3, r5, r6, sl, sp, lr}^
    1810:	2f2e2e2f 	svccs	0x002e2e2f
    1814:	5f6d656d 	svcpl	0x006d656d
    1818:	6e697270 	mcrvs	2, 3, r7, cr9, cr0, {3}
    181c:	632e6b74 			; <UNDEFINED> instruction: 0x632e6b74
    1820:	61747300 	cmnvs	r4, r0, lsl #6
    1824:	61006b63 	tstvs	r0, r3, ror #22
    1828:	00736772 	rsbseq	r6, r3, r2, ror r7
    182c:	69646172 	stmdbvs	r4!, {r1, r4, r5, r6, r8, sp, lr}^
    1830:	5f5f0078 	svcpl	0x005f0078
    1834:	73007061 	movwvc	r7, #97	; 0x61
    1838:	656c7274 	strbvs	r7, [ip, #-628]!	; 0xfffffd8c
    183c:	6964006e 	stmdbvs	r4!, {r1, r2, r3, r5, r6}^
    1840:	5f746967 	svcpl	0x00746967
    1844:	69727473 	ldmdbvs	r2!, {r0, r1, r4, r5, r6, sl, ip, sp, lr}^
    1848:	7300676e 	movwvc	r6, #1902	; 0x76e
    184c:	70637274 	rsbvc	r7, r3, r4, ror r2
    1850:	64700079 	ldrbtvs	r0, [r0], #-121	; 0xffffff87
    1854:	00747365 	rsbseq	r7, r4, r5, ror #6
    1858:	6e697270 	mcrvs	2, 3, r7, cr9, cr0, {3}
    185c:	6c615f74 	stclvs	15, cr5, [r1], #-464	; 0xfffffe30
    1860:	006e6769 	rsbeq	r6, lr, r9, ror #14
    1864:	6e697270 	mcrvs	2, 3, r7, cr9, cr0, {3}
    1868:	6e5f6b74 	vmovvs.s8	r6, d15[3]
    186c:	756d6d6f 	strbvc	r6, [sp, #-3439]!	; 0xfffff291
    1870:	675f5f00 	ldrbvs	r5, [pc, -r0, lsl #30]
    1874:	5f63756e 	svcpl	0x0063756e
    1878:	6c5f6176 	ldfvse	f6, [pc], {118}	; 0x76
    187c:	00747369 	rsbseq	r7, r4, r9, ror #6
    1880:	6e727473 	mrcvs	4, 3, r7, cr2, cr3, {3}
    1884:	00746163 	rsbseq	r6, r4, r3, ror #2
    1888:	656d5f5f 	strbvs	r5, [sp, #-3935]!	; 0xfffff0a1
    188c:	69645f6d 	stmdbvs	r4!, {r0, r2, r3, r5, r6, r8, r9, sl, fp, ip, lr}^
    1890:	74003076 	strvc	r3, [r0], #-118	; 0xffffff8a
    1894:	7551706d 	ldrbvc	r7, [r1, #-109]	; 0xffffff93
    1898:	6400746f 	strvs	r7, [r0], #-1135	; 0xfffffb91
    189c:	73697669 	cmnvc	r9, #110100480	; 0x6900000
    18a0:	00726f69 	rsbseq	r6, r2, r9, ror #30
    18a4:	69766964 	ldmdbvs	r6!, {r2, r5, r6, r8, fp, sp, lr}^
    18a8:	646e6564 	strbtvs	r6, [lr], #-1380	; 0xfffffa9c
    18ac:	706d7400 	rsbvc	r7, sp, r0, lsl #8
    18b0:	00766944 	rsbseq	r6, r6, r4, asr #18
    18b4:	68637261 	stmdavs	r3!, {r0, r5, r6, r9, ip, sp, lr}^
    18b8:	6d72612f 	ldfvse	f6, [r2, #-188]!	; 0xffffff44
    18bc:	63616d2f 	cmnvs	r1, #3008	; 0xbc0
    18c0:	75732d68 	ldrbvc	r2, [r3, #-3432]!	; 0xfffff298
    18c4:	2f69786e 	svccs	0x0069786e
    18c8:	732f6d70 			; <UNDEFINED> instruction: 0x732f6d70
    18cc:	646e6174 	strbtvs	r6, [lr], #-372	; 0xfffffe8c
    18d0:	2e2f7962 	cdpcs	9, 2, cr7, cr15, cr2, {3}
    18d4:	656d2f2e 	strbvs	r2, [sp, #-3886]!	; 0xfffff0d2
    18d8:	69645f6d 	stmdbvs	r4!, {r0, r2, r3, r5, r6, r8, r9, sl, fp, ip, lr}^
    18dc:	62696c76 	rsbvs	r6, r9, #30208	; 0x7600
    18e0:	00632e63 	rsbeq	r2, r3, r3, ror #28
    18e4:	66696873 			; <UNDEFINED> instruction: 0x66696873
    18e8:	65720074 	ldrbvs	r0, [r2, #-116]!	; 0xffffff8c
    18ec:	746c7573 	strbtvc	r7, [ip], #-1395	; 0xfffffa8d
    18f0:	6d656d00 	stclvs	13, cr6, [r5, #-0]
    18f4:	746e695f 	strbtvc	r6, [lr], #-2399	; 0xfffff6a1
    18f8:	6978655f 	ldmdbvs	r8!, {r0, r1, r2, r3, r4, r6, r8, sl, sp, lr}^
    18fc:	72610074 	rsbvc	r0, r1, #116	; 0x74
    1900:	612f6863 			; <UNDEFINED> instruction: 0x612f6863
    1904:	6d2f6d72 	stcvs	13, cr6, [pc, #-456]!	; 1744 <serial_puts_nommu+0x68>
    1908:	2d686361 	stclcs	3, cr6, [r8, #-388]!	; 0xfffffe7c
    190c:	786e7573 	stmdavc	lr!, {r0, r1, r4, r5, r6, r8, sl, ip, sp, lr}^
    1910:	6d702f69 	ldclvs	15, cr2, [r0, #-420]!	; 0xfffffe5c
    1914:	6174732f 	cmnvs	r4, pc, lsr #6
    1918:	7962646e 	stmdbvc	r2!, {r1, r2, r3, r5, r6, sl, sp, lr}^
    191c:	2f2e2e2f 	svccs	0x002e2e2f
    1920:	5f6d656d 	svcpl	0x006d656d
    1924:	2e746e69 	cdpcs	14, 7, cr6, cr4, cr9, {3}
    1928:	4e490063 	cdpmi	0, 4, cr0, cr9, cr3, {3}
    192c:	4f535f54 	svcmi	0x00535f54
    1930:	45435255 	strbmi	r5, [r3, #-597]	; 0xfffffdab
    1934:	4253555f 	subsmi	r5, r3, #398458880	; 0x17c00000
    1938:	49434845 	stmdbmi	r3, {r0, r2, r6, fp, lr}^
    193c:	4e490030 	mcrmi	0, 2, r0, cr9, cr0, {1}
    1940:	4f535f54 	svcmi	0x00535f54
    1944:	45435255 	strbmi	r5, [r3, #-597]	; 0xfffffdab
    1948:	4253555f 	subsmi	r5, r3, #398458880	; 0x17c00000
    194c:	49434845 	stmdbmi	r3, {r0, r2, r6, fp, lr}^
    1950:	4e490031 	mcrmi	0, 2, r0, cr9, cr1, {1}
    1954:	4f535f54 	svcmi	0x00535f54
    1958:	45435255 	strbmi	r5, [r3, #-597]	; 0xfffffdab
    195c:	4253555f 	subsmi	r5, r3, #398458880	; 0x17c00000
    1960:	49434845 	stmdbmi	r3, {r0, r2, r6, fp, lr}^
    1964:	4e490032 	mcrmi	0, 2, r0, cr9, cr2, {1}
    1968:	4f535f54 	svcmi	0x00535f54
    196c:	45435255 	strbmi	r5, [r3, #-597]	; 0xfffffdab
    1970:	554f545f 	strbpl	r5, [pc, #-1119]	; 1519 <set_copro_default+0x89>
    1974:	4e504843 	cdpmi	8, 5, cr4, cr0, cr3, {2}
    1978:	656d004c 	strbvs	r0, [sp, #-76]!	; 0xffffffb4
    197c:	6e695f6d 	cdpvs	15, 6, cr5, cr9, cr13, {3}
    1980:	6e695f74 	mcrvs	15, 3, r5, cr9, cr4, {3}
    1984:	6d007469 	cfstrsvs	mvf7, [r0, #-420]	; 0xfffffe5c
    1988:	655f6d65 	ldrbvs	r6, [pc, #-3429]	; c2b <mem_preload_tlb+0xfb>
    198c:	6c62616e 	stfvse	f6, [r2], #-440	; 0xfffffe48
    1990:	6e695f65 	cdpvs	15, 6, cr5, cr9, cr5, {3}
    1994:	6e690074 	mcrvs	0, 3, r0, cr9, cr4, {3}
    1998:	72726574 	rsbsvc	r6, r2, #116, 10	; 0x1d000000
    199c:	5f747075 	svcpl	0x00747075
    19a0:	72756f73 	rsbsvc	r6, r5, #460	; 0x1cc
    19a4:	655f6563 	ldrbvs	r6, [pc, #-1379]	; 1449 <__restore_processor_state+0x295>
    19a8:	544e4900 	strbpl	r4, [lr], #-2304	; 0xfffff700
    19ac:	554f535f 	strbpl	r5, [pc, #-863]	; 1655 <serial_init_nommu+0x19>
    19b0:	5f454352 	svcpl	0x00454352
    19b4:	4f495047 	svcmi	0x00495047
    19b8:	4e490041 	cdpmi	0, 4, cr0, cr9, cr1, {2}
    19bc:	4f535f54 	svcmi	0x00535f54
    19c0:	45435255 	strbmi	r5, [r3, #-597]	; 0xfffffdab
    19c4:	4950475f 	ldmdbmi	r0, {r0, r1, r2, r3, r4, r6, r8, r9, sl, lr}^
    19c8:	4900424f 	stmdbmi	r0, {r0, r1, r2, r3, r6, r9, lr}
    19cc:	535f544e 	cmppl	pc, #1308622848	; 0x4e000000
    19d0:	4352554f 	cmpmi	r2, #331350016	; 0x13c00000
    19d4:	50475f45 	subpl	r5, r7, r5, asr #30
    19d8:	00434f49 	subeq	r4, r3, r9, asr #30
    19dc:	5f544e49 	svcpl	0x00544e49
    19e0:	52554f53 	subspl	r4, r5, #332	; 0x14c
    19e4:	475f4543 	ldrbmi	r4, [pc, -r3, asr #10]
    19e8:	444f4950 	strbmi	r4, [pc], #-2384	; 19f0 <serial_gets+0x60>
    19ec:	544e4900 	strbpl	r4, [lr], #-2304	; 0xfffff700
    19f0:	554f535f 	strbpl	r5, [pc, #-863]	; 1699 <serial_init_nommu+0x5d>
    19f4:	5f454352 	svcpl	0x00454352
    19f8:	4f495047 	svcmi	0x00495047
    19fc:	4e490045 	cdpmi	0, 4, cr0, cr9, cr5, {2}
    1a00:	4f535f54 	svcmi	0x00535f54
    1a04:	45435255 	strbmi	r5, [r3, #-597]	; 0xfffffdab
    1a08:	4950475f 	ldmdbmi	r0, {r0, r1, r2, r3, r4, r6, r8, r9, sl, lr}^
    1a0c:	4900464f 	stmdbmi	r0, {r0, r1, r2, r3, r6, r9, sl, lr}
    1a10:	535f544e 	cmppl	pc, #1308622848	; 0x4e000000
    1a14:	4352554f 	cmpmi	r2, #331350016	; 0x13c00000
    1a18:	50475f45 	subpl	r5, r7, r5, asr #30
    1a1c:	00474f49 	subeq	r4, r7, r9, asr #30
    1a20:	5f544e49 	svcpl	0x00544e49
    1a24:	52554f53 	subspl	r4, r5, #332	; 0x14c
    1a28:	475f4543 	ldrbmi	r4, [pc, -r3, asr #10]
    1a2c:	484f4950 	stmdami	pc, {r4, r6, r8, fp, lr}^	; <UNPREDICTABLE>
    1a30:	544e4900 	strbpl	r4, [lr], #-2304	; 0xfffff700
    1a34:	554f535f 	strbpl	r5, [pc, #-863]	; 16dd <serial_puts_nommu+0x1>
    1a38:	5f454352 	svcpl	0x00454352
    1a3c:	4f495047 	svcmi	0x00495047
    1a40:	4e490049 	cdpmi	0, 4, cr0, cr9, cr9, {2}
    1a44:	4f535f54 	svcmi	0x00535f54
    1a48:	45435255 	strbmi	r5, [r3, #-597]	; 0xfffffdab
    1a4c:	4950475f 	ldmdbmi	r0, {r0, r1, r2, r3, r4, r6, r8, r9, sl, lr}^
    1a50:	49004a4f 	stmdbmi	r0, {r0, r1, r2, r3, r6, r9, fp, lr}
    1a54:	535f544e 	cmppl	pc, #1308622848	; 0x4e000000
    1a58:	4352554f 	cmpmi	r2, #331350016	; 0x13c00000
    1a5c:	53555f45 	cmppl	r5, #276	; 0x114
    1a60:	47544f42 	ldrbmi	r4, [r4, -r2, asr #30]
    1a64:	544e4900 	strbpl	r4, [lr], #-2304	; 0xfffff700
    1a68:	554f535f 	strbpl	r5, [pc, #-863]	; 1711 <serial_puts_nommu+0x35>
    1a6c:	5f454352 	svcpl	0x00454352
    1a70:	4441524c 	strbmi	r5, [r1], #-588	; 0xfffffdb4
    1a74:	4e490043 	cdpmi	0, 4, cr0, cr9, cr3, {2}
    1a78:	4f535f54 	svcmi	0x00535f54
    1a7c:	45435255 	strbmi	r5, [r3, #-597]	; 0xfffffdab
    1a80:	4253555f 	subsmi	r5, r3, #398458880	; 0x17c00000
    1a84:	4943484f 	stmdbmi	r3, {r0, r1, r2, r3, r6, fp, lr}^
    1a88:	4e490030 	mcrmi	0, 2, r0, cr9, cr0, {1}
    1a8c:	4f535f54 	svcmi	0x00535f54
    1a90:	45435255 	strbmi	r5, [r3, #-597]	; 0xfffffdab
    1a94:	4253555f 	subsmi	r5, r3, #398458880	; 0x17c00000
    1a98:	4943484f 	stmdbmi	r3, {r0, r1, r2, r3, r6, fp, lr}^
    1a9c:	4e490031 	mcrmi	0, 2, r0, cr9, cr1, {1}
    1aa0:	4f535f54 	svcmi	0x00535f54
    1aa4:	45435255 	strbmi	r5, [r3, #-597]	; 0xfffffdab
    1aa8:	4253555f 	subsmi	r5, r3, #398458880	; 0x17c00000
    1aac:	4943484f 	stmdbmi	r3, {r0, r1, r2, r3, r6, fp, lr}^
    1ab0:	4e490032 	mcrmi	0, 2, r0, cr9, cr2, {1}
    1ab4:	4f535f54 	svcmi	0x00535f54
    1ab8:	45435255 	strbmi	r5, [r3, #-597]	; 0xfffffdab
    1abc:	5458455f 	ldrbpl	r4, [r8], #-1375	; 0xfffffaa1
    1ac0:	00494d4e 	subeq	r4, r9, lr, asr #26
    1ac4:	62616e65 	rsbvs	r6, r1, #1616	; 0x650
    1ac8:	625f656c 	subsvs	r6, pc, #108, 10	; 0x1b000000
    1acc:	74007469 	strvc	r7, [r0], #-1129	; 0xfffffb97
    1ad0:	7253706d 	subsvc	r7, r3, #109	; 0x6d
    1ad4:	4e490063 	cdpmi	0, 4, cr0, cr9, cr3, {3}
    1ad8:	4f535f54 	svcmi	0x00535f54
    1adc:	45435255 	strbmi	r5, [r3, #-597]	; 0xfffffdab
    1ae0:	4d49545f 	cfstrdmi	mvd5, [r9, #-380]	; 0xfffffe84
    1ae4:	00305245 	eorseq	r5, r0, r5, asr #4
    1ae8:	5f544e49 	svcpl	0x00544e49
    1aec:	52554f53 	subspl	r4, r5, #332	; 0x14c
    1af0:	545f4543 	ldrbpl	r4, [pc], #-1347	; 1af8 <print_align+0x8>
    1af4:	52454d49 	subpl	r4, r5, #4672	; 0x1240
    1af8:	69470031 	stmdbvs	r7, {r0, r4, r5}^
    1afc:	69444463 	stmdbvs	r4, {r0, r1, r5, r6, sl, lr}^
    1b00:	6d006373 	stcvs	3, cr6, [r0, #-460]	; 0xfffffe34
    1b04:	715f6d65 	cmpvc	pc, r5, ror #26
    1b08:	79726575 	ldmdbvc	r2!, {r0, r2, r4, r5, r6, r8, sl, sp, lr}^
    1b0c:	746e695f 	strbtvc	r6, [lr], #-2399	; 0xfffff6a1
    1b10:	544e4900 	strbpl	r4, [lr], #-2304	; 0xfffff700
    1b14:	554f535f 	strbpl	r5, [pc, #-863]	; 17bd <serial_gets_nommu+0x39>
    1b18:	5f454352 	svcpl	0x00454352
    1b1c:	00305249 	eorseq	r5, r0, r9, asr #4
    1b20:	5f544e49 	svcpl	0x00544e49
    1b24:	52554f53 	subspl	r4, r5, #332	; 0x14c
    1b28:	495f4543 	ldmdbmi	pc, {r0, r1, r6, r8, sl, lr}^	; <UNPREDICTABLE>
    1b2c:	49003152 	stmdbmi	r0, {r1, r4, r6, r8, ip, sp}
    1b30:	535f544e 	cmppl	pc, #1308622848	; 0x4e000000
    1b34:	4352554f 	cmpmi	r2, #331350016	; 0x13c00000
    1b38:	534d5f45 	movtpl	r5, #57157	; 0xdf45
    1b3c:	4f425f47 	svcmi	0x00425f47
    1b40:	6d740058 	ldclvs	0, cr0, [r4, #-352]!	; 0xfffffea0
    1b44:	70724770 	rsbsvc	r4, r2, r0, ror r7
    1b48:	544e4900 	strbpl	r4, [lr], #-2304	; 0xfffff700
    1b4c:	554f535f 	strbpl	r5, [pc, #-863]	; 17f5 <serial_gets_nommu+0x71>
    1b50:	5f454352 	svcpl	0x00454352
    1b54:	52414c41 	subpl	r4, r1, #16640	; 0x4100
    1b58:	6947004d 	stmdbvs	r7, {r0, r2, r3, r6}^
    1b5c:	69444363 	stmdbvs	r4, {r0, r1, r5, r6, r8, r9, lr}^
    1b60:	6d006373 	stcvs	3, cr6, [r0, #-460]	; 0xfffffe34
    1b64:	675f6d65 	ldrbvs	r6, [pc, -r5, ror #26]
    1b68:	5f6f6970 	svcpl	0x006f6970
    1b6c:	74736572 	ldrbtvc	r6, [r3], #-1394	; 0xfffffa8e
    1b70:	0065726f 	rsbeq	r7, r5, pc, ror #4
    1b74:	6f697067 	svcvs	0x00697067
    1b78:	6765725f 			; <UNDEFINED> instruction: 0x6765725f
    1b7c:	6361625f 	cmnvs	r1, #-268435451	; 0xf0000005
    1b80:	6770006b 	ldrbvs	r0, [r0, -fp, rrx]!
    1b84:	5f6f6970 	svcpl	0x006f6970
    1b88:	74617473 	strbtvc	r7, [r1], #-1139	; 0xfffffb8d
    1b8c:	72610065 	rsbvc	r0, r1, #101	; 0x65
    1b90:	612f6863 			; <UNDEFINED> instruction: 0x612f6863
    1b94:	6d2f6d72 	stcvs	13, cr6, [pc, #-456]!	; 19d4 <serial_gets+0x44>
    1b98:	2d686361 	stclcs	3, cr6, [r8, #-388]!	; 0xfffffe7c
    1b9c:	786e7573 	stmdavc	lr!, {r0, r1, r4, r5, r6, r8, sl, ip, sp, lr}^
    1ba0:	6d702f69 	ldclvs	15, cr2, [r0, #-420]!	; 0xfffffe5c
    1ba4:	6174732f 	cmnvs	r4, pc, lsr #6
    1ba8:	7962646e 	stmdbvc	r2!, {r1, r2, r3, r5, r6, sl, sp, lr}^
    1bac:	2f2e2e2f 	svccs	0x002e2e2f
    1bb0:	5f6d656d 	svcpl	0x006d656d
    1bb4:	6f697067 	svcvs	0x00697067
    1bb8:	6d00632e 	stcvs	3, cr6, [r0, #-184]	; 0xffffff48
    1bbc:	675f6d65 	ldrbvs	r6, [pc, -r5, ror #26]
    1bc0:	5f6f6970 	svcpl	0x006f6970
    1bc4:	65766173 	ldrbvs	r6, [r6, #-371]!	; 0xfffffe8d
    1bc8:	6f445700 	svcvs	0x00445700
    1bcc:	495f3167 	ldmdbmi	pc, {r0, r1, r2, r5, r6, r8, ip, sp}^	; <UNPREDICTABLE>
    1bd0:	535f7172 	cmppl	pc, #-2147483620	; 0x8000001c
    1bd4:	41006174 	tstmi	r0, r4, ror r1
    1bd8:	43317376 	teqmi	r1, #-671088639	; 0xd8000001
    1bdc:	4900746e 	stmdbmi	r0, {r1, r2, r3, r5, r6, sl, ip, sp, lr}
    1be0:	7443746e 	strbvc	r7, [r3], #-1134	; 0xfffffb92
    1be4:	6d54006c 	ldclvs	0, cr0, [r4, #-432]	; 0xfffffe50
    1be8:	6e493072 	mcrvs	0, 2, r3, cr9, cr2, {3}
    1bec:	6c615674 	stclvs	6, cr5, [r1], #-464	; 0xfffffe30
    1bf0:	6f445700 	svcvs	0x00445700
    1bf4:	435f3167 	cmpmi	pc, #-1073741799	; 0xc0000019
    1bf8:	5f6c7274 	svcpl	0x006c7274
    1bfc:	00676552 	rsbeq	r6, r7, r2, asr r5
    1c00:	5f6d656d 	svcpl	0x006d656d
    1c04:	5f726d74 	svcpl	0x00726d74
    1c08:	00746573 	rsbseq	r6, r4, r3, ror r5
    1c0c:	31726d54 	cmncc	r2, r4, asr sp
    1c10:	006c7443 	rsbeq	r7, ip, r3, asr #8
    1c14:	30726d54 	rsbscc	r6, r2, r4, asr sp
    1c18:	56746e43 	ldrbtpl	r6, [r4], -r3, asr #28
    1c1c:	54006c61 	strpl	r6, [r0], #-3169	; 0xfffff39f
    1c20:	4335726d 	teqmi	r5, #-805306362	; 0xd0000006
    1c24:	54006c74 	strpl	r6, [r0], #-3188	; 0xfffff38c
    1c28:	4932726d 	ldmdbmi	r2!, {r0, r2, r3, r5, r6, r9, ip, sp, lr}
    1c2c:	6156746e 	cmpvs	r6, lr, ror #8
    1c30:	5f5f006c 	svcpl	0x005f006c
    1c34:	5f6d656d 	svcpl	0x006d656d
    1c38:	5f726d74 	svcpl	0x00726d74
    1c3c:	5f676572 	svcpl	0x00676572
    1c40:	6d540074 	ldclvs	0, cr0, [r4, #-464]	; 0xfffffe30
    1c44:	6e433272 	mcrvs	2, 2, r3, cr3, cr2, {3}
    1c48:	6c615674 	stclvs	6, cr5, [r1], #-464	; 0xfffffe30
    1c4c:	74615700 	strbtvc	r5, [r1], #-1792	; 0xfffff900
    1c50:	6f446863 	svcvs	0x00446863
    1c54:	495f3167 	ldmdbmi	pc, {r0, r1, r2, r5, r6, r8, ip, sp}^	; <UNPREDICTABLE>
    1c58:	455f7172 	ldrbmi	r7, [pc, #-370]	; 1aee <utoa+0xca>
    1c5c:	61425f6e 	cmpvs	r2, lr, ror #30
    1c60:	656d006b 	strbvs	r0, [sp, #-107]!	; 0xffffff95
    1c64:	6d745f6d 	ldclvs	15, cr5, [r4, #-436]!	; 0xfffffe4c
    1c68:	78655f72 	stmdavc	r5!, {r1, r4, r5, r6, r8, r9, sl, fp, ip, lr}^
    1c6c:	61007469 	tstvs	r0, r9, ror #8
    1c70:	2f686372 	svccs	0x00686372
    1c74:	2f6d7261 	svccs	0x006d7261
    1c78:	6863616d 	stmdavs	r3!, {r0, r2, r3, r5, r6, r8, sp, lr}^
    1c7c:	6e75732d 	cdpvs	3, 7, cr7, cr5, cr13, {1}
    1c80:	702f6978 	eorvc	r6, pc, r8, ror r9	; <UNPREDICTABLE>
    1c84:	74732f6d 	ldrbtvc	r2, [r3], #-3949	; 0xfffff093
    1c88:	62646e61 	rsbvs	r6, r4, #1552	; 0x610
    1c8c:	2e2e2f79 	mcrcs	15, 1, r2, cr14, cr9, {3}
    1c90:	6d656d2f 	stclvs	13, cr6, [r5, #-188]!	; 0xffffff44
    1c94:	726d745f 	rsbvc	r7, sp, #1593835520	; 0x5f000000
    1c98:	5400632e 	strpl	r6, [r0], #-814	; 0xfffffcd2
    1c9c:	4934726d 	ldmdbmi	r4!, {r0, r2, r3, r5, r6, r9, ip, sp, lr}
    1ca0:	6156746e 	cmpvs	r6, lr, ror #8
    1ca4:	6d54006c 	ldclvs	0, cr0, [r4, #-432]	; 0xfffffe50
    1ca8:	6e433472 	mcrvs	4, 2, r3, cr3, cr2, {3}
    1cac:	6c615674 	stclvs	6, cr5, [r1], #-464	; 0xfffffe30
    1cb0:	74615700 	strbtvc	r5, [r1], #-1792	; 0xfffff900
    1cb4:	6f446863 	svcvs	0x00446863
    1cb8:	435f3167 	cmpmi	pc, #-1073741799	; 0xc0000019
    1cbc:	69666e6f 	stmdbvs	r6!, {r0, r1, r2, r3, r5, r6, r9, sl, fp, sp, lr}^
    1cc0:	65525f67 	ldrbvs	r5, [r2, #-3943]	; 0xfffff099
    1cc4:	61425f67 	cmpvs	r2, r7, ror #30
    1cc8:	6572006b 	ldrbvs	r0, [r2, #-107]!	; 0xffffff95
    1ccc:	76726573 			; <UNDEFINED> instruction: 0x76726573
    1cd0:	00386465 	eorseq	r6, r8, r5, ror #8
    1cd4:	32726d54 	rsbscc	r6, r2, #84, 26	; 0x1500
    1cd8:	006c7443 	rsbeq	r7, ip, r3, asr #8
    1cdc:	676f4457 			; <UNDEFINED> instruction: 0x676f4457
    1ce0:	6f4d5f31 	svcvs	0x004d5f31
    1ce4:	525f6564 	subspl	r6, pc, #100, 10	; 0x19000000
    1ce8:	57006765 	strpl	r6, [r0, -r5, ror #14]
    1cec:	68637461 	stmdavs	r3!, {r0, r5, r6, sl, ip, sp, lr}^
    1cf0:	31676f44 	cmncc	r7, r4, asr #30
    1cf4:	646f4d5f 	strbtvs	r4, [pc], #-3423	; 1cfc <printk+0x80>
    1cf8:	6765525f 			; <UNDEFINED> instruction: 0x6765525f
    1cfc:	6b61425f 	blvs	1852680 <__bss_end+0x184f504>
    1d00:	6d656d00 	stclvs	13, cr6, [r5, #-0]
    1d04:	726d745f 	rsbvc	r7, sp, #1593835520	; 0x5f000000
    1d08:	616e655f 	cmnvs	lr, pc, asr r5
    1d0c:	5f656c62 	svcpl	0x00656c62
    1d10:	63746177 	cmnvs	r4, #-1073741795	; 0xc000001d
    1d14:	676f6468 	strbvs	r6, [pc, -r8, ror #8]!
    1d18:	6d656d00 	stclvs	13, cr6, [r5, #-0]
    1d1c:	726d745f 	rsbvc	r7, sp, #1593835520	; 0x5f000000
    1d20:	696e695f 	stmdbvs	lr!, {r0, r1, r2, r3, r4, r6, r8, fp, sp, lr}^
    1d24:	44570074 	ldrbmi	r0, [r7], #-116	; 0xffffff8c
    1d28:	5f31676f 	svcpl	0x0031676f
    1d2c:	5f717249 	svcpl	0x00717249
    1d30:	73006e45 	movwvc	r6, #3653	; 0xe45
    1d34:	6e6f6365 	cdpvs	3, 6, cr6, cr15, cr5, {3}
    1d38:	656d0064 	strbvs	r0, [sp, #-100]!	; 0xffffff9c
    1d3c:	6d745f6d 	ldclvs	15, cr5, [r4, #-436]!	; 0xfffffe4c
    1d40:	65725f72 	ldrbvs	r5, [r2, #-3954]!	; 0xfffff08e
    1d44:	726f7473 	rsbvc	r7, pc, #1929379840	; 0x73000000
    1d48:	5f5f0065 	svcpl	0x005f0065
    1d4c:	5f4d454d 	svcpl	0x004d454d
    1d50:	5f524d54 	svcpl	0x00524d54
    1d54:	00474552 	subeq	r4, r7, r2, asr r5
    1d58:	5f6d656d 	svcpl	0x006d656d
    1d5c:	5f726d74 	svcpl	0x00726d74
    1d60:	61736964 	cmnvs	r3, r4, ror #18
    1d64:	5f656c62 	svcpl	0x00656c62
    1d68:	63746177 	cmnvs	r4, #-1073741795	; 0xc000001d
    1d6c:	676f6468 	strbvs	r6, [pc, -r8, ror #8]!
    1d70:	726d5400 	rsbvc	r5, sp, #0, 8
    1d74:	746e4935 	strbtvc	r4, [lr], #-2357	; 0xfffff6cb
    1d78:	006c6156 	rsbeq	r6, ip, r6, asr r1
    1d7c:	31726d54 	cmncc	r2, r4, asr sp
    1d80:	56746e49 	ldrbtpl	r6, [r4], -r9, asr #28
    1d84:	70006c61 	andvc	r6, r0, r1, ror #24
    1d88:	5f726d74 	svcpl	0x00726d74
    1d8c:	74617473 	strbtvc	r7, [r1], #-1139	; 0xfffffb8d
    1d90:	76410065 	strbvc	r0, [r1], -r5, rrx
    1d94:	76694473 			; <UNDEFINED> instruction: 0x76694473
    1d98:	726d5400 	rsbvc	r5, sp, #0, 8
    1d9c:	6c744333 	ldclvs	3, cr4, [r4], #-204	; 0xffffff34
    1da0:	73764100 	cmnvc	r6, #0, 2
    1da4:	006c7443 	rsbeq	r7, ip, r3, asr #8
    1da8:	53746e49 	cmnpl	r4, #1168	; 0x490
    1dac:	54006174 	strpl	r6, [r0], #-372	; 0xfffffe8c
    1db0:	4331726d 	teqmi	r1, #-805306362	; 0xd0000006
    1db4:	6156746e 	cmpvs	r6, lr, ror #8
    1db8:	6d54006c 	ldclvs	0, cr0, [r4, #-432]	; 0xfffffe50
    1dbc:	6e493372 	mcrvs	3, 2, r3, cr9, cr2, {3}
    1dc0:	6c615674 	stclvs	6, cr5, [r1], #-464	; 0xfffffe30
    1dc4:	6f445700 	svcvs	0x00445700
    1dc8:	435f3167 	cmpmi	pc, #-1073741799	; 0xc0000019
    1dcc:	525f6766 	subspl	r6, pc, #26738688	; 0x1980000
    1dd0:	41006765 	tstmi	r0, r5, ror #14
    1dd4:	43307376 	teqmi	r0, #-671088639	; 0xd8000001
    1dd8:	5400746e 	strpl	r7, [r0], #-1134	; 0xfffffb92
    1ddc:	4335726d 	teqmi	r5, #-805306362	; 0xd0000006
    1de0:	6156746e 	cmpvs	r6, lr, ror #8
    1de4:	6d54006c 	ldclvs	0, cr0, [r4, #-432]	; 0xfffffe50
    1de8:	67655272 			; <UNDEFINED> instruction: 0x67655272
    1dec:	726d5400 	rsbvc	r5, sp, #0, 8
    1df0:	6c744330 	ldclvs	3, cr4, [r4], #-192	; 0xffffff40
    1df4:	726d5400 	rsbvc	r5, sp, #0, 8
    1df8:	6c744334 	ldclvs	3, cr4, [r4], #-208	; 0xffffff30
    1dfc:	6d656d00 	stclvs	13, cr6, [r5, #-0]
    1e00:	726d745f 	rsbvc	r7, sp, #1593835520	; 0x5f000000
    1e04:	7661735f 			; <UNDEFINED> instruction: 0x7661735f
    1e08:	72610065 	rsbvc	r0, r1, #101	; 0x65
    1e0c:	612f6863 			; <UNDEFINED> instruction: 0x612f6863
    1e10:	6d2f6d72 	stcvs	13, cr6, [pc, #-456]!	; 1c50 <itoa.constprop.0+0xc8>
    1e14:	2d686361 	stclcs	3, cr6, [r8, #-388]!	; 0xfffffe7c
    1e18:	786e7573 	stmdavc	lr!, {r0, r1, r4, r5, r6, r8, sl, ip, sp, lr}^
    1e1c:	6d702f69 	ldclvs	15, cr2, [r0, #-420]!	; 0xfffffe5c
    1e20:	6174732f 	cmnvs	r4, pc, lsr #6
    1e24:	7962646e 	stmdbvc	r2!, {r1, r2, r3, r5, r6, sl, sp, lr}^
    1e28:	2f2e2e2f 	svccs	0x002e2e2f
    1e2c:	5f6d656d 	svcpl	0x006d656d
    1e30:	74736d74 	ldrbtvc	r6, [r3], #-3444	; 0xfffff28c
    1e34:	632e706d 			; <UNDEFINED> instruction: 0x632e706d
    1e38:	63726100 	cmnvs	r2, #0, 2
    1e3c:	72612f68 	rsbvc	r2, r1, #104, 30	; 0x1a0
    1e40:	616d2f6d 	cmnvs	sp, sp, ror #30
    1e44:	732d6863 			; <UNDEFINED> instruction: 0x732d6863
    1e48:	69786e75 	ldmdbvs	r8!, {r0, r2, r4, r5, r6, r9, sl, fp, sp, lr}^
    1e4c:	2f6d702f 	svccs	0x006d702f
    1e50:	6e617473 	mcrvs	4, 3, r7, cr1, cr3, {3}
    1e54:	2f796264 	svccs	0x00796264
    1e58:	6d2f2e2e 	stcvs	14, cr2, [pc, #-184]!	; 1da8 <printk+0x12c>
    1e5c:	685f6d65 	ldmdavs	pc, {r0, r2, r5, r6, r8, sl, fp, sp, lr}^	; <UNPREDICTABLE>
    1e60:	69707377 	ldmdbvs	r0!, {r0, r1, r2, r4, r5, r6, r8, r9, ip, sp, lr}^
    1e64:	636f6c6e 	cmnvs	pc, #28160	; 0x6e00
    1e68:	00632e6b 	rsbeq	r2, r3, fp, ror #28
    1e6c:	5f6d656d 	svcpl	0x006d656d
    1e70:	5f6b6c63 	svcpl	0x006b6c63
    1e74:	5f746567 	svcpl	0x00746567
    1e78:	6373696d 	cmnvs	r3, #1785856	; 0x1b4000
    1e7c:	63726100 	cmnvs	r2, #0, 2
    1e80:	72612f68 	rsbvc	r2, r1, #104, 30	; 0x1a0
    1e84:	616d2f6d 	cmnvs	sp, sp, ror #30
    1e88:	732d6863 			; <UNDEFINED> instruction: 0x732d6863
    1e8c:	69786e75 	ldmdbvs	r8!, {r0, r2, r4, r5, r6, r9, sl, fp, sp, lr}^
    1e90:	2f6d702f 	svccs	0x006d702f
    1e94:	6e617473 	mcrvs	4, 3, r7, cr1, cr3, {3}
    1e98:	2f796264 	svccs	0x00796264
    1e9c:	6d2f2e2e 	stcvs	14, cr2, [pc, #-184]!	; 1dec <printk+0x170>
    1ea0:	635f6d65 	cmpvs	pc, #6464	; 0x1940
    1ea4:	632e6b6c 			; <UNDEFINED> instruction: 0x632e6b6c
    1ea8:	756d4300 	strbvc	r4, [sp, #-768]!	; 0xfffffd00
    1eac:	5f676552 	svcpl	0x00676552
    1eb0:	316c6c50 	cmncc	ip, r0, asr ip
    1eb4:	5f6c7443 	svcpl	0x006c7443
    1eb8:	00706d74 	rsbseq	r6, r0, r4, ror sp
    1ebc:	5f6d656d 	svcpl	0x006d656d
    1ec0:	5f6b6c63 	svcpl	0x006b6c63
    1ec4:	64746567 	ldrbtvs	r6, [r4], #-1383	; 0xfffffa99
    1ec8:	6d007669 	stcvs	6, cr7, [r0, #-420]	; 0xfffffe5c
    1ecc:	635f6d65 	cmpvs	pc, #6464	; 0x1940
    1ed0:	735f6b6c 	cmpvc	pc, #108, 22	; 0x1b000
    1ed4:	00657661 	rsbeq	r7, r5, r1, ror #12
    1ed8:	5f756363 	svcpl	0x00756363
    1edc:	5f676572 	svcpl	0x00676572
    1ee0:	6b636162 	blvs	18da470 <__bss_end+0x18d72f4>
    1ee4:	6d656d00 	stclvs	13, cr6, [r5, #-0]
    1ee8:	6b6c635f 	blvs	1b1ac6c <__bss_end+0x1b17af0>
    1eec:	7465675f 	strbtvc	r6, [r5], #-1887	; 0xfffff8a1
    1ef0:	6c6c705f 	stclvs	0, cr7, [ip], #-380	; 0xfffffe84
    1ef4:	6361665f 	cmnvs	r1, #99614720	; 0x5f00000
    1ef8:	00726f74 	rsbseq	r6, r2, r4, ror pc
    1efc:	5f676572 	svcpl	0x00676572
    1f00:	006c6176 	rsbeq	r6, ip, r6, ror r1
    1f04:	6b6c6370 	blvs	1b1accc <__bss_end+0x1b17b50>
    1f08:	6174735f 	cmnvs	r4, pc, asr r3
    1f0c:	6d006574 	cfstr32vs	mvfx6, [r0, #-464]	; 0xfffffe30
    1f10:	635f6d65 	cmpvs	pc, #6464	; 0x1940
    1f14:	725f6b6c 	subsvc	r6, pc, #108, 22	; 0x1b000
    1f18:	6f747365 	svcvs	0x00747365
    1f1c:	43006572 	movwmi	r6, #1394	; 0x572
    1f20:	6552756d 	ldrbvs	r7, [r2, #-1389]	; 0xfffffa93
    1f24:	79535f67 	ldmdbvc	r3, {r0, r1, r2, r5, r6, r8, r9, sl, fp, ip, lr}^
    1f28:	6b6c4373 	blvs	1b12cfc <__bss_end+0x1b0fb80>
    1f2c:	5f766944 	svcpl	0x00766944
    1f30:	00706d74 	rsbseq	r6, r0, r4, ror sp

Disassembly of section .comment:

00000000 <.comment>:
   0:	3a434347 	bcc	10d0d24 <__bss_end+0x10cdba8>
   4:	704f2820 	subvc	r2, pc, r0, lsr #16
   8:	72576e65 	subsvc	r6, r7, #1616	; 0x650
   c:	43472074 	movtmi	r2, #28788	; 0x7074
  10:	2e352043 	cdpcs	0, 3, cr2, cr5, cr3, {2}
  14:	20302e32 	eorscs	r2, r0, r2, lsr lr
  18:	312d3037 			; <UNDEFINED> instruction: 0x312d3037
  1c:	2029312d 	eorcs	r3, r9, sp, lsr #2
  20:	2e322e35 	mrccs	14, 1, r2, cr2, cr5, {1}
  24:	Address 0x0000000000000024 is out of bounds.


Disassembly of section .ARM.attributes:

00000000 <.ARM.attributes>:
   0:	00002e41 	andeq	r2, r0, r1, asr #28
   4:	61656100 	cmnvs	r5, r0, lsl #2
   8:	01006962 	tsteq	r0, r2, ror #18
   c:	00000024 	andeq	r0, r0, r4, lsr #32
  10:	412d3705 			; <UNDEFINED> instruction: 0x412d3705
  14:	070a0600 	streq	r0, [sl, -r0, lsl #12]
  18:	09010841 	stmdbeq	r1, {r0, r6, fp}
  1c:	12020a02 	andne	r0, r2, #8192	; 0x2000
  20:	15011404 	strne	r1, [r1, #-1028]	; 0xfffffbfc
  24:	18031701 	stmdane	r3, {r0, r8, r9, sl, ip}
  28:	1c021a01 	stcne	10, cr1, [r2], {1}
  2c:	Address 0x000000000000002c is out of bounds.


Disassembly of section .debug_loc:

00000000 <.debug_loc>:
       0:	00000000 	andeq	r0, r0, r0
       4:	00000014 	andeq	r0, r0, r4, lsl r0
       8:	14500001 	ldrbne	r0, [r0], #-1
       c:	18000000 	stmdane	r0, {}	; <UNPREDICTABLE>
      10:	03000000 	movweq	r0, #0
      14:	9f047000 	svcls	0x00047000
      18:	00000018 	andeq	r0, r0, r8, lsl r0
      1c:	0000002c 	andeq	r0, r0, ip, lsr #32
      20:	01f30004 	mvnseq	r0, r4
      24:	00009f50 	andeq	r9, r0, r0, asr pc
	...
      30:	00180000 	andseq	r0, r8, r0
      34:	00010000 	andeq	r0, r1, r0
      38:	00001851 	andeq	r1, r0, r1, asr r8
      3c:	00002c00 	andeq	r2, r0, r0, lsl #24
      40:	f3000400 	vshl.u8	d0, d0, d0
      44:	009f5101 	addseq	r5, pc, r1, lsl #2
	...
      50:	04000000 	streq	r0, [r0], #-0
      54:	01000000 	mrseq	r0, (UNDEF: 0)
      58:	00045200 	andeq	r5, r4, r0, lsl #4
      5c:	00080000 	andeq	r0, r8, r0
      60:	00030000 	andeq	r0, r3, r0
      64:	089f7d72 	ldmeq	pc, {r1, r4, r5, r6, r8, sl, fp, ip, sp, lr}	; <UNPREDICTABLE>
      68:	18000000 	stmdane	r0, {}	; <UNPREDICTABLE>
      6c:	01000000 	mrseq	r0, (UNDEF: 0)
      70:	00005200 	andeq	r5, r0, r0, lsl #4
      74:	00000000 	andeq	r0, r0, r0
      78:	00040000 	andeq	r0, r4, r0
      7c:	001c0000 	andseq	r0, ip, r0
      80:	00010000 	andeq	r0, r1, r0
      84:	00001c51 	andeq	r1, r0, r1, asr ip
      88:	00002400 	andeq	r2, r0, r0, lsl #8
      8c:	71000300 	mrsvc	r0, LR_irq
      90:	00249f7c 	eoreq	r9, r4, ip, ror pc
      94:	002c0000 	eoreq	r0, ip, r0
      98:	00010000 	andeq	r0, r1, r0
      9c:	00000051 	andeq	r0, r0, r1, asr r0
      a0:	00000000 	andeq	r0, r0, r0
      a4:	00000400 	andeq	r0, r0, r0, lsl #8
      a8:	00001400 	andeq	r1, r0, r0, lsl #8
      ac:	50000100 	andpl	r0, r0, r0, lsl #2
      b0:	00000014 	andeq	r0, r0, r4, lsl r0
      b4:	00000018 	andeq	r0, r0, r8, lsl r0
      b8:	04700003 	ldrbteq	r0, [r0], #-3
      bc:	0000189f 	muleq	r0, pc, r8	; <UNPREDICTABLE>
      c0:	00002c00 	andeq	r2, r0, r0, lsl #24
      c4:	f3000600 	vmax.u8	d0, d0, d0
      c8:	04235001 	strteq	r5, [r3], #-1
      cc:	0000009f 	muleq	r0, pc, r0	; <UNPREDICTABLE>
      d0:	00000000 	andeq	r0, r0, r0
      d4:	00019400 	andeq	r9, r1, r0, lsl #8
      d8:	00019700 	andeq	r9, r1, r0, lsl #14
      dc:	50000100 	andpl	r0, r0, r0, lsl #2
      e0:	00000197 	muleq	r0, r7, r1
      e4:	00000244 	andeq	r0, r0, r4, asr #4
      e8:	74540001 	ldrbvc	r0, [r4], #-1
      ec:	b8000002 	stmdalt	r0, {r1}
      f0:	01000002 	tsteq	r0, r2
      f4:	00005400 	andeq	r5, r0, r0, lsl #8
      f8:	00000000 	andeq	r0, r0, r0
      fc:	014c0000 	mrseq	r0, (UNDEF: 76)
     100:	01540000 	cmpeq	r4, r0
     104:	00020000 	andeq	r0, r2, r0
     108:	01549f30 	cmpeq	r4, r0, lsr pc
     10c:	01580000 	cmpeq	r8, r0
     110:	00050000 	andeq	r0, r5, r0
     114:	1a330072 	bne	cc02e4 <__bss_end+0xcbd168>
     118:	0001589f 	muleq	r1, pc, r8	; <UNPREDICTABLE>
     11c:	00018700 	andeq	r8, r1, r0, lsl #14
     120:	52000100 	andpl	r0, r0, #0, 2
     124:	00000248 	andeq	r0, r0, r8, asr #4
     128:	00000258 	andeq	r0, r0, r8, asr r2
     12c:	58520001 	ldmdapl	r2, {r0}^
     130:	60000002 	andvs	r0, r0, r2
     134:	06000002 	streq	r0, [r0], -r2
     138:	80807200 	addhi	r7, r0, r0, lsl #4
     13c:	609f7c90 	umullsvs	r7, pc, r0, ip	; <UNPREDICTABLE>
     140:	64000002 	strvs	r0, [r0], #-2
     144:	06000002 	streq	r0, [r0], -r2
     148:	ffbf7200 			; <UNDEFINED> instruction: 0xffbf7200
     14c:	009f7c8f 	addseq	r7, pc, pc, lsl #25
     150:	00000000 	andeq	r0, r0, r0
     154:	30000000 	andcc	r0, r0, r0
     158:	40000000 	andmi	r0, r0, r0
     15c:	02000000 	andeq	r0, r0, #0
     160:	409f3000 	addsmi	r3, pc, r0
     164:	44000000 	strmi	r0, [r0], #-0
     168:	02000000 	andeq	r0, r0, #0
     16c:	449f3100 	ldrmi	r3, [pc], #256	; 174 <resume1_c_part+0x40>
     170:	48000000 	stmdami	r0, {}	; <UNPREDICTABLE>
     174:	02000000 	andeq	r0, r0, #0
     178:	489f3200 	ldmmi	pc, {r9, ip, sp}	; <UNPREDICTABLE>
     17c:	4c000000 	stcmi	0, cr0, [r0], {-0}
     180:	02000000 	andeq	r0, r0, #0
     184:	4c9f3300 	ldcmi	3, cr3, [pc], {0}
     188:	50000000 	andpl	r0, r0, r0
     18c:	02000000 	andeq	r0, r0, #0
     190:	009f3400 	addseq	r3, pc, r0, lsl #8
     194:	00000000 	andeq	r0, r0, r0
     198:	8c000000 	stchi	0, cr0, [r0], {-0}
     19c:	a0000000 	andge	r0, r0, r0
     1a0:	02000000 	andeq	r0, r0, #0
     1a4:	009f3000 	addseq	r3, pc, r0
     1a8:	00000000 	andeq	r0, r0, r0
     1ac:	44000000 	strmi	r0, [r0], #-0
     1b0:	60000001 	andvs	r0, r0, r1
     1b4:	01000001 	tsteq	r0, r1
     1b8:	01605000 	cmneq	r0, r0
     1bc:	01780000 	cmneq	r8, r0
     1c0:	00040000 	andeq	r0, r4, r0
     1c4:	9f5001f3 	svcls	0x005001f3
	...
     1d4:	0000000c 	andeq	r0, r0, ip
     1d8:	9f310002 	svcls	0x00310002
     1dc:	0000000c 	andeq	r0, r0, ip
     1e0:	00000014 	andeq	r0, r0, r4, lsl r0
     1e4:	14530001 	ldrbne	r0, [r3], #-1
     1e8:	18000000 	stmdane	r0, {}	; <UNPREDICTABLE>
     1ec:	05000000 	streq	r0, [r0, #-0]
     1f0:	40007300 	andmi	r7, r0, r0, lsl #6
     1f4:	00189f21 	andseq	r9, r8, r1, lsr #30
     1f8:	001c0000 	andseq	r0, ip, r0
     1fc:	00010000 	andeq	r0, r1, r0
     200:	00001c53 	andeq	r1, r0, r3, asr ip
     204:	00003400 	andeq	r3, r0, r0, lsl #8
     208:	9e000600 	cfmadd32ls	mvax0, mvfx0, mvfx0, mvfx0
     20c:	00000f04 	andeq	r0, r0, r4, lsl #30
     210:	00000080 	andeq	r0, r0, r0, lsl #1
     214:	00000000 	andeq	r0, r0, r0
     218:	00007400 	andeq	r7, r0, r0, lsl #8
     21c:	00007800 	andeq	r7, r0, r0, lsl #16
     220:	30000200 	andcc	r0, r0, r0, lsl #4
     224:	0000789f 	muleq	r0, pc, r8	; <UNPREDICTABLE>
     228:	00007c00 	andeq	r7, r0, r0, lsl #24
     22c:	73000500 	movwvc	r0, #1280	; 0x500
     230:	9f213400 	svcls	0x00213400
     234:	0000007c 	andeq	r0, r0, ip, ror r0
     238:	00000084 	andeq	r0, r0, r4, lsl #1
     23c:	00530001 	subseq	r0, r3, r1
     240:	00000000 	andeq	r0, r0, r0
     244:	84000000 	strhi	r0, [r0], #-0
     248:	8c000000 	stchi	0, cr0, [r0], {-0}
     24c:	02000000 	andeq	r0, r0, #0
     250:	009f3000 	addseq	r3, pc, r0
     254:	00000000 	andeq	r0, r0, r0
     258:	84000000 	strhi	r0, [r0], #-0
     25c:	90000000 	andls	r0, r0, r0
     260:	02000000 	andeq	r0, r0, #0
     264:	009f3000 	addseq	r3, pc, r0
     268:	00000000 	andeq	r0, r0, r0
     26c:	8c000000 	stchi	0, cr0, [r0], {-0}
     270:	a4000000 	strge	r0, [r0], #-0
     274:	01000000 	mrseq	r0, (UNDEF: 0)
     278:	00005300 	andeq	r5, r0, r0, lsl #6
     27c:	00000000 	andeq	r0, r0, r0
     280:	00900000 	addseq	r0, r0, r0
     284:	009c0000 	addseq	r0, ip, r0
     288:	00010000 	andeq	r0, r1, r0
     28c:	00000052 	andeq	r0, r0, r2, asr r0
     290:	00000000 	andeq	r0, r0, r0
     294:	0000b400 	andeq	fp, r0, r0, lsl #8
     298:	0000cc00 	andeq	ip, r0, r0, lsl #24
     29c:	50000100 	andpl	r0, r0, r0, lsl #2
     2a0:	000000cc 	andeq	r0, r0, ip, asr #1
     2a4:	000000d8 	ldrdeq	r0, [r0], -r8
     2a8:	01f30004 	mvnseq	r0, r4
     2ac:	00d89f50 	sbcseq	r9, r8, r0, asr pc
     2b0:	00e40000 	rsceq	r0, r4, r0
     2b4:	00010000 	andeq	r0, r1, r0
     2b8:	0000e450 	andeq	lr, r0, r0, asr r4
     2bc:	00014800 	andeq	r4, r1, r0, lsl #16
     2c0:	54000100 	strpl	r0, [r0], #-256	; 0xffffff00
	...
     2cc:	000000b4 	strheq	r0, [r0], -r4
     2d0:	000000cc 	andeq	r0, r0, ip, asr #1
     2d4:	9f300002 	svcls	0x00300002
     2d8:	000000d8 	ldrdeq	r0, [r0], -r8
     2dc:	000000e8 	andeq	r0, r0, r8, ror #1
     2e0:	9f300002 	svcls	0x00300002
     2e4:	000000e8 	andeq	r0, r0, r8, ror #1
     2e8:	000000f0 	strdeq	r0, [r0], -r0	; <UNPREDICTABLE>
     2ec:	01700006 	cmneq	r0, r6
     2f0:	9f1e0074 	svcls	0x001e0074
	...
     2fc:	000000b4 	strheq	r0, [r0], -r4
     300:	000000cc 	andeq	r0, r0, ip, asr #1
     304:	9f300002 	svcls	0x00300002
     308:	000000d8 	ldrdeq	r0, [r0], -r8
     30c:	000000ec 	andeq	r0, r0, ip, ror #1
     310:	9f300002 	svcls	0x00300002
     314:	00000138 	andeq	r0, r0, r8, lsr r1
     318:	0000013c 	andeq	r0, r0, ip, lsr r1
     31c:	00530001 	subseq	r0, r3, r1
     320:	00000000 	andeq	r0, r0, r0
     324:	b4000000 	strlt	r0, [r0], #-0
     328:	cc000000 	stcgt	0, cr0, [r0], {-0}
     32c:	02000000 	andeq	r0, r0, #0
     330:	d89f3000 	ldmle	pc, {ip, sp}	; <UNPREDICTABLE>
     334:	fc000000 	stc2	0, cr0, [r0], {-0}
     338:	02000000 	andeq	r0, r0, #0
     33c:	fc9f3000 	ldc2	0, cr3, [pc], {0}
     340:	48000000 	stmdami	r0, {}	; <UNPREDICTABLE>
     344:	01000001 	tsteq	r0, r1
     348:	00005000 	andeq	r5, r0, r0
     34c:	00000000 	andeq	r0, r0, r0
     350:	00b40000 	adcseq	r0, r4, r0
     354:	00cc0000 	sbceq	r0, ip, r0
     358:	00020000 	andeq	r0, r2, r0
     35c:	00d89f30 	sbcseq	r9, r8, r0, lsr pc
     360:	01000000 	mrseq	r0, (UNDEF: 0)
     364:	00020000 	andeq	r0, r2, r0
     368:	01009f30 	tsteq	r0, r0, lsr pc
     36c:	01040000 	mrseq	r0, (UNDEF: 4)
     370:	00010000 	andeq	r0, r1, r0
     374:	00000052 	andeq	r0, r0, r2, asr r0
     378:	00000000 	andeq	r0, r0, r0
     37c:	00010c00 	andeq	r0, r1, r0, lsl #24
     380:	00012800 	andeq	r2, r1, r0, lsl #16
     384:	30000200 	andcc	r0, r0, r0, lsl #4
     388:	0000009f 	muleq	r0, pc, r0	; <UNPREDICTABLE>
     38c:	00000000 	andeq	r0, r0, r0
     390:	00010c00 	andeq	r0, r1, r0, lsl #24
     394:	00012800 	andeq	r2, r1, r0, lsl #16
     398:	31000200 	mrscc	r0, R8_usr
     39c:	0000009f 	muleq	r0, pc, r0	; <UNPREDICTABLE>
     3a0:	00000000 	andeq	r0, r0, r0
     3a4:	00010c00 	andeq	r0, r1, r0, lsl #24
     3a8:	00011400 	andeq	r1, r1, r0, lsl #8
     3ac:	47000200 	strmi	r0, [r0, -r0, lsl #4]
     3b0:	0001149f 	muleq	r1, pc, r4	; <UNPREDICTABLE>
     3b4:	00012800 	andeq	r2, r1, r0, lsl #16
     3b8:	9e000600 	cfmadd32ls	mvax0, mvfx0, mvfx0, mvfx0
     3bc:	00000f04 	andeq	r0, r0, r4, lsl #30
     3c0:	00000080 	andeq	r0, r0, r0, lsl #1
     3c4:	00000000 	andeq	r0, r0, r0
     3c8:	00013800 	andeq	r3, r1, r0, lsl #16
     3cc:	00013c00 	andeq	r3, r1, r0, lsl #24
     3d0:	53000100 	movwpl	r0, #256	; 0x100
	...
     3dc:	00000148 	andeq	r0, r0, r8, asr #2
     3e0:	00000158 	andeq	r0, r0, r8, asr r1
     3e4:	58500001 	ldmdapl	r0, {r0}^
     3e8:	5c000001 	stcpl	0, cr0, [r0], {1}
     3ec:	01000001 	tsteq	r0, r1
     3f0:	015c5400 	cmpeq	ip, r0, lsl #8
     3f4:	01640000 	cmneq	r4, r0
     3f8:	00030000 	andeq	r0, r3, r0
     3fc:	649f0a74 	ldrvs	r0, [pc], #2676	; 404 <busy_waiting+0x18>
     400:	78000001 	stmdavc	r0, {r0}
     404:	01000001 	tsteq	r0, r1
     408:	00005400 	andeq	r5, r0, r0, lsl #8
     40c:	00000000 	andeq	r0, r0, r0
     410:	017c0000 	cmneq	ip, r0
     414:	01880000 	orreq	r0, r8, r0
     418:	00020000 	andeq	r0, r2, r0
     41c:	01889f31 	orreq	r9, r8, r1, lsr pc
     420:	01900000 	orrseq	r0, r0, r0
     424:	00010000 	andeq	r0, r1, r0
     428:	00019053 	andeq	r9, r1, r3, asr r0
     42c:	00019400 	andeq	r9, r1, r0, lsl #8
     430:	73000500 	movwvc	r0, #1280	; 0x500
     434:	9f214000 	svcls	0x00214000
     438:	00000194 	muleq	r0, r4, r1
     43c:	00000198 	muleq	r0, r8, r1
     440:	98530001 	ldmdals	r3, {r0}^
     444:	a8000001 	stmdage	r0, {r0}
     448:	06000001 	streq	r0, [r0], -r1
     44c:	0f049e00 	svceq	0x00049e00
     450:	00800000 	addeq	r0, r0, r0
     454:	00000000 	andeq	r0, r0, r0
     458:	a8000000 	stmdage	r0, {}	; <UNPREDICTABLE>
     45c:	b8000001 	stmdalt	r0, {r0}
     460:	02000001 	andeq	r0, r0, #1
     464:	009f3000 	addseq	r3, pc, r0
     468:	00000000 	andeq	r0, r0, r0
     46c:	d4000000 	strle	r0, [r0], #-0
     470:	d8000001 	stmdale	r0, {r0}
     474:	01000001 	tsteq	r0, r1
     478:	01d85000 	bicseq	r5, r8, r0
     47c:	01f40000 	mvnseq	r0, r0
     480:	00030000 	andeq	r0, r3, r0
     484:	f49f0270 			; <UNDEFINED> instruction: 0xf49f0270
     488:	00000001 	andeq	r0, r0, r1
     48c:	04000002 	streq	r0, [r0], #-2
     490:	5001f300 	andpl	pc, r1, r0, lsl #6
     494:	0000009f 	muleq	r0, pc, r0	; <UNPREDICTABLE>
     498:	00000000 	andeq	r0, r0, r0
     49c:	0001d400 	andeq	sp, r1, r0, lsl #8
     4a0:	0001ec00 	andeq	lr, r1, r0, lsl #24
     4a4:	30000200 	andcc	r0, r0, r0, lsl #4
     4a8:	0001ec9f 	muleq	r1, pc, ip	; <UNPREDICTABLE>
     4ac:	00020000 	andeq	r0, r2, r0
     4b0:	53000100 	movwpl	r0, #256	; 0x100
	...
     4bc:	000001d4 	ldrdeq	r0, [r0], -r4
     4c0:	000001f4 	strdeq	r0, [r0], -r4
     4c4:	9f300002 	svcls	0x00300002
	...
     4d0:	000006d4 	ldrdeq	r0, [r0], -r4
     4d4:	000006d8 	ldrdeq	r0, [r0], -r8
     4d8:	00720006 	rsbseq	r0, r2, r6
     4dc:	9f1afc09 	svcls	0x001afc09
     4e0:	000006d8 	ldrdeq	r0, [r0], -r8
     4e4:	000006e0 	andeq	r0, r0, r0, ror #13
     4e8:	00520001 	subseq	r0, r2, r1
     4ec:	00000000 	andeq	r0, r0, r0
     4f0:	9c000000 	stcls	0, cr0, [r0], {-0}
     4f4:	a0000007 	andge	r0, r0, r7
     4f8:	02000007 	andeq	r0, r0, #7
     4fc:	a09f3000 	addsge	r3, pc, r0
     500:	ac000007 	stcge	0, cr0, [r0], {7}
     504:	01000007 	tsteq	r0, r7
     508:	00005300 	andeq	r5, r0, r0, lsl #6
	...
     514:	000b0000 	andeq	r0, fp, r0
     518:	00010000 	andeq	r0, r1, r0
     51c:	00000b50 	andeq	r0, r0, r0, asr fp
     520:	00004400 	andeq	r4, r0, r0, lsl #8
     524:	54000100 	strpl	r0, [r0], #-256	; 0xffffff00
     528:	00000044 	andeq	r0, r0, r4, asr #32
     52c:	000000ac 	andeq	r0, r0, ip, lsr #1
     530:	01f30004 	mvnseq	r0, r4
     534:	00009f50 	andeq	r9, r0, r0, asr pc
	...
     540:	00280000 	eoreq	r0, r8, r0
     544:	00020000 	andeq	r0, r2, r0
     548:	00289f30 	eoreq	r9, r8, r0, lsr pc
     54c:	003b0000 	eorseq	r0, fp, r0
     550:	00010000 	andeq	r0, r1, r0
     554:	00000050 	andeq	r0, r0, r0, asr r0
	...
     560:	00005c00 	andeq	r5, r0, r0, lsl #24
     564:	30000200 	andcc	r0, r0, r0, lsl #4
     568:	00005c9f 	muleq	r0, pc, ip	; <UNPREDICTABLE>
     56c:	00008300 	andeq	r8, r0, r0, lsl #6
     570:	50000100 	andpl	r0, r0, r0, lsl #2
     574:	00000083 	andeq	r0, r0, r3, lsl #1
     578:	000000ac 	andeq	r0, r0, ip, lsr #1
     57c:	00550001 	subseq	r0, r5, r1
	...
     588:	68000000 	stmdavs	r0, {}	; <UNPREDICTABLE>
     58c:	02000000 	andeq	r0, r0, #0
     590:	689f3000 	ldmvs	pc, {ip, sp}	; <UNPREDICTABLE>
     594:	8c000000 	stchi	0, cr0, [r0], {-0}
     598:	06000000 	streq	r0, [r0], -r0
     59c:	02d80c00 	sbcseq	r0, r8, #0, 24
     5a0:	8c9f01c2 	ldfhis	f0, [pc], {194}	; 0xc2
     5a4:	ac000000 	stcge	0, cr0, [r0], {-0}
     5a8:	06000000 	streq	r0, [r0], -r0
     5ac:	006c0c00 	rsbeq	r0, ip, r0, lsl #24
     5b0:	009f01c2 	addseq	r0, pc, r2, asr #3
	...
     5bc:	0c000000 	stceq	0, cr0, [r0], {-0}
     5c0:	02000000 	andeq	r0, r0, #0
     5c4:	0c9f3000 	ldceq	0, cr3, [pc], {0}
     5c8:	20000000 	andcs	r0, r0, r0
     5cc:	01000000 	mrseq	r0, (UNDEF: 0)
     5d0:	00005000 	andeq	r5, r0, r0
     5d4:	00000000 	andeq	r0, r0, r0
     5d8:	00100000 	andseq	r0, r0, r0
     5dc:	00340000 	eorseq	r0, r4, r0
     5e0:	00010000 	andeq	r0, r1, r0
     5e4:	00000053 	andeq	r0, r0, r3, asr r0
     5e8:	00000000 	andeq	r0, r0, r0
     5ec:	0000e000 	andeq	lr, r0, r0
     5f0:	0000e800 	andeq	lr, r0, r0, lsl #16
     5f4:	50000100 	andpl	r0, r0, r0, lsl #2
     5f8:	000000e8 	andeq	r0, r0, r8, ror #1
     5fc:	00000180 	andeq	r0, r0, r0, lsl #3
     600:	01f30004 	mvnseq	r0, r4
     604:	00009f50 	andeq	r9, r0, r0, asr pc
     608:	00000000 	andeq	r0, r0, r0
     60c:	00e00000 	rsceq	r0, r0, r0
     610:	01580000 	cmpeq	r8, r0
     614:	00020000 	andeq	r0, r2, r0
     618:	01589f30 	cmpeq	r8, r0, lsr pc
     61c:	01800000 	orreq	r0, r0, r0
     620:	00050000 	andeq	r0, r5, r0
     624:	25440075 	strbcs	r0, [r4, #-117]	; 0xffffff8b
     628:	0000009f 	muleq	r0, pc, r0	; <UNPREDICTABLE>
     62c:	00000000 	andeq	r0, r0, r0
     630:	0000e000 	andeq	lr, r0, r0
     634:	00013000 	andeq	r3, r1, r0
     638:	30000200 	andcc	r0, r0, r0, lsl #4
     63c:	0000009f 	muleq	r0, pc, r0	; <UNPREDICTABLE>
     640:	00000000 	andeq	r0, r0, r0
     644:	0000e000 	andeq	lr, r0, r0
     648:	00012000 	andeq	r2, r1, r0
     64c:	30000200 	andcc	r0, r0, r0, lsl #4
     650:	0001209f 	muleq	r1, pc, r0	; <UNPREDICTABLE>
     654:	00015400 	andeq	r5, r1, r0, lsl #8
     658:	50000100 	andpl	r0, r0, r0, lsl #2
     65c:	00000154 	andeq	r0, r0, r4, asr r1
     660:	00000160 	andeq	r0, r0, r0, ror #2
     664:	80700005 	rsbshi	r0, r0, r5
     668:	009f47e0 	addseq	r4, pc, r0, ror #15
     66c:	00000000 	andeq	r0, r0, r0
     670:	e0000000 	and	r0, r0, r0
     674:	e8000000 	stmda	r0, {}	; <UNPREDICTABLE>
     678:	01000000 	mrseq	r0, (UNDEF: 0)
     67c:	00e85000 	rsceq	r5, r8, r0
     680:	01800000 	orreq	r0, r0, r0
     684:	00040000 	andeq	r0, r4, r0
     688:	9f5001f3 	svcls	0x005001f3
	...
     694:	00000180 	andeq	r0, r0, r0, lsl #3
     698:	000001c0 	andeq	r0, r0, r0, asr #3
     69c:	c0500001 	subsgt	r0, r0, r1
     6a0:	e0000001 	and	r0, r0, r1
     6a4:	03000001 	movweq	r0, #1
     6a8:	9f7f7000 	svcls	0x007f7000
     6ac:	000001e0 	andeq	r0, r0, r0, ror #3
     6b0:	000001f0 	strdeq	r0, [r0], -r0	; <UNPREDICTABLE>
     6b4:	f4500001 			; <UNDEFINED> instruction: 0xf4500001
     6b8:	1c000001 	stcne	0, cr0, [r0], {1}
     6bc:	01000002 	tsteq	r0, r2
     6c0:	021c5000 	andseq	r5, ip, #0
     6c4:	02200000 	eoreq	r0, r0, #0
     6c8:	00040000 	andeq	r0, r4, r0
     6cc:	9f5001f3 	svcls	0x005001f3
     6d0:	00000220 	andeq	r0, r0, r0, lsr #4
     6d4:	00000224 	andeq	r0, r0, r4, lsr #4
     6d8:	24500001 	ldrbcs	r0, [r0], #-1
     6dc:	28000002 	stmdacs	r0, {r1}
     6e0:	04000002 	streq	r0, [r0], #-2
     6e4:	5001f300 	andpl	pc, r1, r0, lsl #6
     6e8:	0000009f 	muleq	r0, pc, r0	; <UNPREDICTABLE>
     6ec:	00000000 	andeq	r0, r0, r0
     6f0:	0001c000 	andeq	ip, r1, r0
     6f4:	0001f400 	andeq	pc, r1, r0, lsl #8
     6f8:	51000100 	mrspl	r0, (UNDEF: 16)
	...
     704:	00000228 	andeq	r0, r0, r8, lsr #4
     708:	00000240 	andeq	r0, r0, r0, asr #4
     70c:	40500001 	subsmi	r0, r0, r1
     710:	44000002 	strmi	r0, [r0], #-2
     714:	04000002 	streq	r0, [r0], #-2
     718:	5001f300 	andpl	pc, r1, r0, lsl #6
     71c:	0002449f 	muleq	r2, pc, r4	; <UNPREDICTABLE>
     720:	00026000 	andeq	r6, r2, r0
     724:	50000100 	andpl	r0, r0, r0, lsl #2
     728:	00000260 	andeq	r0, r0, r0, ror #4
     72c:	000002b0 			; <UNDEFINED> instruction: 0x000002b0
     730:	01f30004 	mvnseq	r0, r4
     734:	02b09f50 	adcseq	r9, r0, #80, 30	; 0x140
     738:	02b40000 	adcseq	r0, r4, #0
     73c:	00010000 	andeq	r0, r1, r0
     740:	0002b450 	andeq	fp, r2, r0, asr r4
     744:	0002bc00 	andeq	fp, r2, r0, lsl #24
     748:	f3000400 	vshl.u8	d0, d0, d0
     74c:	009f5001 	addseq	r5, pc, r1
     750:	00000000 	andeq	r0, r0, r0
     754:	28000000 	stmdacs	r0, {}	; <UNPREDICTABLE>
     758:	60000002 	andvs	r0, r0, r2
     75c:	02000002 	andeq	r0, r0, #2
     760:	609f3000 	addsvs	r3, pc, r0
     764:	8c000002 	stchi	0, cr0, [r0], {2}
     768:	01000002 	tsteq	r0, r2
     76c:	028c5000 	addeq	r5, ip, #0
     770:	02940000 	addseq	r0, r4, #0
     774:	00030000 	andeq	r0, r3, r0
     778:	949f7f70 	ldrls	r7, [pc], #3952	; 780 <save_mmu_state>
     77c:	a4000002 	strge	r0, [r0], #-2
     780:	01000002 	tsteq	r0, r2
     784:	02a85000 	adceq	r5, r8, #0
     788:	02ac0000 	adceq	r0, ip, #0
     78c:	00010000 	andeq	r0, r1, r0
     790:	0002ac50 	andeq	sl, r2, r0, asr ip
     794:	0002b000 	andeq	fp, r2, r0
     798:	70000300 	andvc	r0, r0, r0, lsl #6
     79c:	02b09f7f 	adcseq	r9, r0, #508	; 0x1fc
     7a0:	02b80000 	adcseq	r0, r8, #0
     7a4:	00020000 	andeq	r0, r2, r0
     7a8:	02b89f30 	adcseq	r9, r8, #48, 30	; 0xc0
     7ac:	02bc0000 	adcseq	r0, ip, #0
     7b0:	00030000 	andeq	r0, r3, r0
     7b4:	009f7f70 	addseq	r7, pc, r0, ror pc	; <UNPREDICTABLE>
     7b8:	00000000 	andeq	r0, r0, r0
     7bc:	28000000 	stmdacs	r0, {}	; <UNPREDICTABLE>
     7c0:	60000002 	andvs	r0, r0, r2
     7c4:	02000002 	andeq	r0, r0, #2
     7c8:	b09f3000 	addslt	r3, pc, r0
     7cc:	b8000002 	stmdalt	r0, {r1}
     7d0:	02000002 	andeq	r0, r0, #2
     7d4:	009f3000 	addseq	r3, pc, r0
     7d8:	00000000 	andeq	r0, r0, r0
     7dc:	68000000 	stmdavs	r0, {}	; <UNPREDICTABLE>
     7e0:	6c000002 	stcvs	0, cr0, [r0], {2}
     7e4:	01000002 	tsteq	r0, r2
     7e8:	026c5300 	rsbeq	r5, ip, #0, 6
     7ec:	02700000 	rsbseq	r0, r0, #0
     7f0:	00030000 	andeq	r0, r3, r0
     7f4:	709f0173 	addsvc	r0, pc, r3, ror r1	; <UNPREDICTABLE>
     7f8:	84000002 	strhi	r0, [r0], #-2
     7fc:	01000002 	tsteq	r0, r2
     800:	02a85300 	adceq	r5, r8, #0, 6
     804:	02b00000 	adcseq	r0, r0, #0
     808:	00010000 	andeq	r0, r1, r0
     80c:	00000053 	andeq	r0, r0, r3, asr r0
     810:	00000000 	andeq	r0, r0, r0
     814:	0002e400 	andeq	lr, r2, r0, lsl #8
     818:	0002ec00 	andeq	lr, r2, r0, lsl #24
     81c:	50000100 	andpl	r0, r0, r0, lsl #2
     820:	000002ec 	andeq	r0, r0, ip, ror #5
     824:	0000038c 	andeq	r0, r0, ip, lsl #7
     828:	01f30004 	mvnseq	r0, r4
     82c:	00009f50 	andeq	r9, r0, r0, asr pc
     830:	00000000 	andeq	r0, r0, r0
     834:	02e40000 	rsceq	r0, r4, #0
     838:	03300000 	teqeq	r0, #0
     83c:	00020000 	andeq	r0, r2, r0
     840:	03309f30 	teqeq	r0, #48, 30	; 0xc0
     844:	03600000 	cmneq	r0, #0
     848:	00010000 	andeq	r0, r1, r0
     84c:	00036050 	andeq	r6, r3, r0, asr r0
     850:	00036c00 	andeq	r6, r3, r0, lsl #24
     854:	70000500 	andvc	r0, r0, r0, lsl #10
     858:	9f47e080 	svcls	0x0047e080
	...
     864:	000002e4 	andeq	r0, r0, r4, ror #5
     868:	00000364 	andeq	r0, r0, r4, ror #6
     86c:	9f300002 	svcls	0x00300002
     870:	00000364 	andeq	r0, r0, r4, ror #6
     874:	0000038c 	andeq	r0, r0, ip, lsl #7
     878:	00770005 	rsbseq	r0, r7, r5
     87c:	009f2544 	addseq	r2, pc, r4, asr #10
     880:	00000000 	andeq	r0, r0, r0
     884:	e4000000 	str	r0, [r0], #-0
     888:	48000002 	stmdami	r0, {r1}
     88c:	02000003 	andeq	r0, r0, #3
     890:	009f3000 	addseq	r3, pc, r0
     894:	00000000 	andeq	r0, r0, r0
     898:	e4000000 	str	r0, [r0], #-0
     89c:	ec000002 	stc	0, cr0, [r0], {2}
     8a0:	01000002 	tsteq	r0, r2
     8a4:	02ec5000 	rsceq	r5, ip, #0
     8a8:	038c0000 	orreq	r0, ip, #0
     8ac:	00040000 	andeq	r0, r4, r0
     8b0:	9f5001f3 	svcls	0x005001f3
	...
     8bc:	000002e4 	andeq	r0, r0, r4, ror #5
     8c0:	00000308 	andeq	r0, r0, r8, lsl #6
     8c4:	9f300002 	svcls	0x00300002
     8c8:	00000308 	andeq	r0, r0, r8, lsl #6
     8cc:	0000038c 	andeq	r0, r0, ip, lsl #7
     8d0:	049e0006 	ldreq	r0, [lr], #6
     8d4:	f1c208b4 			; <UNDEFINED> instruction: 0xf1c208b4
	...
     8e0:	0000038c 	andeq	r0, r0, ip, lsl #7
     8e4:	000003cc 	andeq	r0, r0, ip, asr #7
     8e8:	cc500001 	mrrcgt	0, 0, r0, r0, cr1	; <UNPREDICTABLE>
     8ec:	ec000003 	stc	0, cr0, [r0], {3}
     8f0:	03000003 	movweq	r0, #3
     8f4:	9f7f7000 	svcls	0x007f7000
     8f8:	000003ec 	andeq	r0, r0, ip, ror #7
     8fc:	000003fc 	strdeq	r0, [r0], -ip
     900:	00500001 	subseq	r0, r0, r1
     904:	28000004 	stmdacs	r0, {r2}
     908:	01000004 	tsteq	r0, r4
     90c:	04285000 	strteq	r5, [r8], #-0
     910:	042c0000 	strteq	r0, [ip], #-0
     914:	00040000 	andeq	r0, r4, r0
     918:	9f5001f3 	svcls	0x005001f3
     91c:	0000042c 	andeq	r0, r0, ip, lsr #8
     920:	00000430 	andeq	r0, r0, r0, lsr r4
     924:	30500001 	subscc	r0, r0, r1
     928:	34000004 	strcc	r0, [r0], #-4
     92c:	04000004 	streq	r0, [r0], #-4
     930:	5001f300 	andpl	pc, r1, r0, lsl #6
     934:	0000009f 	muleq	r0, pc, r0	; <UNPREDICTABLE>
     938:	00000000 	andeq	r0, r0, r0
     93c:	0003cc00 	andeq	ip, r3, r0, lsl #24
     940:	00040000 	andeq	r0, r4, r0
     944:	51000100 	mrspl	r0, (UNDEF: 16)
	...
     950:	00000434 	andeq	r0, r0, r4, lsr r4
     954:	0000044c 	andeq	r0, r0, ip, asr #8
     958:	4c500001 	mrrcmi	0, 0, r0, r0, cr1	; <UNPREDICTABLE>
     95c:	50000004 	andpl	r0, r0, r4
     960:	04000004 	streq	r0, [r0], #-4
     964:	5001f300 	andpl	pc, r1, r0, lsl #6
     968:	0004509f 	muleq	r4, pc, r0	; <UNPREDICTABLE>
     96c:	00046c00 	andeq	r6, r4, r0, lsl #24
     970:	50000100 	andpl	r0, r0, r0, lsl #2
     974:	0000046c 	andeq	r0, r0, ip, ror #8
     978:	000004bc 			; <UNDEFINED> instruction: 0x000004bc
     97c:	01f30004 	mvnseq	r0, r4
     980:	04bc9f50 	ldrteq	r9, [ip], #3920	; 0xf50
     984:	04c00000 	strbeq	r0, [r0], #0
     988:	00010000 	andeq	r0, r1, r0
     98c:	0004c050 	andeq	ip, r4, r0, asr r0
     990:	0004c800 	andeq	ip, r4, r0, lsl #16
     994:	f3000400 	vshl.u8	d0, d0, d0
     998:	009f5001 	addseq	r5, pc, r1
     99c:	00000000 	andeq	r0, r0, r0
     9a0:	34000000 	strcc	r0, [r0], #-0
     9a4:	6c000004 	stcvs	0, cr0, [r0], {4}
     9a8:	02000004 	andeq	r0, r0, #4
     9ac:	6c9f3000 	ldcvs	0, cr3, [pc], {0}
     9b0:	98000004 	stmdals	r0, {r2}
     9b4:	01000004 	tsteq	r0, r4
     9b8:	04985000 	ldreq	r5, [r8], #0
     9bc:	04a00000 	strteq	r0, [r0], #0
     9c0:	00030000 	andeq	r0, r3, r0
     9c4:	a09f7f70 	addsge	r7, pc, r0, ror pc	; <UNPREDICTABLE>
     9c8:	b0000004 	andlt	r0, r0, r4
     9cc:	01000004 	tsteq	r0, r4
     9d0:	04b45000 	ldrteq	r5, [r4], #0
     9d4:	04b80000 	ldrteq	r0, [r8], #0
     9d8:	00010000 	andeq	r0, r1, r0
     9dc:	0004b850 	andeq	fp, r4, r0, asr r8
     9e0:	0004bc00 	andeq	fp, r4, r0, lsl #24
     9e4:	70000300 	andvc	r0, r0, r0, lsl #6
     9e8:	04bc9f7f 	ldrteq	r9, [ip], #3967	; 0xf7f
     9ec:	04c40000 	strbeq	r0, [r4], #0
     9f0:	00020000 	andeq	r0, r2, r0
     9f4:	04c49f30 	strbeq	r9, [r4], #3888	; 0xf30
     9f8:	04c80000 	strbeq	r0, [r8], #0
     9fc:	00030000 	andeq	r0, r3, r0
     a00:	009f7f70 	addseq	r7, pc, r0, ror pc	; <UNPREDICTABLE>
     a04:	00000000 	andeq	r0, r0, r0
     a08:	34000000 	strcc	r0, [r0], #-0
     a0c:	6c000004 	stcvs	0, cr0, [r0], {4}
     a10:	02000004 	andeq	r0, r0, #4
     a14:	bc9f3000 	ldclt	0, cr3, [pc], {0}
     a18:	c4000004 	strgt	r0, [r0], #-4
     a1c:	02000004 	andeq	r0, r0, #4
     a20:	009f3000 	addseq	r3, pc, r0
     a24:	00000000 	andeq	r0, r0, r0
     a28:	74000000 	strvc	r0, [r0], #-0
     a2c:	78000004 	stmdavc	r0, {r2}
     a30:	01000004 	tsteq	r0, r4
     a34:	04785300 	ldrbteq	r5, [r8], #-768	; 0xfffffd00
     a38:	047c0000 	ldrbteq	r0, [ip], #-0
     a3c:	00030000 	andeq	r0, r3, r0
     a40:	7c9f0173 	ldfvcs	f0, [pc], {115}	; 0x73
     a44:	90000004 	andls	r0, r0, r4
     a48:	01000004 	tsteq	r0, r4
     a4c:	04b45300 	ldrteq	r5, [r4], #768	; 0x300
     a50:	04bc0000 	ldrteq	r0, [ip], #0
     a54:	00010000 	andeq	r0, r1, r0
     a58:	00000053 	andeq	r0, r0, r3, asr r0
	...
     a64:	00002000 	andeq	r2, r0, r0
     a68:	50000100 	andpl	r0, r0, r0, lsl #2
     a6c:	00000020 	andeq	r0, r0, r0, lsr #32
     a70:	00000044 	andeq	r0, r0, r4, asr #32
     a74:	44550001 	ldrbmi	r0, [r5], #-1
     a78:	48000000 	stmdami	r0, {}	; <UNPREDICTABLE>
     a7c:	01000000 	mrseq	r0, (UNDEF: 0)
     a80:	00485000 	subeq	r5, r8, r0
     a84:	00700000 	rsbseq	r0, r0, r0
     a88:	00010000 	andeq	r0, r1, r0
     a8c:	00007055 	andeq	r7, r0, r5, asr r0
     a90:	0000a800 	andeq	sl, r0, r0, lsl #16
     a94:	50000100 	andpl	r0, r0, r0, lsl #2
     a98:	000000a8 	andeq	r0, r0, r8, lsr #1
     a9c:	000000cc 	andeq	r0, r0, ip, asr #1
     aa0:	00550001 	subseq	r0, r5, r1
	...
     aac:	20000000 	andcs	r0, r0, r0
     ab0:	01000000 	mrseq	r0, (UNDEF: 0)
     ab4:	00205100 	eoreq	r5, r0, r0, lsl #2
     ab8:	00cc0000 	sbceq	r0, ip, r0
     abc:	00010000 	andeq	r0, r1, r0
     ac0:	00000058 	andeq	r0, r0, r8, asr r0
	...
     acc:	00002000 	andeq	r2, r0, r0
     ad0:	52000100 	andpl	r0, r0, #0, 2
     ad4:	00000020 	andeq	r0, r0, r0, lsr #32
     ad8:	000000cc 	andeq	r0, r0, ip, asr #1
     adc:	00570001 	subseq	r0, r7, r1
     ae0:	00000000 	andeq	r0, r0, r0
     ae4:	44000000 	strmi	r0, [r0], #-0
     ae8:	48000000 	stmdami	r0, {}	; <UNPREDICTABLE>
     aec:	01000000 	mrseq	r0, (UNDEF: 0)
     af0:	00485300 	subeq	r5, r8, r0, lsl #6
     af4:	00740000 	rsbseq	r0, r4, r0
     af8:	00010000 	andeq	r0, r1, r0
     afc:	00007456 	andeq	r7, r0, r6, asr r4
     b00:	00008800 	andeq	r8, r0, r0, lsl #16
     b04:	53000100 	movwpl	r0, #256	; 0x100
     b08:	00000088 	andeq	r0, r0, r8, lsl #1
     b0c:	0000008c 	andeq	r0, r0, ip, lsl #1
     b10:	01760003 	cmneq	r6, r3
     b14:	0000009f 	muleq	r0, pc, r0	; <UNPREDICTABLE>
     b18:	00000000 	andeq	r0, r0, r0
     b1c:	0000cc00 	andeq	ip, r0, r0, lsl #24
     b20:	0000e800 	andeq	lr, r0, r0, lsl #16
     b24:	50000100 	andpl	r0, r0, r0, lsl #2
     b28:	000000e8 	andeq	r0, r0, r8, ror #1
     b2c:	00000118 	andeq	r0, r0, r8, lsl r1
     b30:	185c0001 	ldmdane	ip, {r0}^
     b34:	64000001 	strvs	r0, [r0], #-1
     b38:	04000001 	streq	r0, [r0], #-1
     b3c:	5001f300 	andpl	pc, r1, r0, lsl #6
     b40:	0000009f 	muleq	r0, pc, r0	; <UNPREDICTABLE>
     b44:	00000000 	andeq	r0, r0, r0
     b48:	0000cc00 	andeq	ip, r0, r0, lsl #24
     b4c:	0000e800 	andeq	lr, r0, r0, lsl #16
     b50:	51000100 	mrspl	r0, (UNDEF: 16)
     b54:	000000e8 	andeq	r0, r0, r8, ror #1
     b58:	00000164 	andeq	r0, r0, r4, ror #2
     b5c:	00560001 	subseq	r0, r6, r1
     b60:	00000000 	andeq	r0, r0, r0
     b64:	cc000000 	stcgt	0, cr0, [r0], {-0}
     b68:	e8000000 	stmda	r0, {}	; <UNPREDICTABLE>
     b6c:	01000000 	mrseq	r0, (UNDEF: 0)
     b70:	00e85200 	rsceq	r5, r8, r0, lsl #4
     b74:	01640000 	cmneq	r4, r0
     b78:	00010000 	andeq	r0, r1, r0
     b7c:	00000055 	andeq	r0, r0, r5, asr r0
     b80:	00000000 	andeq	r0, r0, r0
     b84:	00011000 	andeq	r1, r1, r0
     b88:	00013400 	andeq	r3, r1, r0, lsl #8
     b8c:	50000100 	andpl	r0, r0, r0, lsl #2
     b90:	00000134 	andeq	r0, r0, r4, lsr r1
     b94:	00000138 	andeq	r0, r0, r8, lsr r1
     b98:	385e0001 	ldmdacc	lr, {r0}^
     b9c:	3c000001 	stccc	0, cr0, [r0], {1}
     ba0:	03000001 	movweq	r0, #1
     ba4:	9f017e00 	svcls	0x00017e00
     ba8:	0000013c 	andeq	r0, r0, ip, lsr r1
     bac:	00000144 	andeq	r0, r0, r4, asr #2
     bb0:	7f7e0003 	svcvc	0x007e0003
     bb4:	0001449f 	muleq	r1, pc, r4	; <UNPREDICTABLE>
     bb8:	00015000 	andeq	r5, r1, r0
     bbc:	5e000100 	adfpls	f0, f0, f0
     bc0:	00000158 	andeq	r0, r0, r8, asr r1
     bc4:	00000164 	andeq	r0, r0, r4, ror #2
     bc8:	017e0003 	cmneq	lr, r3
     bcc:	0000009f 	muleq	r0, pc, r0	; <UNPREDICTABLE>
     bd0:	00000000 	andeq	r0, r0, r0
     bd4:	00011000 	andeq	r1, r1, r0
     bd8:	00012c00 	andeq	r2, r1, r0, lsl #24
     bdc:	74000300 	strvc	r0, [r0], #-768	; 0xfffffd00
     be0:	012c9f70 			; <UNDEFINED> instruction: 0x012c9f70
     be4:	01340000 	teqeq	r4, r0
     be8:	00010000 	andeq	r0, r1, r0
     bec:	00000054 	andeq	r0, r0, r4, asr r0
     bf0:	00000000 	andeq	r0, r0, r0
     bf4:	00011000 	andeq	r1, r1, r0
     bf8:	00011800 	andeq	r1, r1, r0, lsl #16
     bfc:	5c000100 	stfpls	f0, [r0], {-0}
     c00:	00000118 	andeq	r0, r0, r8, lsl r1
     c04:	0000011c 	andeq	r0, r0, ip, lsl r1
     c08:	017c0003 	cmneq	ip, r3
     c0c:	00011c9f 	muleq	r1, pc, ip	; <UNPREDICTABLE>
     c10:	00013400 	andeq	r3, r1, r0, lsl #8
     c14:	5c000100 	stfpls	f0, [r0], {-0}
	...
     c20:	00000164 	andeq	r0, r0, r4, ror #2
     c24:	00000180 	andeq	r0, r0, r0, lsl #3
     c28:	80500001 	subshi	r0, r0, r1
     c2c:	cc000001 	stcgt	0, cr0, [r0], {1}
     c30:	01000001 	tsteq	r0, r1
     c34:	01cc5c00 	biceq	r5, ip, r0, lsl #24
     c38:	01e00000 	mvneq	r0, r0
     c3c:	00010000 	andeq	r0, r1, r0
     c40:	0001e052 	andeq	lr, r1, r2, asr r0
     c44:	0001f800 	andeq	pc, r1, r0, lsl #16
     c48:	5c000100 	stfpls	f0, [r0], {-0}
     c4c:	00000240 	andeq	r0, r0, r0, asr #4
     c50:	00000258 	andeq	r0, r0, r8, asr r2
     c54:	005c0001 	subseq	r0, ip, r1
     c58:	00000000 	andeq	r0, r0, r0
     c5c:	64000000 	strvs	r0, [r0], #-0
     c60:	80000001 	andhi	r0, r0, r1
     c64:	01000001 	tsteq	r0, r1
     c68:	01805100 	orreq	r5, r0, r0, lsl #2
     c6c:	02580000 	subseq	r0, r8, #0
     c70:	00010000 	andeq	r0, r1, r0
     c74:	0000005e 	andeq	r0, r0, lr, asr r0
     c78:	00000000 	andeq	r0, r0, r0
     c7c:	00016400 	andeq	r6, r1, r0, lsl #8
     c80:	00019800 	andeq	r9, r1, r0, lsl #16
     c84:	30000200 	andcc	r0, r0, r0, lsl #4
     c88:	0001989f 	muleq	r1, pc, r8	; <UNPREDICTABLE>
     c8c:	0001a800 	andeq	sl, r1, r0, lsl #16
     c90:	31000200 	mrscc	r0, R8_usr
     c94:	0001a89f 	muleq	r1, pc, r8	; <UNPREDICTABLE>
     c98:	0001fc00 	andeq	pc, r1, r0, lsl #24
     c9c:	55000100 	strpl	r0, [r0, #-256]	; 0xffffff00
     ca0:	000001fc 	strdeq	r0, [r0], -ip
     ca4:	00000240 	andeq	r0, r0, r0, asr #4
     ca8:	31300019 	teqcc	r0, r9, lsl r0
     cac:	01f36491 			; <UNDEFINED> instruction: 0x01f36491
     cb0:	282d3050 	stmdacs	sp!, {r4, r6, ip, sp}
     cb4:	13160001 	tstne	r6, #1
     cb8:	305001f3 	ldrshcc	r0, [r0], #-19	; 0xffffffed
     cbc:	0001282a 	andeq	r2, r1, sl, lsr #16
     cc0:	409f1316 	addsmi	r1, pc, r6, lsl r3	; <UNPREDICTABLE>
     cc4:	58000002 	stmdapl	r0, {r1}
     cc8:	02000002 	andeq	r0, r0, #2
     ccc:	009f3000 	addseq	r3, pc, r0
     cd0:	00000000 	andeq	r0, r0, r0
     cd4:	a8000000 	stmdage	r0, {}	; <UNPREDICTABLE>
     cd8:	b8000001 	stmdalt	r0, {r0}
     cdc:	02000001 	andeq	r0, r0, #1
     ce0:	b89f3000 	ldmlt	pc, {ip, sp}	; <UNPREDICTABLE>
     ce4:	bc000001 	stclt	0, cr0, [r0], {1}
     ce8:	01000001 	tsteq	r0, r1
     cec:	01bc5600 			; <UNDEFINED> instruction: 0x01bc5600
     cf0:	01cc0000 	biceq	r0, ip, r0
     cf4:	00010000 	andeq	r0, r1, r0
     cf8:	0001cc51 	andeq	ip, r1, r1, asr ip
     cfc:	00020c00 	andeq	r0, r2, r0, lsl #24
     d00:	56000100 	strpl	r0, [r0], -r0, lsl #2
     d04:	0000020c 	andeq	r0, r0, ip, lsl #4
     d08:	00000214 	andeq	r0, r0, r4, lsl r2
     d0c:	00510001 	subseq	r0, r1, r1
     d10:	00000000 	andeq	r0, r0, r0
     d14:	f0000000 			; <UNDEFINED> instruction: 0xf0000000
     d18:	f4000001 	vst4.8	{d0-d3}, [r0], r1
     d1c:	02000001 	andeq	r0, r0, #1
     d20:	f49f3000 			; <UNDEFINED> instruction: 0xf49f3000
     d24:	0c000001 	stceq	0, cr0, [r0], {1}
     d28:	02000002 	andeq	r0, r0, #2
     d2c:	0c9f3100 	ldfeqs	f3, [pc], {0}
     d30:	14000002 	strne	r0, [r0], #-2
     d34:	01000002 	tsteq	r0, r2
     d38:	00005500 	andeq	r5, r0, r0, lsl #10
     d3c:	00000000 	andeq	r0, r0, r0
     d40:	02580000 	subseq	r0, r8, #0
     d44:	02740000 	rsbseq	r0, r4, #0
     d48:	00020000 	andeq	r0, r2, r0
     d4c:	02747091 	rsbseq	r7, r4, #145	; 0x91
     d50:	02b40000 	adcseq	r0, r4, #0
     d54:	00010000 	andeq	r0, r1, r0
     d58:	0002b454 	andeq	fp, r2, r4, asr r4
     d5c:	0002c400 	andeq	ip, r2, r0, lsl #8
     d60:	74000300 	strvc	r0, [r0], #-768	; 0xfffffd00
     d64:	02d89f01 	sbcseq	r9, r8, #1, 30
     d68:	03680000 	cmneq	r8, #0
     d6c:	00010000 	andeq	r0, r1, r0
     d70:	00037054 	andeq	r7, r3, r4, asr r0
     d74:	00055400 	andeq	r5, r5, r0, lsl #8
     d78:	54000100 	strpl	r0, [r0], #-256	; 0xffffff00
	...
     d84:	00000258 	andeq	r0, r0, r8, asr r2
     d88:	00000294 	muleq	r0, r4, r2
     d8c:	70030006 	andvc	r0, r3, r6
     d90:	9f00002e 	svcls	0x0000002e
     d94:	00000294 	muleq	r0, r4, r2
     d98:	000002a4 	andeq	r0, r0, r4, lsr #5
     d9c:	a4550001 	ldrbge	r0, [r5], #-1
     da0:	b0000002 	andlt	r0, r0, r2
     da4:	03000002 	movweq	r0, #2
     da8:	9f017500 	svcls	0x00017500
     dac:	00000340 	andeq	r0, r0, r0, asr #6
     db0:	00000348 	andeq	r0, r0, r8, asr #6
     db4:	70030006 	andvc	r0, r3, r6
     db8:	9f00002e 	svcls	0x0000002e
     dbc:	00000358 	andeq	r0, r0, r8, asr r3
     dc0:	00000368 	andeq	r0, r0, r8, ror #6
     dc4:	dc550001 	mrrcle	0, 0, r0, r5, cr1
     dc8:	e0000003 	and	r0, r0, r3
     dcc:	01000003 	tsteq	r0, r3
     dd0:	042c5500 	strteq	r5, [ip], #-1280	; 0xfffffb00
     dd4:	04300000 	ldrteq	r0, [r0], #-0
     dd8:	00010000 	andeq	r0, r1, r0
     ddc:	00049c55 	andeq	r9, r4, r5, asr ip
     de0:	0004a000 	andeq	sl, r4, r0
     de4:	55000100 	strpl	r0, [r0, #-256]	; 0xffffff00
     de8:	00000508 	andeq	r0, r0, r8, lsl #10
     dec:	0000050c 	andeq	r0, r0, ip, lsl #10
     df0:	24550001 	ldrbcs	r0, [r5], #-1
     df4:	2c000005 	stccs	0, cr0, [r0], {5}
     df8:	03000005 	movweq	r0, #5
     dfc:	9f017500 	svcls	0x00017500
     e00:	0000052c 	andeq	r0, r0, ip, lsr #10
     e04:	0000053c 	andeq	r0, r0, ip, lsr r5
     e08:	00530001 	subseq	r0, r3, r1
     e0c:	00000000 	andeq	r0, r0, r0
     e10:	f4000000 	vst4.8	{d0-d3}, [r0], r0
     e14:	30000003 	andcc	r0, r0, r3
     e18:	01000004 	tsteq	r0, r4
     e1c:	00005000 	andeq	r5, r0, r0
     e20:	00000000 	andeq	r0, r0, r0
     e24:	02d80000 	sbcseq	r0, r8, #0
     e28:	03400000 	movteq	r0, #0
     e2c:	00010000 	andeq	r0, r1, r0
     e30:	00037059 	andeq	r7, r3, r9, asr r0
     e34:	00055400 	andeq	r5, r5, r0, lsl #8
     e38:	59000100 	stmdbpl	r0, {r8}
	...
     e44:	00000258 	andeq	r0, r0, r8, asr r2
     e48:	00000294 	muleq	r0, r4, r2
     e4c:	9f300002 	svcls	0x00300002
     e50:	00000340 	andeq	r0, r0, r0, asr #6
     e54:	00000348 	andeq	r0, r0, r8, asr #6
     e58:	9f300002 	svcls	0x00300002
     e5c:	000003c8 	andeq	r0, r0, r8, asr #7
     e60:	000003e0 	andeq	r0, r0, r0, ror #7
     e64:	88500001 	ldmdahi	r0, {r0}^
     e68:	a0000004 	andge	r0, r0, r4
     e6c:	01000004 	tsteq	r0, r4
     e70:	04f45000 	ldrbteq	r5, [r4], #0
     e74:	050c0000 	streq	r0, [ip, #-0]
     e78:	00010000 	andeq	r0, r1, r0
     e7c:	00000050 	andeq	r0, r0, r0, asr r0
     e80:	00000000 	andeq	r0, r0, r0
     e84:	00038c00 	andeq	r8, r3, r0, lsl #24
     e88:	0003e000 	andeq	lr, r3, r0
     e8c:	58000100 	stmdapl	r0, {r8}
     e90:	00000544 	andeq	r0, r0, r4, asr #10
     e94:	0000054c 	andeq	r0, r0, ip, asr #10
     e98:	00580001 	subseq	r0, r8, r1
     e9c:	00000000 	andeq	r0, r0, r0
     ea0:	8c000000 	stchi	0, cr0, [r0], {-0}
     ea4:	9c000003 	stcls	0, cr0, [r0], {3}
     ea8:	01000003 	tsteq	r0, r3
     eac:	039c5800 	orrseq	r5, ip, #0, 16
     eb0:	03a00000 	moveq	r0, #0
     eb4:	00010000 	andeq	r0, r1, r0
     eb8:	0003a053 	andeq	sl, r3, r3, asr r0
     ebc:	0003ac00 	andeq	sl, r3, r0, lsl #24
     ec0:	73000300 	movwvc	r0, #768	; 0x300
     ec4:	05449f7f 	strbeq	r9, [r4, #-3967]	; 0xfffff081
     ec8:	054c0000 	strbeq	r0, [ip, #-0]
     ecc:	00010000 	andeq	r0, r1, r0
     ed0:	00000058 	andeq	r0, r0, r8, asr r0
     ed4:	00000000 	andeq	r0, r0, r0
     ed8:	0003c800 	andeq	ip, r3, r0, lsl #16
     edc:	0003cc00 	andeq	ip, r3, r0, lsl #24
     ee0:	52000100 	andpl	r0, r0, #0, 2
     ee4:	000003cc 	andeq	r0, r0, ip, asr #7
     ee8:	000003e0 	andeq	r0, r0, r0, ror #7
     eec:	7f720003 	svcvc	0x00720003
     ef0:	0000009f 	muleq	r0, pc, r0	; <UNPREDICTABLE>
     ef4:	00000000 	andeq	r0, r0, r0
     ef8:	0003f400 	andeq	pc, r3, r0, lsl #8
     efc:	0003f800 	andeq	pc, r3, r0, lsl #16
     f00:	50000100 	andpl	r0, r0, r0, lsl #2
     f04:	000003f8 	strdeq	r0, [r0], -r8
     f08:	000003fc 	strdeq	r0, [r0], -ip
     f0c:	fc520001 	mrrc2	0, 0, r0, r2, cr1
     f10:	18000003 	stmdane	r0, {r0, r1}
     f14:	03000004 	movweq	r0, #4
     f18:	9f7f7200 	svcls	0x007f7200
	...
     f24:	000003f4 	strdeq	r0, [r0], -r4
     f28:	000003f8 	strdeq	r0, [r0], -r8
     f2c:	00550001 	subseq	r0, r5, r1
     f30:	00000000 	andeq	r0, r0, r0
     f34:	f4000000 	vst4.8	{d0-d3}, [r0], r0
     f38:	2c000003 	stccs	0, cr0, [r0], {3}
     f3c:	01000004 	tsteq	r0, r4
     f40:	00005500 	andeq	r5, r0, r0, lsl #10
     f44:	00000000 	andeq	r0, r0, r0
     f48:	04080000 	streq	r0, [r8], #-0
     f4c:	04180000 	ldreq	r0, [r8], #-0
     f50:	00010000 	andeq	r0, r1, r0
     f54:	00041850 	andeq	r1, r4, r0, asr r8
     f58:	00041c00 	andeq	r1, r4, r0, lsl #24
     f5c:	53000100 	movwpl	r0, #256	; 0x100
     f60:	0000041c 	andeq	r0, r0, ip, lsl r4
     f64:	00000424 	andeq	r0, r0, r4, lsr #8
     f68:	7f730003 	svcvc	0x00730003
     f6c:	0000009f 	muleq	r0, pc, r0	; <UNPREDICTABLE>
     f70:	00000000 	andeq	r0, r0, r0
     f74:	00044c00 	andeq	r4, r4, r0, lsl #24
     f78:	0004a000 	andeq	sl, r4, r0
     f7c:	58000100 	stmdapl	r0, {r8}
     f80:	0000054c 	andeq	r0, r0, ip, asr #10
     f84:	00000554 	andeq	r0, r0, r4, asr r5
     f88:	00580001 	subseq	r0, r8, r1
     f8c:	00000000 	andeq	r0, r0, r0
     f90:	4c000000 	stcmi	0, cr0, [r0], {-0}
     f94:	5c000004 	stcpl	0, cr0, [r0], {4}
     f98:	01000004 	tsteq	r0, r4
     f9c:	045c5800 	ldrbeq	r5, [ip], #-2048	; 0xfffff800
     fa0:	04600000 	strbteq	r0, [r0], #-0
     fa4:	00010000 	andeq	r0, r1, r0
     fa8:	00046053 	andeq	r6, r4, r3, asr r0
     fac:	00046c00 	andeq	r6, r4, r0, lsl #24
     fb0:	73000300 	movwvc	r0, #768	; 0x300
     fb4:	054c9f7f 	strbeq	r9, [ip, #-3967]	; 0xfffff081
     fb8:	05540000 	ldrbeq	r0, [r4, #-0]
     fbc:	00010000 	andeq	r0, r1, r0
     fc0:	00000058 	andeq	r0, r0, r8, asr r0
     fc4:	00000000 	andeq	r0, r0, r0
     fc8:	00048800 	andeq	r8, r4, r0, lsl #16
     fcc:	00048c00 	andeq	r8, r4, r0, lsl #24
     fd0:	52000100 	andpl	r0, r0, #0, 2
     fd4:	0000048c 	andeq	r0, r0, ip, lsl #9
     fd8:	000004a0 	andeq	r0, r0, r0, lsr #9
     fdc:	7f720003 	svcvc	0x00720003
     fe0:	0000009f 	muleq	r0, pc, r0	; <UNPREDICTABLE>
     fe4:	00000000 	andeq	r0, r0, r0
     fe8:	0004b800 	andeq	fp, r4, r0, lsl #16
     fec:	00050c00 	andeq	r0, r5, r0, lsl #24
     ff0:	58000100 	stmdapl	r0, {r8}
     ff4:	0000053c 	andeq	r0, r0, ip, lsr r5
     ff8:	00000544 	andeq	r0, r0, r4, asr #10
     ffc:	00580001 	subseq	r0, r8, r1
    1000:	00000000 	andeq	r0, r0, r0
    1004:	b8000000 	stmdalt	r0, {}	; <UNPREDICTABLE>
    1008:	c8000004 	stmdagt	r0, {r2}
    100c:	01000004 	tsteq	r0, r4
    1010:	04c85800 	strbeq	r5, [r8], #2048	; 0x800
    1014:	04cc0000 	strbeq	r0, [ip], #0
    1018:	00010000 	andeq	r0, r1, r0
    101c:	0004cc53 	andeq	ip, r4, r3, asr ip
    1020:	0004d800 	andeq	sp, r4, r0, lsl #16
    1024:	73000300 	movwvc	r0, #768	; 0x300
    1028:	053c9f7f 	ldreq	r9, [ip, #-3967]!	; 0xfffff081
    102c:	05440000 	strbeq	r0, [r4, #-0]
    1030:	00010000 	andeq	r0, r1, r0
    1034:	00000058 	andeq	r0, r0, r8, asr r0
    1038:	00000000 	andeq	r0, r0, r0
    103c:	0004f400 	andeq	pc, r4, r0, lsl #8
    1040:	0004f800 	andeq	pc, r4, r0, lsl #16
    1044:	52000100 	andpl	r0, r0, #0, 2
    1048:	000004f8 	strdeq	r0, [r0], -r8
    104c:	0000050c 	andeq	r0, r0, ip, lsl #10
    1050:	7f720003 	svcvc	0x00720003
    1054:	0000009f 	muleq	r0, pc, r0	; <UNPREDICTABLE>
    1058:	00000000 	andeq	r0, r0, r0
    105c:	00055400 	andeq	r5, r5, r0, lsl #8
    1060:	00057000 	andeq	r7, r5, r0
    1064:	91000200 	mrsls	r0, R8_usr
    1068:	00057070 	andeq	r7, r5, r0, ror r0
    106c:	0005b000 	andeq	fp, r5, r0
    1070:	54000100 	strpl	r0, [r0], #-256	; 0xffffff00
    1074:	000005b0 			; <UNDEFINED> instruction: 0x000005b0
    1078:	000005c0 	andeq	r0, r0, r0, asr #11
    107c:	01740003 	cmneq	r4, r3
    1080:	0005d49f 	muleq	r5, pc, r4	; <UNPREDICTABLE>
    1084:	00066400 	andeq	r6, r6, r0, lsl #8
    1088:	54000100 	strpl	r0, [r0], #-256	; 0xffffff00
    108c:	0000066c 	andeq	r0, r0, ip, ror #12
    1090:	00000850 	andeq	r0, r0, r0, asr r8
    1094:	00540001 	subseq	r0, r4, r1
    1098:	00000000 	andeq	r0, r0, r0
    109c:	54000000 	strpl	r0, [r0], #-0
    10a0:	90000005 	andls	r0, r0, r5
    10a4:	06000005 	streq	r0, [r0], -r5
    10a8:	2e700300 	cdpcs	3, 7, cr0, cr0, cr0, {0}
    10ac:	909f0000 	addsls	r0, pc, r0
    10b0:	a0000005 	andge	r0, r0, r5
    10b4:	01000005 	tsteq	r0, r5
    10b8:	05a05500 	streq	r5, [r0, #1280]!	; 0x500
    10bc:	05ac0000 	streq	r0, [ip, #0]!
    10c0:	00030000 	andeq	r0, r3, r0
    10c4:	3c9f0175 	ldfccs	f0, [pc], {117}	; 0x75
    10c8:	44000006 	strmi	r0, [r0], #-6
    10cc:	06000006 	streq	r0, [r0], -r6
    10d0:	2e700300 	cdpcs	3, 7, cr0, cr0, cr0, {0}
    10d4:	549f0000 	ldrpl	r0, [pc], #0	; 10dc <__save_processor_state+0x32c>
    10d8:	64000006 	strvs	r0, [r0], #-6
    10dc:	01000006 	tsteq	r0, r6
    10e0:	06d85500 	ldrbeq	r5, [r8], r0, lsl #10
    10e4:	06dc0000 	ldrbeq	r0, [ip], r0
    10e8:	00010000 	andeq	r0, r1, r0
    10ec:	00072855 	andeq	r2, r7, r5, asr r8
    10f0:	00072c00 	andeq	r2, r7, r0, lsl #24
    10f4:	55000100 	strpl	r0, [r0, #-256]	; 0xffffff00
    10f8:	00000798 	muleq	r0, r8, r7
    10fc:	0000079c 	muleq	r0, ip, r7
    1100:	04550001 	ldrbeq	r0, [r5], #-1
    1104:	08000008 	stmdaeq	r0, {r3}
    1108:	01000008 	tsteq	r0, r8
    110c:	08205500 	stmdaeq	r0!, {r8, sl, ip, lr}
    1110:	08280000 	stmdaeq	r8!, {}	; <UNPREDICTABLE>
    1114:	00030000 	andeq	r0, r3, r0
    1118:	289f0175 	ldmcs	pc, {r0, r2, r4, r5, r6, r8}	; <UNPREDICTABLE>
    111c:	38000008 	stmdacc	r0, {r3}
    1120:	01000008 	tsteq	r0, r8
    1124:	00005300 	andeq	r5, r0, r0, lsl #6
    1128:	00000000 	andeq	r0, r0, r0
    112c:	06f00000 	ldrbteq	r0, [r0], r0
    1130:	072c0000 	streq	r0, [ip, -r0]!
    1134:	00010000 	andeq	r0, r1, r0
    1138:	00000050 	andeq	r0, r0, r0, asr r0
    113c:	00000000 	andeq	r0, r0, r0
    1140:	0005d400 	andeq	sp, r5, r0, lsl #8
    1144:	00063c00 	andeq	r3, r6, r0, lsl #24
    1148:	59000100 	stmdbpl	r0, {r8}
    114c:	0000066c 	andeq	r0, r0, ip, ror #12
    1150:	00000850 	andeq	r0, r0, r0, asr r8
    1154:	00590001 	subseq	r0, r9, r1
    1158:	00000000 	andeq	r0, r0, r0
    115c:	54000000 	strpl	r0, [r0], #-0
    1160:	90000005 	andls	r0, r0, r5
    1164:	02000005 	andeq	r0, r0, #5
    1168:	3c9f3000 	ldccc	0, cr3, [pc], {0}
    116c:	44000006 	strmi	r0, [r0], #-6
    1170:	02000006 	andeq	r0, r0, #6
    1174:	c49f3000 	ldrgt	r3, [pc], #0	; 117c <__save_processor_state+0x3cc>
    1178:	dc000006 	stcle	0, cr0, [r0], {6}
    117c:	01000006 	tsteq	r0, r6
    1180:	07845000 	streq	r5, [r4, r0]
    1184:	079c0000 	ldreq	r0, [ip, r0]
    1188:	00010000 	andeq	r0, r1, r0
    118c:	0007f050 	andeq	pc, r7, r0, asr r0	; <UNPREDICTABLE>
    1190:	00080800 	andeq	r0, r8, r0, lsl #16
    1194:	50000100 	andpl	r0, r0, r0, lsl #2
	...
    11a0:	00000688 	andeq	r0, r0, r8, lsl #13
    11a4:	000006dc 	ldrdeq	r0, [r0], -ip
    11a8:	40580001 	subsmi	r0, r8, r1
    11ac:	48000008 	stmdami	r0, {r3}
    11b0:	01000008 	tsteq	r0, r8
    11b4:	00005800 	andeq	r5, r0, r0, lsl #16
    11b8:	00000000 	andeq	r0, r0, r0
    11bc:	06880000 	streq	r0, [r8], r0
    11c0:	06980000 	ldreq	r0, [r8], r0
    11c4:	00010000 	andeq	r0, r1, r0
    11c8:	00069858 	andeq	r9, r6, r8, asr r8
    11cc:	00069c00 	andeq	r9, r6, r0, lsl #24
    11d0:	53000100 	movwpl	r0, #256	; 0x100
    11d4:	0000069c 	muleq	r0, ip, r6
    11d8:	000006a8 	andeq	r0, r0, r8, lsr #13
    11dc:	7f730003 	svcvc	0x00730003
    11e0:	0008409f 	muleq	r8, pc, r0	; <UNPREDICTABLE>
    11e4:	00084800 	andeq	r4, r8, r0, lsl #16
    11e8:	58000100 	stmdapl	r0, {r8}
	...
    11f4:	000006c4 	andeq	r0, r0, r4, asr #13
    11f8:	000006c8 	andeq	r0, r0, r8, asr #13
    11fc:	c8520001 	ldmdagt	r2, {r0}^
    1200:	dc000006 	stcle	0, cr0, [r0], {6}
    1204:	03000006 	movweq	r0, #6
    1208:	9f7f7200 	svcls	0x007f7200
	...
    1214:	000006f0 	strdeq	r0, [r0], -r0	; <UNPREDICTABLE>
    1218:	000006f4 	strdeq	r0, [r0], -r4
    121c:	f4500001 			; <UNDEFINED> instruction: 0xf4500001
    1220:	f8000006 			; <UNDEFINED> instruction: 0xf8000006
    1224:	01000006 	tsteq	r0, r6
    1228:	06f85200 	ldrbteq	r5, [r8], r0, lsl #4
    122c:	07140000 	ldreq	r0, [r4, -r0]
    1230:	00030000 	andeq	r0, r3, r0
    1234:	009f7f72 	addseq	r7, pc, r2, ror pc	; <UNPREDICTABLE>
    1238:	00000000 	andeq	r0, r0, r0
    123c:	f0000000 			; <UNDEFINED> instruction: 0xf0000000
    1240:	f4000006 	vst4.8	{d0-d3}, [r0], r6
    1244:	01000006 	tsteq	r0, r6
    1248:	00005500 	andeq	r5, r0, r0, lsl #10
    124c:	00000000 	andeq	r0, r0, r0
    1250:	06f00000 	ldrbteq	r0, [r0], r0
    1254:	07280000 	streq	r0, [r8, -r0]!
    1258:	00010000 	andeq	r0, r1, r0
    125c:	00000055 	andeq	r0, r0, r5, asr r0
    1260:	00000000 	andeq	r0, r0, r0
    1264:	00070400 	andeq	r0, r7, r0, lsl #8
    1268:	00071400 	andeq	r1, r7, r0, lsl #8
    126c:	50000100 	andpl	r0, r0, r0, lsl #2
    1270:	00000714 	andeq	r0, r0, r4, lsl r7
    1274:	00000718 	andeq	r0, r0, r8, lsl r7
    1278:	18530001 	ldmdane	r3, {r0}^
    127c:	20000007 	andcs	r0, r0, r7
    1280:	03000007 	movweq	r0, #7
    1284:	9f7f7300 	svcls	0x007f7300
	...
    1290:	00000748 	andeq	r0, r0, r8, asr #14
    1294:	0000079c 	muleq	r0, ip, r7
    1298:	48580001 	ldmdami	r8, {r0}^
    129c:	50000008 	andpl	r0, r0, r8
    12a0:	01000008 	tsteq	r0, r8
    12a4:	00005800 	andeq	r5, r0, r0, lsl #16
    12a8:	00000000 	andeq	r0, r0, r0
    12ac:	07480000 	strbeq	r0, [r8, -r0]
    12b0:	07580000 	ldrbeq	r0, [r8, -r0]
    12b4:	00010000 	andeq	r0, r1, r0
    12b8:	00075858 	andeq	r5, r7, r8, asr r8
    12bc:	00075c00 	andeq	r5, r7, r0, lsl #24
    12c0:	53000100 	movwpl	r0, #256	; 0x100
    12c4:	0000075c 	andeq	r0, r0, ip, asr r7
    12c8:	00000768 	andeq	r0, r0, r8, ror #14
    12cc:	7f730003 	svcvc	0x00730003
    12d0:	0008489f 	muleq	r8, pc, r8	; <UNPREDICTABLE>
    12d4:	00085000 	andeq	r5, r8, r0
    12d8:	58000100 	stmdapl	r0, {r8}
	...
    12e4:	00000784 	andeq	r0, r0, r4, lsl #15
    12e8:	00000788 	andeq	r0, r0, r8, lsl #15
    12ec:	88520001 	ldmdahi	r2, {r0}^
    12f0:	9c000007 	stcls	0, cr0, [r0], {7}
    12f4:	03000007 	movweq	r0, #7
    12f8:	9f7f7200 	svcls	0x007f7200
	...
    1304:	000007b4 			; <UNDEFINED> instruction: 0x000007b4
    1308:	00000808 	andeq	r0, r0, r8, lsl #16
    130c:	38580001 	ldmdacc	r8, {r0}^
    1310:	40000008 	andmi	r0, r0, r8
    1314:	01000008 	tsteq	r0, r8
    1318:	00005800 	andeq	r5, r0, r0, lsl #16
    131c:	00000000 	andeq	r0, r0, r0
    1320:	07b40000 	ldreq	r0, [r4, r0]!
    1324:	07c40000 	strbeq	r0, [r4, r0]
    1328:	00010000 	andeq	r0, r1, r0
    132c:	0007c458 	andeq	ip, r7, r8, asr r4
    1330:	0007c800 	andeq	ip, r7, r0, lsl #16
    1334:	53000100 	movwpl	r0, #256	; 0x100
    1338:	000007c8 	andeq	r0, r0, r8, asr #15
    133c:	000007d4 	ldrdeq	r0, [r0], -r4
    1340:	7f730003 	svcvc	0x00730003
    1344:	0008389f 	muleq	r8, pc, r8	; <UNPREDICTABLE>
    1348:	00084000 	andeq	r4, r8, r0
    134c:	58000100 	stmdapl	r0, {r8}
	...
    1358:	000007f0 	strdeq	r0, [r0], -r0	; <UNPREDICTABLE>
    135c:	000007f4 	strdeq	r0, [r0], -r4
    1360:	f4520001 			; <UNDEFINED> instruction: 0xf4520001
    1364:	08000007 	stmdaeq	r0, {r0, r1, r2}
    1368:	03000008 	movweq	r0, #8
    136c:	9f7f7200 	svcls	0x007f7200
	...
    1378:	0000000c 	andeq	r0, r0, ip
    137c:	0000003c 	andeq	r0, r0, ip, lsr r0
    1380:	3c500001 	mrrccc	0, 0, r0, r0, cr1	; <UNPREDICTABLE>
    1384:	54000000 	strpl	r0, [r0], #-0
    1388:	01000000 	mrseq	r0, (UNDEF: 0)
    138c:	00585000 	subseq	r5, r8, r0
    1390:	005c0000 	subseq	r0, ip, r0
    1394:	00010000 	andeq	r0, r1, r0
    1398:	00005c50 	andeq	r5, r0, r0, asr ip
    139c:	00006000 	andeq	r6, r0, r0
    13a0:	f3000400 	vshl.u8	d0, d0, d0
    13a4:	009f5001 	addseq	r5, pc, r1
    13a8:	00000000 	andeq	r0, r0, r0
    13ac:	0c000000 	stceq	0, cr0, [r0], {-0}
    13b0:	1c000000 	stcne	0, cr0, [r0], {-0}
    13b4:	01000000 	mrseq	r0, (UNDEF: 0)
    13b8:	001c5100 	andseq	r5, ip, r0, lsl #2
    13bc:	00580000 	subseq	r0, r8, r0
    13c0:	00040000 	andeq	r0, r4, r0
    13c4:	9f5101f3 	svcls	0x005101f3
    13c8:	00000058 	andeq	r0, r0, r8, asr r0
    13cc:	00000060 	andeq	r0, r0, r0, rrx
    13d0:	00510001 	subseq	r0, r1, r1
    13d4:	00000000 	andeq	r0, r0, r0
    13d8:	0c000000 	stceq	0, cr0, [r0], {-0}
    13dc:	1c000000 	stcne	0, cr0, [r0], {-0}
    13e0:	01000000 	mrseq	r0, (UNDEF: 0)
    13e4:	001c5100 	andseq	r5, ip, r0, lsl #2
    13e8:	00200000 	eoreq	r0, r0, r0
    13ec:	00050000 	andeq	r0, r5, r0
    13f0:	24310071 	ldrtcs	r0, [r1], #-113	; 0xffffff8f
    13f4:	0000209f 	muleq	r0, pc, r0	; <UNPREDICTABLE>
    13f8:	00002400 	andeq	r2, r0, r0, lsl #8
    13fc:	51000100 	mrspl	r0, (UNDEF: 16)
    1400:	0000002c 	andeq	r0, r0, ip, lsr #32
    1404:	00000060 	andeq	r0, r0, r0, rrx
    1408:	00510001 	subseq	r0, r1, r1
    140c:	00000000 	andeq	r0, r0, r0
    1410:	0c000000 	stceq	0, cr0, [r0], {-0}
    1414:	2c000000 	stccs	0, cr0, [r0], {-0}
    1418:	02000000 	andeq	r0, r0, #0
    141c:	2c9f3000 	ldccs	0, cr3, [pc], {0}
    1420:	58000000 	stmdapl	r0, {}	; <UNPREDICTABLE>
    1424:	01000000 	mrseq	r0, (UNDEF: 0)
    1428:	00585200 	subseq	r5, r8, r0, lsl #4
    142c:	00600000 	rsbeq	r0, r0, r0
    1430:	00020000 	andeq	r0, r2, r0
    1434:	00009f30 	andeq	r9, r0, r0, lsr pc
    1438:	00000000 	andeq	r0, r0, r0
    143c:	000c0000 	andeq	r0, ip, r0
    1440:	001c0000 	andseq	r0, ip, r0
    1444:	00020000 	andeq	r0, r2, r0
    1448:	001c9f30 	andseq	r9, ip, r0, lsr pc
    144c:	00280000 	eoreq	r0, r8, r0
    1450:	00010000 	andeq	r0, r1, r0
    1454:	00002c53 	andeq	r2, r0, r3, asr ip
    1458:	00003800 	andeq	r3, r0, r0, lsl #16
    145c:	53000100 	movwpl	r0, #256	; 0x100
    1460:	00000038 	andeq	r0, r0, r8, lsr r0
    1464:	0000004c 	andeq	r0, r0, ip, asr #32
    1468:	01730003 	cmneq	r3, r3
    146c:	00004c9f 	muleq	r0, pc, ip	; <UNPREDICTABLE>
    1470:	00005800 	andeq	r5, r0, r0, lsl #16
    1474:	53000100 	movwpl	r0, #256	; 0x100
    1478:	00000058 	andeq	r0, r0, r8, asr r0
    147c:	00000060 	andeq	r0, r0, r0, rrx
    1480:	9f300002 	svcls	0x00300002
	...
    1490:	00000028 	andeq	r0, r0, r8, lsr #32
    1494:	9f300002 	svcls	0x00300002
    1498:	00000028 	andeq	r0, r0, r8, lsr #32
    149c:	0000002c 	andeq	r0, r0, ip, lsr #32
    14a0:	80730007 	rsbshi	r0, r3, r7
    14a4:	00f1dfdd 	ldrsbteq	sp, [r1], #253	; 0xfd
    14a8:	00002c9f 	muleq	r0, pc, ip	; <UNPREDICTABLE>
    14ac:	00003800 	andeq	r3, r0, r0, lsl #16
    14b0:	73000700 	movwvc	r0, #1792	; 0x700
    14b4:	f1dfdd84 			; <UNDEFINED> instruction: 0xf1dfdd84
    14b8:	00489f00 	subeq	r9, r8, r0, lsl #30
    14bc:	004c0000 	subeq	r0, ip, r0
    14c0:	00070000 	andeq	r0, r7, r0
    14c4:	dfdb8073 	svcle	0x00db8073
    14c8:	4c9f00f1 	ldcmi	0, cr0, [pc], {241}	; 0xf1
    14cc:	58000000 	stmdapl	r0, {}	; <UNPREDICTABLE>
    14d0:	07000000 	streq	r0, [r0, -r0]
    14d4:	db847300 	blle	fe11e0dc <__bss_end+0xfe11af60>
    14d8:	9f00f1df 	svcls	0x0000f1df
    14dc:	00000064 	andeq	r0, r0, r4, rrx
    14e0:	0000007f 	andeq	r0, r0, pc, ror r0
    14e4:	88510001 	ldmdahi	r1, {r0}^
    14e8:	90000000 	andls	r0, r0, r0
    14ec:	01000000 	mrseq	r0, (UNDEF: 0)
    14f0:	00005100 	andeq	r5, r0, r0, lsl #2
    14f4:	00000000 	andeq	r0, r0, r0
    14f8:	00900000 	addseq	r0, r0, r0
    14fc:	00b00000 	adcseq	r0, r0, r0
    1500:	00020000 	andeq	r0, r2, r0
    1504:	00b09f30 	adcseq	r9, r0, r0, lsr pc
    1508:	00b80000 	adcseq	r0, r8, r0
    150c:	000e0000 	andeq	r0, lr, r0
    1510:	70030073 	andvc	r0, r3, r3, ror r0
    1514:	0600002f 	streq	r0, [r0], -pc, lsr #32
    1518:	01000a1c 	tsteq	r0, ip, lsl sl
    151c:	00b89f1c 	adcseq	r9, r8, ip, lsl pc
    1520:	00cc0000 	sbceq	r0, ip, r0
    1524:	000e0000 	andeq	r0, lr, r0
    1528:	70030073 	andvc	r0, r3, r3, ror r0
    152c:	0600002f 	streq	r0, [r0], -pc, lsr #32
    1530:	01040a1c 	tsteq	r4, ip, lsl sl
    1534:	00009f1c 	andeq	r9, r0, ip, lsl pc
    1538:	00000000 	andeq	r0, r0, r0
    153c:	00e00000 	rsceq	r0, r0, r0
    1540:	01180000 	tsteq	r8, r0
    1544:	00010000 	andeq	r0, r1, r0
    1548:	00011850 	andeq	r1, r1, r0, asr r8
    154c:	00012c00 	andeq	r2, r1, r0, lsl #24
    1550:	f3000400 	vshl.u8	d0, d0, d0
    1554:	009f5001 	addseq	r5, pc, r1
    1558:	00000000 	andeq	r0, r0, r0
    155c:	e8000000 	stmda	r0, {}	; <UNPREDICTABLE>
    1560:	fc000000 	stc2	0, cr0, [r0], {-0}
    1564:	01000000 	mrseq	r0, (UNDEF: 0)
    1568:	00fc5100 	rscseq	r5, ip, r0, lsl #2
    156c:	01180000 	tsteq	r8, r0
    1570:	00050000 	andeq	r0, r5, r0
    1574:	25350070 	ldrcs	r0, [r5, #-112]!	; 0xffffff90
    1578:	0001189f 	muleq	r1, pc, r8	; <UNPREDICTABLE>
    157c:	00012c00 	andeq	r2, r1, r0, lsl #24
    1580:	f3000600 	vmax.u8	d0, d0, d0
    1584:	25355001 	ldrcs	r5, [r5, #-1]!
    1588:	0000009f 	muleq	r0, pc, r0	; <UNPREDICTABLE>
    158c:	00000000 	andeq	r0, r0, r0
    1590:	00010800 	andeq	r0, r1, r0, lsl #16
    1594:	00012400 	andeq	r2, r1, r0, lsl #8
    1598:	53000100 	movwpl	r0, #256	; 0x100
    159c:	00000124 	andeq	r0, r0, r4, lsr #2
    15a0:	0000012c 	andeq	r0, r0, ip, lsr #2
    15a4:	01f30006 	mvnseq	r0, r6
    15a8:	9f1a4f50 	svcls	0x001a4f50
	...
    15b4:	0000012c 	andeq	r0, r0, ip, lsr #2
    15b8:	00000148 	andeq	r0, r0, r8, asr #2
    15bc:	48500001 	ldmdami	r0, {r0}^
    15c0:	80000001 	andhi	r0, r0, r1
    15c4:	04000001 	streq	r0, [r0], #-1
    15c8:	5001f300 	andpl	pc, r1, r0, lsl #6
    15cc:	0000009f 	muleq	r0, pc, r0	; <UNPREDICTABLE>
    15d0:	00000000 	andeq	r0, r0, r0
    15d4:	00012c00 	andeq	r2, r1, r0, lsl #24
    15d8:	00016800 	andeq	r6, r1, r0, lsl #16
    15dc:	30000200 	andcc	r0, r0, r0, lsl #4
    15e0:	0001689f 	muleq	r1, pc, r8	; <UNPREDICTABLE>
    15e4:	00016c00 	andeq	r6, r1, r0, lsl #24
    15e8:	31000800 	tstcc	r0, r0, lsl #16
    15ec:	73240070 			; <UNDEFINED> instruction: 0x73240070
    15f0:	789f1a00 	ldmvc	pc, {r9, fp, ip}	; <UNPREDICTABLE>
    15f4:	80000001 	andhi	r0, r0, r1
    15f8:	02000001 	andeq	r0, r0, #1
    15fc:	009f3000 	addseq	r3, pc, r0
    1600:	00000000 	andeq	r0, r0, r0
    1604:	40000000 	andmi	r0, r0, r0
    1608:	54000001 	strpl	r0, [r0], #-1
    160c:	01000001 	tsteq	r0, r1
    1610:	01545200 	cmpeq	r4, r0, lsl #4
    1614:	01780000 	cmneq	r8, r0
    1618:	00060000 	andeq	r0, r6, r0
    161c:	355001f3 	ldrbcc	r0, [r0, #-499]	; 0xfffffe0d
    1620:	01789f25 	cmneq	r8, r5, lsr #30
    1624:	01800000 	orreq	r0, r0, r0
    1628:	00010000 	andeq	r0, r1, r0
    162c:	00000052 	andeq	r0, r0, r2, asr r0
    1630:	00000000 	andeq	r0, r0, r0
    1634:	00014800 	andeq	r4, r1, r0, lsl #16
    1638:	00017000 	andeq	r7, r1, r0
    163c:	50000100 	andpl	r0, r0, r0, lsl #2
    1640:	00000170 	andeq	r0, r0, r0, ror r1
    1644:	00000178 	andeq	r0, r0, r8, ror r1
    1648:	01f30006 	mvnseq	r0, r6
    164c:	9f1a4f50 	svcls	0x001a4f50
    1650:	00000178 	andeq	r0, r0, r8, ror r1
    1654:	0000017c 	andeq	r0, r0, ip, ror r1
    1658:	7c500001 	mrrcvc	0, 0, r0, r0, cr1	; <UNPREDICTABLE>
    165c:	80000001 	andhi	r0, r0, r1
    1660:	06000001 	streq	r0, [r0], -r1
    1664:	5001f300 	andpl	pc, r1, r0, lsl #6
    1668:	009f1a4f 	addseq	r1, pc, pc, asr #20
	...
    1674:	0c000000 	stceq	0, cr0, [r0], {-0}
    1678:	01000000 	mrseq	r0, (UNDEF: 0)
    167c:	000c5000 	andeq	r5, ip, r0
    1680:	00140000 	andseq	r0, r4, r0
    1684:	00030000 	andeq	r0, r3, r0
    1688:	149f0470 	ldrne	r0, [pc], #1136	; 1690 <serial_init_nommu+0x54>
    168c:	2c000000 	stccs	0, cr0, [r0], {-0}
    1690:	04000000 	streq	r0, [r0], #-0
    1694:	5001f300 	andpl	pc, r1, r0, lsl #6
    1698:	0000009f 	muleq	r0, pc, r0	; <UNPREDICTABLE>
	...
    16a4:	00001400 	andeq	r1, r0, r0, lsl #8
    16a8:	30000200 	andcc	r0, r0, r0, lsl #4
    16ac:	0000009f 	muleq	r0, pc, r0	; <UNPREDICTABLE>
    16b0:	00000000 	andeq	r0, r0, r0
    16b4:	00002c00 	andeq	r2, r0, r0, lsl #24
    16b8:	00003800 	andeq	r3, r0, r0, lsl #16
    16bc:	50000100 	andpl	r0, r0, r0, lsl #2
    16c0:	00000038 	andeq	r0, r0, r8, lsr r0
    16c4:	00000040 	andeq	r0, r0, r0, asr #32
    16c8:	04700003 	ldrbteq	r0, [r0], #-3
    16cc:	0000409f 	muleq	r0, pc, r0	; <UNPREDICTABLE>
    16d0:	00005800 	andeq	r5, r0, r0, lsl #16
    16d4:	f3000400 	vshl.u8	d0, d0, d0
    16d8:	009f5001 	addseq	r5, pc, r1
    16dc:	00000000 	andeq	r0, r0, r0
    16e0:	2c000000 	stccs	0, cr0, [r0], {-0}
    16e4:	40000000 	andmi	r0, r0, r0
    16e8:	02000000 	andeq	r0, r0, #0
    16ec:	009f3000 	addseq	r3, pc, r0
	...
    16f8:	20000000 	andcs	r0, r0, r0
    16fc:	01000000 	mrseq	r0, (UNDEF: 0)
    1700:	00205000 	eoreq	r5, r0, r0
    1704:	00580000 	subseq	r0, r8, r0
    1708:	00010000 	andeq	r0, r1, r0
    170c:	00000052 	andeq	r0, r0, r2, asr r0
    1710:	00000000 	andeq	r0, r0, r0
    1714:	00005800 	andeq	r5, r0, r0, lsl #16
    1718:	00007000 	andeq	r7, r0, r0
    171c:	50000100 	andpl	r0, r0, r0, lsl #2
    1720:	00000070 	andeq	r0, r0, r0, ror r0
    1724:	000000a0 	andeq	r0, r0, r0, lsr #1
    1728:	a0520001 	subsge	r0, r2, r1
    172c:	a8000000 	stmdage	r0, {}	; <UNPREDICTABLE>
    1730:	04000000 	streq	r0, [r0], #-0
    1734:	5001f300 	andpl	pc, r1, r0, lsl #6
    1738:	0000009f 	muleq	r0, pc, r0	; <UNPREDICTABLE>
    173c:	00000000 	andeq	r0, r0, r0
    1740:	00018c00 	andeq	r8, r1, r0, lsl #24
    1744:	0001b400 	andeq	fp, r1, r0, lsl #8
    1748:	50000100 	andpl	r0, r0, r0, lsl #2
    174c:	000001b4 			; <UNDEFINED> instruction: 0x000001b4
    1750:	000001e0 	andeq	r0, r0, r0, ror #3
    1754:	01f30004 	mvnseq	r0, r4
    1758:	00009f50 	andeq	r9, r0, r0, asr pc
	...
    1764:	00280000 	eoreq	r0, r8, r0
    1768:	00010000 	andeq	r0, r1, r0
    176c:	00002850 	andeq	r2, r0, r0, asr r8
    1770:	00003000 	andeq	r3, r0, r0
    1774:	f3000400 	vshl.u8	d0, d0, d0
    1778:	009f5001 	addseq	r5, pc, r1
    177c:	00000000 	andeq	r0, r0, r0
    1780:	40000000 	andmi	r0, r0, r0
    1784:	60000000 	andvs	r0, r0, r0
    1788:	01000000 	mrseq	r0, (UNDEF: 0)
    178c:	00605000 	rsbeq	r5, r0, r0
    1790:	007c0000 	rsbseq	r0, ip, r0
    1794:	00010000 	andeq	r0, r1, r0
    1798:	00000052 	andeq	r0, r0, r2, asr r0
    179c:	00000000 	andeq	r0, r0, r0
    17a0:	00007c00 	andeq	r7, r0, r0, lsl #24
    17a4:	00009400 	andeq	r9, r0, r0, lsl #8
    17a8:	50000100 	andpl	r0, r0, r0, lsl #2
    17ac:	00000094 	muleq	r0, r4, r0
    17b0:	000000a8 	andeq	r0, r0, r8, lsr #1
    17b4:	a8520001 	ldmdage	r2, {r0}^
    17b8:	b0000000 	andlt	r0, r0, r0
    17bc:	04000000 	streq	r0, [r0], #-0
    17c0:	5001f300 	andpl	pc, r1, r0, lsl #6
    17c4:	0000009f 	muleq	r0, pc, r0	; <UNPREDICTABLE>
    17c8:	00000000 	andeq	r0, r0, r0
    17cc:	0000b000 	andeq	fp, r0, r0
    17d0:	0000d800 	andeq	sp, r0, r0, lsl #16
    17d4:	50000100 	andpl	r0, r0, r0, lsl #2
    17d8:	000000d8 	ldrdeq	r0, [r0], -r8
    17dc:	00000124 	andeq	r0, r0, r4, lsr #2
    17e0:	24550001 	ldrbcs	r0, [r5], #-1
    17e4:	28000001 	stmdacs	r0, {r0}
    17e8:	01000001 	tsteq	r0, r1
    17ec:	01285000 			; <UNDEFINED> instruction: 0x01285000
    17f0:	012c0000 			; <UNDEFINED> instruction: 0x012c0000
    17f4:	00040000 	andeq	r0, r4, r0
    17f8:	9f5001f3 	svcls	0x005001f3
	...
    1804:	0000012c 	andeq	r0, r0, ip, lsr #2
    1808:	0000014c 	andeq	r0, r0, ip, asr #2
    180c:	4c500001 	mrrcmi	0, 0, r0, r0, cr1	; <UNPREDICTABLE>
    1810:	6c000001 	stcvs	0, cr0, [r0], {1}
    1814:	01000001 	tsteq	r0, r1
    1818:	016c5100 	cmneq	ip, r0, lsl #2
    181c:	01700000 	cmneq	r0, r0
    1820:	00010000 	andeq	r0, r1, r0
    1824:	00017050 	andeq	r7, r1, r0, asr r0
    1828:	00017400 	andeq	r7, r1, r0, lsl #8
    182c:	51000100 	mrspl	r0, (UNDEF: 16)
	...
    1838:	00000174 	andeq	r0, r0, r4, ror r1
    183c:	00000194 	muleq	r0, r4, r1
    1840:	94500001 	ldrbls	r0, [r0], #-1
    1844:	b4000001 	strlt	r0, [r0], #-1
    1848:	01000001 	tsteq	r0, r1
    184c:	01b45e00 			; <UNDEFINED> instruction: 0x01b45e00
    1850:	01e00000 	mvneq	r0, r0
    1854:	00040000 	andeq	r0, r4, r0
    1858:	9f5001f3 	svcls	0x005001f3
	...
    1864:	000001e0 	andeq	r0, r0, r0, ror #3
    1868:	00000200 	andeq	r0, r0, r0, lsl #4
    186c:	00500001 	subseq	r0, r0, r1
    1870:	30000002 	andcc	r0, r0, r2
    1874:	01000002 	tsteq	r0, r2
    1878:	00005300 	andeq	r5, r0, r0, lsl #6
    187c:	00000000 	andeq	r0, r0, r0
    1880:	02300000 	eorseq	r0, r0, #0
    1884:	02380000 	eorseq	r0, r8, #0
    1888:	00010000 	andeq	r0, r1, r0
    188c:	00023850 	andeq	r3, r2, r0, asr r8
    1890:	00029400 	andeq	r9, r2, r0, lsl #8
    1894:	51000100 	mrspl	r0, (UNDEF: 16)
    1898:	00000294 	muleq	r0, r4, r2
    189c:	000002c8 	andeq	r0, r0, r8, asr #5
    18a0:	01f30004 	mvnseq	r0, r4
    18a4:	00009f50 	andeq	r9, r0, r0, asr pc
    18a8:	00000000 	andeq	r0, r0, r0
    18ac:	02c80000 	sbceq	r0, r8, #0
    18b0:	02e80000 	rsceq	r0, r8, #0
    18b4:	00010000 	andeq	r0, r1, r0
    18b8:	0002e850 	andeq	lr, r2, r0, asr r8
    18bc:	00032800 	andeq	r2, r3, r0, lsl #16
    18c0:	52000100 	andpl	r0, r0, #0, 2
	...
    18cc:	00000328 	andeq	r0, r0, r8, lsr #6
    18d0:	00000388 	andeq	r0, r0, r8, lsl #7
    18d4:	9f310002 	svcls	0x00310002
    18d8:	00000388 	andeq	r0, r0, r8, lsl #7
    18dc:	0000039b 	muleq	r0, fp, r3
    18e0:	8d03000d 	stchi	0, cr0, [r3, #-52]	; 0xffffffcc
    18e4:	9400002f 	strls	r0, [r0], #-47	; 0xffffffd1
    18e8:	1aff0801 	bne	fffc38f4 <__bss_end+0xfffc0778>
    18ec:	9c9f0123 	ldflss	f0, [pc], {35}	; 0x23
    18f0:	a4000003 	strge	r0, [r0], #-3
    18f4:	02000003 	andeq	r0, r0, #3
    18f8:	009f3100 	addseq	r3, pc, r0, lsl #2
    18fc:	00000000 	andeq	r0, r0, r0
    1900:	28000000 	stmdacs	r0, {}	; <UNPREDICTABLE>
    1904:	88000003 	stmdahi	r0, {r0, r1}
    1908:	02000003 	andeq	r0, r0, #3
    190c:	889f3100 	ldmhi	pc, {r8, ip, sp}	; <UNPREDICTABLE>
    1910:	9b000003 	blls	1924 <serial_puts+0x3c>
    1914:	12000003 	andne	r0, r0, #3
    1918:	2f8c0300 	svccs	0x008c0300
    191c:	01940000 	orrseq	r0, r4, r0
    1920:	3224fe09 	eorcc	pc, r4, #9, 28	; 0x90
    1924:	1aff0826 	bne	fffc39c4 <__bss_end+0xfffc0848>
    1928:	9c9f0123 	ldflss	f0, [pc], {35}	; 0x23
    192c:	a4000003 	strge	r0, [r0], #-3
    1930:	02000003 	andeq	r0, r0, #3
    1934:	009f3100 	addseq	r3, pc, r0, lsl #2
    1938:	00000000 	andeq	r0, r0, r0
    193c:	28000000 	stmdacs	r0, {}	; <UNPREDICTABLE>
    1940:	88000003 	stmdahi	r0, {r0, r1}
    1944:	02000003 	andeq	r0, r0, #3
    1948:	889f3100 	ldmhi	pc, {r8, ip, sp}	; <UNPREDICTABLE>
    194c:	9b000003 	blls	1960 <serial_puts+0x78>
    1950:	0d000003 	stceq	0, cr0, [r0, #-12]
    1954:	2f8c0300 	svccs	0x008c0300
    1958:	01940000 	orrseq	r0, r4, r0
    195c:	231aff08 	tstcs	sl, #8, 30	; <UNPREDICTABLE>
    1960:	039c9f01 	orrseq	r9, ip, #1, 30
    1964:	03a40000 			; <UNDEFINED> instruction: 0x03a40000
    1968:	00020000 	andeq	r0, r2, r0
    196c:	00009f31 	andeq	r9, r0, r1, lsr pc
    1970:	00000000 	andeq	r0, r0, r0
    1974:	03280000 			; <UNDEFINED> instruction: 0x03280000
    1978:	03880000 	orreq	r0, r8, #0
    197c:	00020000 	andeq	r0, r2, r0
    1980:	03889f31 	orreq	r9, r8, #49, 30	; 0xc4
    1984:	039b0000 	orrseq	r0, fp, #0
    1988:	000d0000 	andeq	r0, sp, r0
    198c:	2f8e0331 	svccs	0x008e0331
    1990:	01940000 	orrseq	r0, r4, r0
    1994:	241aff08 	ldrcs	pc, [sl], #-3848	; 0xfffff0f8
    1998:	00039c9f 	muleq	r3, pc, ip	; <UNPREDICTABLE>
    199c:	0003a400 	andeq	sl, r3, r0, lsl #8
    19a0:	31000200 	mrscc	r0, R8_usr
    19a4:	0000009f 	muleq	r0, pc, r0	; <UNPREDICTABLE>
    19a8:	00000000 	andeq	r0, r0, r0
    19ac:	00032800 	andeq	r2, r3, r0, lsl #16
    19b0:	00033c00 	andeq	r3, r3, r0, lsl #24
    19b4:	30000200 	andcc	r0, r0, r0, lsl #4
    19b8:	00033c9f 	muleq	r3, pc, ip	; <UNPREDICTABLE>
    19bc:	00036c00 	andeq	r6, r3, r0, lsl #24
    19c0:	51000100 	mrspl	r0, (UNDEF: 16)
    19c4:	0000036c 	andeq	r0, r0, ip, ror #6
    19c8:	00000384 	andeq	r0, r0, r4, lsl #7
    19cc:	00720008 	rsbseq	r0, r2, r8
    19d0:	3224f209 	eorcc	pc, r4, #-1879048192	; 0x90000000
    19d4:	03849f25 	orreq	r9, r4, #37, 30	; 0x94
    19d8:	039b0000 	orrseq	r0, fp, #0
    19dc:	000c0000 	andeq	r0, ip, r0
    19e0:	002f8803 	eoreq	r8, pc, r3, lsl #16
    19e4:	f2090600 	vmax.s8	d0, d9, d0
    19e8:	9f253224 	svcls	0x00253224
    19ec:	0000039c 	muleq	r0, ip, r3
    19f0:	000003a4 	andeq	r0, r0, r4, lsr #7
    19f4:	00510001 	subseq	r0, r1, r1
    19f8:	00000000 	andeq	r0, r0, r0
    19fc:	28000000 	stmdacs	r0, {}	; <UNPREDICTABLE>
    1a00:	a0000003 	andge	r0, r0, r3
    1a04:	02000003 	andeq	r0, r0, #3
    1a08:	a09f3000 	addsge	r3, pc, r0
    1a0c:	a4000003 	strge	r0, [r0], #-3
    1a10:	01000003 	tsteq	r0, r3
    1a14:	00005000 	andeq	r5, r0, r0
    1a18:	00000000 	andeq	r0, r0, r0
	...

Disassembly of section .debug_frame:

00000000 <.debug_frame>:
   0:	0000000c 	andeq	r0, r0, ip
   4:	ffffffff 			; <UNDEFINED> instruction: 0xffffffff
   8:	7c020001 	stcvc	0, cr0, [r2], {1}
   c:	000d0c0e 	andeq	r0, sp, lr, lsl #24
  10:	0000000c 	andeq	r0, r0, ip
  14:	00000000 	andeq	r0, r0, r0
  18:	000000e0 	andeq	r0, r0, r0, ror #1
  1c:	0000002c 	andeq	r0, r0, ip, lsr #32
  20:	0000000c 	andeq	r0, r0, ip
  24:	ffffffff 			; <UNDEFINED> instruction: 0xffffffff
  28:	7c020001 	stcvc	0, cr0, [r2], {1}
  2c:	000d0c0e 	andeq	r0, sp, lr, lsl #24
  30:	00000018 	andeq	r0, r0, r8, lsl r0
  34:	00000020 	andeq	r0, r0, r0, lsr #32
  38:	00000134 	andeq	r0, r0, r4, lsr r1
  3c:	0000014c 	andeq	r0, r0, ip, asr #2
  40:	84100e42 	ldrhi	r0, [r0], #-3650	; 0xfffff1be
  44:	86038504 	strhi	r8, [r3], -r4, lsl #10
  48:	00018e02 	andeq	r8, r1, r2, lsl #28
  4c:	00000024 	andeq	r0, r0, r4, lsr #32
  50:	00000020 	andeq	r0, r0, r0, lsr #32
  54:	00000280 	andeq	r0, r0, r0, lsl #5
  58:	0000016c 	andeq	r0, r0, ip, ror #2
  5c:	84100e42 	ldrhi	r0, [r0], #-3650	; 0xfffff1be
  60:	86038504 	strhi	r8, [r3], -r4, lsl #10
  64:	02018e02 	andeq	r8, r1, #2, 28
  68:	c6ce0a7a 			; <UNDEFINED> instruction: 0xc6ce0a7a
  6c:	000ec4c5 	andeq	ip, lr, r5, asr #9
  70:	00000b42 	andeq	r0, r0, r2, asr #22
  74:	0000000c 	andeq	r0, r0, ip
  78:	ffffffff 			; <UNDEFINED> instruction: 0xffffffff
  7c:	7c020001 	stcvc	0, cr0, [r2], {1}
  80:	000d0c0e 	andeq	r0, sp, lr, lsl #24
  84:	00000014 	andeq	r0, r0, r4, lsl r0
  88:	00000074 	andeq	r0, r0, r4, ror r0
  8c:	000003ec 	andeq	r0, r0, ip, ror #7
  90:	00000020 	andeq	r0, r0, r0, lsr #32
  94:	4c080e42 	stcmi	14, cr0, [r8], {66}	; 0x42
  98:	0000000e 	andeq	r0, r0, lr
  9c:	0000000c 	andeq	r0, r0, ip
  a0:	00000074 	andeq	r0, r0, r4, ror r0
  a4:	0000040c 	andeq	r0, r0, ip, lsl #8
  a8:	00000004 	andeq	r0, r0, r4
  ac:	0000000c 	andeq	r0, r0, ip
  b0:	00000074 	andeq	r0, r0, r4, ror r0
  b4:	00000410 	andeq	r0, r0, r0, lsl r4
  b8:	00000004 	andeq	r0, r0, r4
  bc:	0000000c 	andeq	r0, r0, ip
  c0:	00000074 	andeq	r0, r0, r4, ror r0
  c4:	00000414 	andeq	r0, r0, r4, lsl r4
  c8:	00000004 	andeq	r0, r0, r4
  cc:	0000000c 	andeq	r0, r0, ip
  d0:	00000074 	andeq	r0, r0, r4, ror r0
  d4:	00000418 	andeq	r0, r0, r8, lsl r4
  d8:	00000004 	andeq	r0, r0, r4
  dc:	0000000c 	andeq	r0, r0, ip
  e0:	00000074 	andeq	r0, r0, r4, ror r0
  e4:	0000041c 	andeq	r0, r0, ip, lsl r4
  e8:	00000020 	andeq	r0, r0, r0, lsr #32
  ec:	0000000c 	andeq	r0, r0, ip
  f0:	00000074 	andeq	r0, r0, r4, ror r0
  f4:	0000043c 	andeq	r0, r0, ip, lsr r4
  f8:	00000004 	andeq	r0, r0, r4
  fc:	00000014 	andeq	r0, r0, r4, lsl r0
 100:	00000074 	andeq	r0, r0, r4, ror r0
 104:	00000440 	andeq	r0, r0, r0, asr #8
 108:	00000028 	andeq	r0, r0, r8, lsr #32
 10c:	50080e42 	andpl	r0, r8, r2, asr #28
 110:	0000000e 	andeq	r0, r0, lr
 114:	0000000c 	andeq	r0, r0, ip
 118:	00000074 	andeq	r0, r0, r4, ror r0
 11c:	00000468 	andeq	r0, r0, r8, ror #8
 120:	00000010 	andeq	r0, r0, r0, lsl r0
 124:	00000018 	andeq	r0, r0, r8, lsl r0
 128:	00000074 	andeq	r0, r0, r4, ror r0
 12c:	00000478 	andeq	r0, r0, r8, ror r4
 130:	00000038 	andeq	r0, r0, r8, lsr r0
 134:	84100e42 	ldrhi	r0, [r0], #-3650	; 0xfffff1be
 138:	86038504 	strhi	r8, [r3], -r4, lsl #10
 13c:	00018e02 	andeq	r8, r1, r2, lsl #28
 140:	00000014 	andeq	r0, r0, r4, lsl r0
 144:	00000074 	andeq	r0, r0, r4, ror r0
 148:	000004b0 			; <UNDEFINED> instruction: 0x000004b0
 14c:	0000001c 	andeq	r0, r0, ip, lsl r0
 150:	4a080e42 	bmi	203a60 <__bss_end+0x2008e4>
 154:	0000000e 	andeq	r0, r0, lr
 158:	00000014 	andeq	r0, r0, r4, lsl r0
 15c:	00000074 	andeq	r0, r0, r4, ror r0
 160:	000004cc 	andeq	r0, r0, ip, asr #9
 164:	0000001c 	andeq	r0, r0, ip, lsl r0
 168:	4a080e42 	bmi	203a78 <__bss_end+0x2008fc>
 16c:	0000000e 	andeq	r0, r0, lr
 170:	0000000c 	andeq	r0, r0, ip
 174:	00000074 	andeq	r0, r0, r4, ror r0
 178:	000004e8 	andeq	r0, r0, r8, ror #9
 17c:	00000018 	andeq	r0, r0, r8, lsl r0
 180:	0000000c 	andeq	r0, r0, ip
 184:	00000074 	andeq	r0, r0, r4, ror r0
 188:	00000500 	andeq	r0, r0, r0, lsl #10
 18c:	00000018 	andeq	r0, r0, r8, lsl r0
 190:	0000000c 	andeq	r0, r0, ip
 194:	00000074 	andeq	r0, r0, r4, ror r0
 198:	00000518 	andeq	r0, r0, r8, lsl r5
 19c:	00000018 	andeq	r0, r0, r8, lsl r0
 1a0:	00000018 	andeq	r0, r0, r8, lsl r0
 1a4:	00000074 	andeq	r0, r0, r4, ror r0
 1a8:	00000530 	andeq	r0, r0, r0, lsr r5
 1ac:	00000034 	andeq	r0, r0, r4, lsr r0
 1b0:	84100e42 	ldrhi	r0, [r0], #-3650	; 0xfffff1be
 1b4:	86038504 	strhi	r8, [r3], -r4, lsl #10
 1b8:	00018e02 	andeq	r8, r1, r2, lsl #28
 1bc:	0000000c 	andeq	r0, r0, ip
 1c0:	ffffffff 			; <UNDEFINED> instruction: 0xffffffff
 1c4:	7c020001 	stcvc	0, cr0, [r2], {1}
 1c8:	000d0c0e 	andeq	r0, sp, lr, lsl #24
 1cc:	0000000c 	andeq	r0, r0, ip
 1d0:	000001bc 			; <UNDEFINED> instruction: 0x000001bc
 1d4:	00000564 	andeq	r0, r0, r4, ror #10
 1d8:	00000034 	andeq	r0, r0, r4, lsr r0
 1dc:	0000000c 	andeq	r0, r0, ip
 1e0:	000001bc 			; <UNDEFINED> instruction: 0x000001bc
 1e4:	00000598 	muleq	r0, r8, r5
 1e8:	0000001c 	andeq	r0, r0, ip, lsl r0
 1ec:	0000000c 	andeq	r0, r0, ip
 1f0:	000001bc 			; <UNDEFINED> instruction: 0x000001bc
 1f4:	000005b4 			; <UNDEFINED> instruction: 0x000005b4
 1f8:	0000001c 	andeq	r0, r0, ip, lsl r0
 1fc:	0000000c 	andeq	r0, r0, ip
 200:	000001bc 			; <UNDEFINED> instruction: 0x000001bc
 204:	000005d0 	ldrdeq	r0, [r0], -r0	; <UNPREDICTABLE>
 208:	00000008 	andeq	r0, r0, r8
 20c:	0000000c 	andeq	r0, r0, ip
 210:	000001bc 			; <UNDEFINED> instruction: 0x000001bc
 214:	000005d8 	ldrdeq	r0, [r0], -r8
 218:	00000010 	andeq	r0, r0, r0, lsl r0
 21c:	00000014 	andeq	r0, r0, r4, lsl r0
 220:	000001bc 			; <UNDEFINED> instruction: 0x000001bc
 224:	000005e8 	andeq	r0, r0, r8, ror #11
 228:	00000030 	andeq	r0, r0, r0, lsr r0
 22c:	84080e42 	strhi	r0, [r8], #-3650	; 0xfffff1be
 230:	00018e02 	andeq	r8, r1, r2, lsl #28
 234:	00000018 	andeq	r0, r0, r8, lsl r0
 238:	000001bc 			; <UNDEFINED> instruction: 0x000001bc
 23c:	00000618 	andeq	r0, r0, r8, lsl r6
 240:	00000094 	muleq	r0, r4, r0
 244:	84100e42 	ldrhi	r0, [r0], #-3650	; 0xfffff1be
 248:	86038504 	strhi	r8, [r3], -r4, lsl #10
 24c:	00018e02 	andeq	r8, r1, r2, lsl #28
 250:	00000018 	andeq	r0, r0, r8, lsl r0
 254:	000001bc 			; <UNDEFINED> instruction: 0x000001bc
 258:	000006ac 	andeq	r0, r0, ip, lsr #13
 25c:	00000034 	andeq	r0, r0, r4, lsr r0
 260:	84080e44 	strhi	r0, [r8], #-3652	; 0xfffff1bc
 264:	54018e02 	strpl	r8, [r1], #-3586	; 0xfffff1fe
 268:	000ec4ce 	andeq	ip, lr, lr, asr #9
 26c:	0000000c 	andeq	r0, r0, ip
 270:	000001bc 			; <UNDEFINED> instruction: 0x000001bc
 274:	000006e0 	andeq	r0, r0, r0, ror #13
 278:	0000002c 	andeq	r0, r0, ip, lsr #32
 27c:	0000000c 	andeq	r0, r0, ip
 280:	000001bc 			; <UNDEFINED> instruction: 0x000001bc
 284:	0000070c 	andeq	r0, r0, ip, lsl #14
 288:	0000002c 	andeq	r0, r0, ip, lsr #32
 28c:	0000000c 	andeq	r0, r0, ip
 290:	000001bc 			; <UNDEFINED> instruction: 0x000001bc
 294:	00000738 	andeq	r0, r0, r8, lsr r7
 298:	0000002c 	andeq	r0, r0, ip, lsr #32
 29c:	0000000c 	andeq	r0, r0, ip
 2a0:	ffffffff 			; <UNDEFINED> instruction: 0xffffffff
 2a4:	7c020001 	stcvc	0, cr0, [r2], {1}
 2a8:	000d0c0e 	andeq	r0, sp, lr, lsl #24
 2ac:	0000000c 	andeq	r0, r0, ip
 2b0:	0000029c 	muleq	r0, ip, r2
 2b4:	00000780 	andeq	r0, r0, r0, lsl #15
 2b8:	0000003c 	andeq	r0, r0, ip, lsr r0
 2bc:	0000000c 	andeq	r0, r0, ip
 2c0:	0000029c 	muleq	r0, ip, r2
 2c4:	000007bc 			; <UNDEFINED> instruction: 0x000007bc
 2c8:	0000004c 	andeq	r0, r0, ip, asr #32
 2cc:	0000000c 	andeq	r0, r0, ip
 2d0:	0000029c 	muleq	r0, ip, r2
 2d4:	00000808 	andeq	r0, r0, r8, lsl #16
 2d8:	00000058 	andeq	r0, r0, r8, asr r0
 2dc:	0000000c 	andeq	r0, r0, ip
 2e0:	ffffffff 			; <UNDEFINED> instruction: 0xffffffff
 2e4:	7c020001 	stcvc	0, cr0, [r2], {1}
 2e8:	000d0c0e 	andeq	r0, sp, lr, lsl #24
 2ec:	0000000c 	andeq	r0, r0, ip
 2f0:	000002dc 	ldrdeq	r0, [r0], -ip
 2f4:	00000db0 			; <UNDEFINED> instruction: 0x00000db0
 2f8:	00000404 	andeq	r0, r0, r4, lsl #8
 2fc:	0000000c 	andeq	r0, r0, ip
 300:	000002dc 	ldrdeq	r0, [r0], -ip
 304:	000011b4 			; <UNDEFINED> instruction: 0x000011b4
 308:	000002c4 	andeq	r0, r0, r4, asr #5
 30c:	0000000c 	andeq	r0, r0, ip
 310:	000002dc 	ldrdeq	r0, [r0], -ip
 314:	00001478 	andeq	r1, r0, r8, ror r4
 318:	00000018 	andeq	r0, r0, r8, lsl r0
 31c:	0000000c 	andeq	r0, r0, ip
 320:	000002dc 	ldrdeq	r0, [r0], -ip
 324:	00001490 	muleq	r0, r0, r4
 328:	00000090 	muleq	r0, r0, r0
 32c:	0000000c 	andeq	r0, r0, ip
 330:	000002dc 	ldrdeq	r0, [r0], -ip
 334:	00001520 	andeq	r1, r0, r0, lsr #10
 338:	0000000c 	andeq	r0, r0, ip
 33c:	0000000c 	andeq	r0, r0, ip
 340:	000002dc 	ldrdeq	r0, [r0], -ip
 344:	0000152c 	andeq	r1, r0, ip, lsr #10
 348:	0000000c 	andeq	r0, r0, ip
 34c:	0000000c 	andeq	r0, r0, ip
 350:	000002dc 	ldrdeq	r0, [r0], -ip
 354:	00001538 	andeq	r1, r0, r8, lsr r5
 358:	00000014 	andeq	r0, r0, r4, lsl r0
 35c:	0000000c 	andeq	r0, r0, ip
 360:	000002dc 	ldrdeq	r0, [r0], -ip
 364:	0000154c 	andeq	r1, r0, ip, asr #10
 368:	00000010 	andeq	r0, r0, r0, lsl r0
 36c:	0000000c 	andeq	r0, r0, ip
 370:	ffffffff 			; <UNDEFINED> instruction: 0xffffffff
 374:	7c020001 	stcvc	0, cr0, [r2], {1}
 378:	000d0c0e 	andeq	r0, sp, lr, lsl #24
 37c:	00000018 	andeq	r0, r0, r8, lsl r0
 380:	0000036c 	andeq	r0, r0, ip, ror #6
 384:	0000155c 	andeq	r1, r0, ip, asr r5
 388:	000000ac 	andeq	r0, r0, ip, lsr #1
 38c:	84100e42 	ldrhi	r0, [r0], #-3650	; 0xfffff1be
 390:	86038504 	strhi	r8, [r3], -r4, lsl #10
 394:	00018e02 	andeq	r8, r1, r2, lsl #28
 398:	0000000c 	andeq	r0, r0, ip
 39c:	0000036c 	andeq	r0, r0, ip, ror #6
 3a0:	00001608 	andeq	r1, r0, r8, lsl #12
 3a4:	00000034 	andeq	r0, r0, r4, lsr r0
 3a8:	0000001c 	andeq	r0, r0, ip, lsl r0
 3ac:	0000036c 	andeq	r0, r0, ip, ror #6
 3b0:	0000163c 	andeq	r1, r0, ip, lsr r6
 3b4:	000000a0 	andeq	r0, r0, r0, lsr #1
 3b8:	84180e4a 	ldrhi	r0, [r8], #-3658	; 0xfffff1b6
 3bc:	86058506 	strhi	r8, [r5], -r6, lsl #10
 3c0:	88038704 	stmdahi	r3, {r2, r8, r9, sl, pc}
 3c4:	00018e02 	andeq	r8, r1, r2, lsl #28
 3c8:	00000018 	andeq	r0, r0, r8, lsl r0
 3cc:	0000036c 	andeq	r0, r0, ip, ror #6
 3d0:	000016dc 	ldrdeq	r1, [r0], -ip
 3d4:	000000a8 	andeq	r0, r0, r8, lsr #1
 3d8:	8e040e56 	mcrhi	14, 0, r0, cr4, cr6, {2}
 3dc:	000e7601 	andeq	r7, lr, r1, lsl #12
 3e0:	000000ce 	andeq	r0, r0, lr, asr #1
 3e4:	0000001c 	andeq	r0, r0, ip, lsl r0
 3e8:	0000036c 	andeq	r0, r0, ip, ror #6
 3ec:	00001784 	andeq	r1, r0, r4, lsl #15
 3f0:	00000094 	muleq	r0, r4, r0
 3f4:	8e040e56 	mcrhi	14, 0, r0, cr4, cr6, {2}
 3f8:	000e6e01 	andeq	r6, lr, r1, lsl #28
 3fc:	040e44ce 	streq	r4, [lr], #-1230	; 0xfffffb32
 400:	0000018e 	andeq	r0, r0, lr, lsl #3
 404:	0000000c 	andeq	r0, r0, ip
 408:	0000036c 	andeq	r0, r0, ip, ror #6
 40c:	00001818 	andeq	r1, r0, r8, lsl r8
 410:	00000014 	andeq	r0, r0, r4, lsl r0
 414:	0000000c 	andeq	r0, r0, ip
 418:	0000036c 	andeq	r0, r0, ip, ror #6
 41c:	0000182c 	andeq	r1, r0, ip, lsr #16
 420:	00000014 	andeq	r0, r0, r4, lsl r0
 424:	0000001c 	andeq	r0, r0, ip, lsl r0
 428:	0000036c 	andeq	r0, r0, ip, ror #6
 42c:	00001840 	andeq	r1, r0, r0, asr #16
 430:	000000a8 	andeq	r0, r0, r8, lsr #1
 434:	84180e4a 	ldrhi	r0, [r8], #-3658	; 0xfffff1b6
 438:	86058506 	strhi	r8, [r5], -r6, lsl #10
 43c:	88038704 	stmdahi	r3, {r2, r8, r9, sl, pc}
 440:	00018e02 	andeq	r8, r1, r2, lsl #28
 444:	00000018 	andeq	r0, r0, r8, lsl r0
 448:	0000036c 	andeq	r0, r0, ip, ror #6
 44c:	000018e8 	andeq	r1, r0, r8, ror #17
 450:	000000a8 	andeq	r0, r0, r8, lsr #1
 454:	8e040e56 	mcrhi	14, 0, r0, cr4, cr6, {2}
 458:	000e7601 	andeq	r7, lr, r1, lsl #12
 45c:	000000ce 	andeq	r0, r0, lr, asr #1
 460:	0000001c 	andeq	r0, r0, ip, lsl r0
 464:	0000036c 	andeq	r0, r0, ip, ror #6
 468:	00001990 	muleq	r0, r0, r9
 46c:	00000094 	muleq	r0, r4, r0
 470:	8e040e56 	mcrhi	14, 0, r0, cr4, cr6, {2}
 474:	000e6e01 	andeq	r6, lr, r1, lsl #28
 478:	040e44ce 	streq	r4, [lr], #-1230	; 0xfffffb32
 47c:	0000018e 	andeq	r0, r0, lr, lsl #3
 480:	0000000c 	andeq	r0, r0, ip
 484:	ffffffff 			; <UNDEFINED> instruction: 0xffffffff
 488:	7c020001 	stcvc	0, cr0, [r2], {1}
 48c:	000d0c0e 	andeq	r0, sp, lr, lsl #24
 490:	0000002c 	andeq	r0, r0, ip, lsr #32
 494:	00000480 	andeq	r0, r0, r0, lsl #9
 498:	00001a24 	andeq	r1, r0, r4, lsr #20
 49c:	000000cc 	andeq	r0, r0, ip, asr #1
 4a0:	841c0e48 	ldrhi	r0, [ip], #-3656	; 0xfffff1b8
 4a4:	86068507 	strhi	r8, [r6], -r7, lsl #10
 4a8:	88048705 	stmdahi	r4, {r0, r2, r8, r9, sl, pc}
 4ac:	8e028903 	cdphi	9, 0, cr8, cr2, cr3, {0}
 4b0:	480e4a01 	stmdami	lr, {r0, r9, fp, lr}
 4b4:	0e0a4602 	cfmadd32eq	mvax0, mvfx4, mvfx10, mvfx2
 4b8:	4a0b421c 	bmi	2d0d30 <__bss_end+0x2cdbb4>
 4bc:	00001c0e 	andeq	r1, r0, lr, lsl #24
 4c0:	00000024 	andeq	r0, r0, r4, lsr #32
 4c4:	00000480 	andeq	r0, r0, r0, lsl #9
 4c8:	00001af0 	strdeq	r1, [r0], -r0
 4cc:	00000098 	muleq	r0, r8, r0
 4d0:	84100e42 	ldrhi	r0, [r0], #-3650	; 0xfffff1be
 4d4:	86038504 	strhi	r8, [r3], -r4, lsl #10
 4d8:	4e018e02 	cdpmi	14, 0, cr8, cr1, cr2, {0}
 4dc:	0a74280e 	beq	1d0a51c <__bss_end+0x1d073a0>
 4e0:	0b42100e 	bleq	1084520 <__bss_end+0x10813a4>
 4e4:	00100e44 	andseq	r0, r0, r4, asr #28
 4e8:	00000024 	andeq	r0, r0, r4, lsr #32
 4ec:	00000480 	andeq	r0, r0, r0, lsl #9
 4f0:	00001b88 	andeq	r1, r0, r8, lsl #23
 4f4:	000000f4 	strdeq	r0, [r0], -r4
 4f8:	84100e42 	ldrhi	r0, [r0], #-3650	; 0xfffff1be
 4fc:	86038504 	strhi	r8, [r3], -r4, lsl #10
 500:	4a018e02 	bmi	63d10 <__bss_end+0x60b94>
 504:	6002380e 	andvs	r3, r2, lr, lsl #16
 508:	42100e0a 	andsmi	r0, r0, #10, 28	; 0xa0
 50c:	100e4a0b 	andne	r4, lr, fp, lsl #20
 510:	00000048 	andeq	r0, r0, r8, asr #32
 514:	00000480 	andeq	r0, r0, r0, lsl #9
 518:	00001c7c 	andeq	r1, r0, ip, ror ip
 51c:	000002fc 	strdeq	r0, [r0], -ip
 520:	80100e42 	andshi	r0, r0, r2, asr #28
 524:	82038104 	andhi	r8, r3, #4, 2
 528:	42018302 	andmi	r8, r1, #134217728	; 0x8000000
 52c:	0c84300e 	stceq	0, cr3, [r4], {14}
 530:	0a860b85 	beq	fe18334c <__bss_end+0xfe1801d0>
 534:	08880987 	stmeq	r8, {r0, r1, r2, r7, r8, fp}
 538:	068a0789 	streq	r0, [sl], r9, lsl #15
 53c:	0e42058e 	cdpeq	5, 4, cr0, cr2, cr14, {4}
 540:	0a800248 	beq	fe000e68 <__bss_end+0xfdffdcec>
 544:	ce42300e 	cdpgt	0, 4, cr3, cr2, cr14, {0}
 548:	c7c8c9ca 	strbgt	ip, [r8, sl, asr #19]
 54c:	0ec4c5c6 	cdpeq	5, 12, cr12, cr4, cr6, {6}
 550:	c2c34210 	sbcgt	r4, r3, #16, 4
 554:	000ec0c1 	andeq	ip, lr, r1, asr #1
 558:	00000b42 	andeq	r0, r0, r2, asr #22
 55c:	00000048 	andeq	r0, r0, r8, asr #32
 560:	00000480 	andeq	r0, r0, r0, lsl #9
 564:	00001f78 	andeq	r1, r0, r8, ror pc
 568:	000002fc 	strdeq	r0, [r0], -ip
 56c:	80100e42 	andshi	r0, r0, r2, asr #28
 570:	82038104 	andhi	r8, r3, #4, 2
 574:	42018302 	andmi	r8, r1, #134217728	; 0x8000000
 578:	0c84300e 	stceq	0, cr3, [r4], {14}
 57c:	0a860b85 	beq	fe183398 <__bss_end+0xfe18021c>
 580:	08880987 	stmeq	r8, {r0, r1, r2, r7, r8, fp}
 584:	068a0789 	streq	r0, [sl], r9, lsl #15
 588:	0e42058e 	cdpeq	5, 4, cr0, cr2, cr14, {4}
 58c:	0a800248 	beq	fe000eb4 <__bss_end+0xfdffdd38>
 590:	ce42300e 	cdpgt	0, 4, cr3, cr2, cr14, {0}
 594:	c7c8c9ca 	strbgt	ip, [r8, sl, asr #19]
 598:	0ec4c5c6 	cdpeq	5, 12, cr12, cr4, cr6, {6}
 59c:	c2c34210 	sbcgt	r4, r3, #16, 4
 5a0:	000ec0c1 	andeq	ip, lr, r1, asr #1
 5a4:	00000b42 	andeq	r0, r0, r2, asr #22
 5a8:	0000000c 	andeq	r0, r0, ip
 5ac:	ffffffff 			; <UNDEFINED> instruction: 0xffffffff
 5b0:	7c020001 	stcvc	0, cr0, [r2], {1}
 5b4:	000d0c0e 	andeq	r0, sp, lr, lsl #24
 5b8:	0000000c 	andeq	r0, r0, ip
 5bc:	000005a8 	andeq	r0, r0, r8, lsr #11
 5c0:	00002450 	andeq	r2, r0, r0, asr r4
 5c4:	0000000c 	andeq	r0, r0, ip
 5c8:	0000000c 	andeq	r0, r0, ip
 5cc:	000005a8 	andeq	r0, r0, r8, lsr #11
 5d0:	0000245c 	andeq	r2, r0, ip, asr r4
 5d4:	00000054 	andeq	r0, r0, r4, asr r0
 5d8:	0000000c 	andeq	r0, r0, ip
 5dc:	ffffffff 			; <UNDEFINED> instruction: 0xffffffff
 5e0:	7c020001 	stcvc	0, cr0, [r2], {1}
 5e4:	000d0c0e 	andeq	r0, sp, lr, lsl #24
 5e8:	00000018 	andeq	r0, r0, r8, lsl r0
 5ec:	000005d8 	ldrdeq	r0, [r0], -r8
 5f0:	000024b0 			; <UNDEFINED> instruction: 0x000024b0
 5f4:	00000090 	muleq	r0, r0, r0
 5f8:	84080e7a 	strhi	r0, [r8], #-3706	; 0xfffff186
 5fc:	4a018e02 	bmi	63e0c <__bss_end+0x60c90>
 600:	cec4000e 	cdpgt	0, 12, cr0, cr4, cr14, {0}
 604:	00000014 	andeq	r0, r0, r4, lsl r0
 608:	000005d8 	ldrdeq	r0, [r0], -r8
 60c:	00002540 	andeq	r2, r0, r0, asr #10
 610:	00000050 	andeq	r0, r0, r0, asr r0
 614:	62080e44 	andvs	r0, r8, #68, 28	; 0x440
 618:	0000000e 	andeq	r0, r0, lr
 61c:	0000000c 	andeq	r0, r0, ip
 620:	000005d8 	ldrdeq	r0, [r0], -r8
 624:	00002590 	muleq	r0, r0, r5
 628:	0000004c 	andeq	r0, r0, ip, asr #32
 62c:	0000000c 	andeq	r0, r0, ip
 630:	000005d8 	ldrdeq	r0, [r0], -r8
 634:	000025dc 	ldrdeq	r2, [r0], -ip
 638:	00000054 	andeq	r0, r0, r4, asr r0
 63c:	0000000c 	andeq	r0, r0, ip
 640:	ffffffff 			; <UNDEFINED> instruction: 0xffffffff
 644:	7c020001 	stcvc	0, cr0, [r2], {1}
 648:	000d0c0e 	andeq	r0, sp, lr, lsl #24
 64c:	0000000c 	andeq	r0, r0, ip
 650:	0000063c 	andeq	r0, r0, ip, lsr r6
 654:	00002630 	andeq	r2, r0, r0, lsr r6
 658:	0000002c 	andeq	r0, r0, ip, lsr #32
 65c:	0000000c 	andeq	r0, r0, ip
 660:	0000063c 	andeq	r0, r0, ip, lsr r6
 664:	0000265c 	andeq	r2, r0, ip, asr r6
 668:	0000002c 	andeq	r0, r0, ip, lsr #32
 66c:	0000000c 	andeq	r0, r0, ip
 670:	ffffffff 			; <UNDEFINED> instruction: 0xffffffff
 674:	7c020001 	stcvc	0, cr0, [r2], {1}
 678:	000d0c0e 	andeq	r0, sp, lr, lsl #24
 67c:	0000000c 	andeq	r0, r0, ip
 680:	0000066c 	andeq	r0, r0, ip, ror #12
 684:	00002688 	andeq	r2, r0, r8, lsl #13
 688:	00000058 	andeq	r0, r0, r8, asr r0
 68c:	0000000c 	andeq	r0, r0, ip
 690:	0000066c 	andeq	r0, r0, ip, ror #12
 694:	000026e0 	andeq	r2, r0, r0, ror #13
 698:	00000050 	andeq	r0, r0, r0, asr r0
 69c:	0000000c 	andeq	r0, r0, ip
 6a0:	0000066c 	andeq	r0, r0, ip, ror #12
 6a4:	00002730 	andeq	r2, r0, r0, lsr r7
 6a8:	00000034 	andeq	r0, r0, r4, lsr r0
 6ac:	0000000c 	andeq	r0, r0, ip
 6b0:	0000066c 	andeq	r0, r0, ip, ror #12
 6b4:	00002764 	andeq	r2, r0, r4, ror #14
 6b8:	00000028 	andeq	r0, r0, r8, lsr #32
 6bc:	0000000c 	andeq	r0, r0, ip
 6c0:	0000066c 	andeq	r0, r0, ip, ror #12
 6c4:	0000278c 	andeq	r2, r0, ip, lsl #15
 6c8:	00000048 	andeq	r0, r0, r8, asr #32
 6cc:	0000000c 	andeq	r0, r0, ip
 6d0:	0000066c 	andeq	r0, r0, ip, ror #12
 6d4:	000027d4 	ldrdeq	r2, [r0], -r4
 6d8:	00000040 	andeq	r0, r0, r0, asr #32
 6dc:	00000014 	andeq	r0, r0, r4, lsl r0
 6e0:	0000066c 	andeq	r0, r0, ip, ror #12
 6e4:	00002814 	andeq	r2, r0, r4, lsl r8
 6e8:	00000054 	andeq	r0, r0, r4, asr r0
 6ec:	8e040e4e 	cdphi	14, 0, cr0, cr4, cr14, {2}
 6f0:	00000001 	andeq	r0, r0, r1
 6f4:	0000000c 	andeq	r0, r0, ip
 6f8:	ffffffff 			; <UNDEFINED> instruction: 0xffffffff
 6fc:	7c020001 	stcvc	0, cr0, [r2], {1}
 700:	000d0c0e 	andeq	r0, sp, lr, lsl #24
 704:	0000000c 	andeq	r0, r0, ip
 708:	000006f4 	strdeq	r0, [r0], -r4
 70c:	00002868 	andeq	r2, r0, r8, ror #16
 710:	00000030 	andeq	r0, r0, r0, lsr r0
 714:	0000000c 	andeq	r0, r0, ip
 718:	000006f4 	strdeq	r0, [r0], -r4
 71c:	00002898 	muleq	r0, r8, r8
 720:	00000010 	andeq	r0, r0, r0, lsl r0
 724:	0000000c 	andeq	r0, r0, ip
 728:	000006f4 	strdeq	r0, [r0], -r4
 72c:	000028a8 	andeq	r2, r0, r8, lsr #17
 730:	0000003c 	andeq	r0, r0, ip, lsr r0
 734:	0000000c 	andeq	r0, r0, ip
 738:	000006f4 	strdeq	r0, [r0], -r4
 73c:	000028e4 	andeq	r2, r0, r4, ror #17
 740:	00000034 	andeq	r0, r0, r4, lsr r0
 744:	00000020 	andeq	r0, r0, r0, lsr #32
 748:	000006f4 	strdeq	r0, [r0], -r4
 74c:	00002918 	andeq	r2, r0, r8, lsl r9
 750:	0000007c 	andeq	r0, r0, ip, ror r0
 754:	84100e46 	ldrhi	r0, [r0], #-3654	; 0xfffff1ba
 758:	86038504 	strhi	r8, [r3], -r4, lsl #10
 75c:	74018e02 	strvc	r8, [r1], #-3586	; 0xfffff1fe
 760:	c5c4000e 	strbgt	r0, [r4, #14]
 764:	0000cec6 	andeq	ip, r0, r6, asr #29
 768:	00000018 	andeq	r0, r0, r8, lsl r0
 76c:	000006f4 	strdeq	r0, [r0], -r4
 770:	00002994 	muleq	r0, r4, r9
 774:	00000048 	andeq	r0, r0, r8, asr #32
 778:	8e040e4e 	cdphi	14, 0, cr0, cr4, cr14, {2}
 77c:	000e5201 	andeq	r5, lr, r1, lsl #4
 780:	000000ce 	andeq	r0, r0, lr, asr #1
 784:	00000018 	andeq	r0, r0, r8, lsl r0
 788:	000006f4 	strdeq	r0, [r0], -r4
 78c:	000029dc 	ldrdeq	r2, [r0], -ip
 790:	0000006c 	andeq	r0, r0, ip, rrx
 794:	84100e4a 	ldrhi	r0, [r0], #-3658	; 0xfffff1b6
 798:	86038504 	strhi	r8, [r3], -r4, lsl #10
 79c:	00018e02 	andeq	r8, r1, r2, lsl #28
 7a0:	00000014 	andeq	r0, r0, r4, lsl r0
 7a4:	000006f4 	strdeq	r0, [r0], -r4
 7a8:	00002a48 	andeq	r2, r0, r8, asr #20
 7ac:	00000050 	andeq	r0, r0, r0, asr r0
 7b0:	84080e4a 	strhi	r0, [r8], #-3658	; 0xfffff1b6
 7b4:	00018e02 	andeq	r8, r1, r2, lsl #28
 7b8:	00000014 	andeq	r0, r0, r4, lsl r0
 7bc:	000006f4 	strdeq	r0, [r0], -r4
 7c0:	00002a98 	muleq	r0, r8, sl
 7c4:	00000098 	muleq	r0, r8, r0
 7c8:	84080e4e 	strhi	r0, [r8], #-3662	; 0xfffff1b2
 7cc:	00018e02 	andeq	r8, r1, r2, lsl #28
 7d0:	0000000c 	andeq	r0, r0, ip
 7d4:	000006f4 	strdeq	r0, [r0], -r4
 7d8:	00002b30 	andeq	r2, r0, r0, lsr fp
 7dc:	00000060 	andeq	r0, r0, r0, rrx
 7e0:	0000001c 	andeq	r0, r0, ip, lsl r0
 7e4:	000006f4 	strdeq	r0, [r0], -r4
 7e8:	00002b90 	muleq	r0, r0, fp
 7ec:	0000007c 	andeq	r0, r0, ip, ror r0
 7f0:	840c0e5a 	strhi	r0, [ip], #-3674	; 0xfffff1a6
 7f4:	8e028503 	cfsh32hi	mvfx8, mvfx2, #3
 7f8:	c5ce5c01 	strbgt	r5, [lr, #3073]	; 0xc01
 7fc:	00000ec4 	andeq	r0, r0, r4, asr #29

Disassembly of section .debug_ranges:

00000000 <.debug_ranges>:
   0:	00000040 	andeq	r0, r0, r0, asr #32
   4:	00000050 	andeq	r0, r0, r0, asr r0
   8:	00000054 	andeq	r0, r0, r4, asr r0
   c:	00000058 	andeq	r0, r0, r8, asr r0
  10:	0000005c 	andeq	r0, r0, ip, asr r0
  14:	00000068 	andeq	r0, r0, r8, rrx
	...
  20:	000000c0 	andeq	r0, r0, r0, asr #1
  24:	000000c4 	andeq	r0, r0, r4, asr #1
  28:	000000d8 	ldrdeq	r0, [r0], -r8
  2c:	000000e0 	andeq	r0, r0, r0, ror #1
	...
  38:	000000e0 	andeq	r0, r0, r0, ror #1
  3c:	000000e4 	andeq	r0, r0, r4, ror #1
  40:	000000e8 	andeq	r0, r0, r8, ror #1
  44:	000000f0 	strdeq	r0, [r0], -r0	; <UNPREDICTABLE>
  48:	000000f4 	strdeq	r0, [r0], -r4
  4c:	00000104 	andeq	r0, r0, r4, lsl #2
  50:	00000110 	andeq	r0, r0, r0, lsl r1
  54:	0000011c 	andeq	r0, r0, ip, lsl r1
	...
  60:	00000144 	andeq	r0, r0, r4, asr #2
  64:	00000148 	andeq	r0, r0, r8, asr #2
  68:	0000014c 	andeq	r0, r0, ip, asr #2
  6c:	00000150 	andeq	r0, r0, r0, asr r1
  70:	00000178 	andeq	r0, r0, r8, ror r1
  74:	00000180 	andeq	r0, r0, r0, lsl #3
	...
  80:	000001a0 	andeq	r0, r0, r0, lsr #3
  84:	000001a8 	andeq	r0, r0, r8, lsr #3
  88:	000001ac 	andeq	r0, r0, ip, lsr #3
  8c:	000001b4 			; <UNDEFINED> instruction: 0x000001b4
  90:	000001f4 	strdeq	r0, [r0], -r4
  94:	00000218 	andeq	r0, r0, r8, lsl r2
	...
  a0:	0000024c 	andeq	r0, r0, ip, asr #4
  a4:	00000250 	andeq	r0, r0, r0, asr r2
  a8:	00000254 	andeq	r0, r0, r4, asr r2
  ac:	0000025c 	andeq	r0, r0, ip, asr r2
  b0:	00000268 	andeq	r0, r0, r8, ror #4
  b4:	0000028c 	andeq	r0, r0, ip, lsl #5
	...
  c0:	000002e4 	andeq	r0, r0, r4, ror #5
  c4:	000002e8 	andeq	r0, r0, r8, ror #5
  c8:	000002ec 	andeq	r0, r0, ip, ror #5
  cc:	000002f4 	strdeq	r0, [r0], -r4
  d0:	000002f8 	strdeq	r0, [r0], -r8
  d4:	00000300 	andeq	r0, r0, r0, lsl #6
  d8:	00000304 	andeq	r0, r0, r4, lsl #6
  dc:	00000308 	andeq	r0, r0, r8, lsl #6
  e0:	0000030c 	andeq	r0, r0, ip, lsl #6
  e4:	0000032c 	andeq	r0, r0, ip, lsr #6
	...
  f0:	000003ac 	andeq	r0, r0, ip, lsr #7
  f4:	000003b4 			; <UNDEFINED> instruction: 0x000003b4
  f8:	000003b8 			; <UNDEFINED> instruction: 0x000003b8
  fc:	000003c0 	andeq	r0, r0, r0, asr #7
 100:	00000400 	andeq	r0, r0, r0, lsl #8
 104:	00000424 	andeq	r0, r0, r4, lsr #8
	...
 110:	00000458 	andeq	r0, r0, r8, asr r4
 114:	0000045c 	andeq	r0, r0, ip, asr r4
 118:	00000460 	andeq	r0, r0, r0, ror #8
 11c:	00000468 	andeq	r0, r0, r8, ror #8
 120:	00000474 	andeq	r0, r0, r4, ror r4
 124:	00000498 	muleq	r0, r8, r4
	...
 130:	00000108 	andeq	r0, r0, r8, lsl #2
 134:	0000010c 	andeq	r0, r0, ip, lsl #2
 138:	00000110 	andeq	r0, r0, r0, lsl r1
 13c:	00000128 	andeq	r0, r0, r8, lsr #2
 140:	00000134 	andeq	r0, r0, r4, lsr r1
 144:	00000150 	andeq	r0, r0, r0, asr r1
 148:	00000158 	andeq	r0, r0, r8, asr r1
 14c:	0000015c 	andeq	r0, r0, ip, asr r1
	...
 158:	0000038c 	andeq	r0, r0, ip, lsl #7
 15c:	000003ac 	andeq	r0, r0, ip, lsr #7
 160:	00000544 	andeq	r0, r0, r4, asr #10
 164:	0000054c 	andeq	r0, r0, ip, asr #10
	...
 170:	0000044c 	andeq	r0, r0, ip, asr #8
 174:	0000046c 	andeq	r0, r0, ip, ror #8
 178:	0000054c 	andeq	r0, r0, ip, asr #10
 17c:	00000554 	andeq	r0, r0, r4, asr r5
	...
 188:	000004b8 			; <UNDEFINED> instruction: 0x000004b8
 18c:	000004d8 	ldrdeq	r0, [r0], -r8
 190:	0000053c 	andeq	r0, r0, ip, lsr r5
 194:	00000544 	andeq	r0, r0, r4, asr #10
	...
 1a0:	00000688 	andeq	r0, r0, r8, lsl #13
 1a4:	000006a8 	andeq	r0, r0, r8, lsr #13
 1a8:	00000840 	andeq	r0, r0, r0, asr #16
 1ac:	00000848 	andeq	r0, r0, r8, asr #16
	...
 1b8:	00000748 	andeq	r0, r0, r8, asr #14
 1bc:	00000768 	andeq	r0, r0, r8, ror #14
 1c0:	00000848 	andeq	r0, r0, r8, asr #16
 1c4:	00000850 	andeq	r0, r0, r0, asr r8
	...
 1d0:	000007b4 			; <UNDEFINED> instruction: 0x000007b4
 1d4:	000007d4 	ldrdeq	r0, [r0], -r4
 1d8:	00000838 	andeq	r0, r0, r8, lsr r8
 1dc:	00000840 	andeq	r0, r0, r0, asr #16
	...
